 FileServer

 Timestamp is 5c20941b (Mon Dec 24 16:08:59 2018)

 Preferred load address is 00400000

 Start         Length     Name                   Class
 0001:00000000 001c2350H .text                   CODE
 0001:001c2350 000146efH .text$x                 CODE
 0001:001d6a40 000044ecH .text$yc                CODE
 0001:001daf30 00000b0cH .text$yd                CODE
 0002:00000000 00000b30H .idata$5                DATA
 0002:00000b30 00000004H .CRT$XCA                DATA
 0002:00000b34 00000008H .CRT$XCC                DATA
 0002:00000b3c 00000020H .CRT$XCL                DATA
 0002:00000b5c 00000530H .CRT$XCU                DATA
 0002:0000108c 00000004H .CRT$XCZ                DATA
 0002:00001090 00000004H .CRT$XIA                DATA
 0002:00001094 00000018H .CRT$XIC                DATA
 0002:000010ac 00000004H .CRT$XIY                DATA
 0002:000010b0 00000004H .CRT$XIZ                DATA
 0002:000010b4 00000004H .CRT$XLA                DATA
 0002:000010b8 00000004H .CRT$XLZ                DATA
 0002:000010bc 00000004H .CRT$XPA                DATA
 0002:000010c0 00000004H .CRT$XPX                DATA
 0002:000010c4 00000004H .CRT$XPXA               DATA
 0002:000010c8 00000004H .CRT$XPZ                DATA
 0002:000010cc 00000004H .CRT$XTA                DATA
 0002:000010d0 00000004H .CRT$XTZ                DATA
 0002:000010e0 00042fe8H .rdata                  DATA
 0002:000440c8 00000018H .rdata$T                DATA
 0002:000440e0 00000071H .rdata$debug            DATA
 0002:00044154 0000ecb4H .rdata$r                DATA
 0002:00052e10 00001520H .rdata$sxdata           DATA
 0002:00054330 00000004H .rtc$IAA                DATA
 0002:00054334 00000004H .rtc$IZZ                DATA
 0002:00054338 00000004H .rtc$TAA                DATA
 0002:0005433c 00000004H .rtc$TZZ                DATA
 0002:00054340 00015b98H .xdata$x                DATA
 0002:00069ed8 00000000H ATL$__a                 DATA
 0002:00069ed8 00000000H ATL$__z                 DATA
 0002:00069ed8 00000190H .idata$2                DATA
 0002:0006a068 00000014H .idata$3                DATA
 0002:0006a07c 00000b30H .idata$4                DATA
 0002:0006abac 00002ec6H .idata$6                DATA
 0002:0006da72 00000000H .edata                  DATA
 0003:00000000 00009ab0H .data                   DATA
 0003:00009ac0 000089dcH .bss                    DATA
 0004:00000000 00000001H .tls                    DATA
 0004:00000004 00000004H .stls                   DATA
 0004:00000008 00000001H .tls$ZZZ                DATA
 0005:00000000 00004fb0H .rsrc$01                DATA
 0005:00004fb0 00075f10H .rsrc$02                DATA

  Address         Publics by Value              Rva+Base       Lib:Object

 0000:00000000       __except_list              00000000     <absolute>
 0000:0000002c       __tls_array                0000002c     <absolute>
 0000:00000548       ___safe_se_handler_count   00000548     <absolute>
 0000:00000000       ___ImageBase               00400000     <linker-defined>
 0001:00000000       ?GetSafeHdc@CDC@@QBEPAUHDC__@@XZ 00401000 f i GridCell.obj
 0001:00000010       ?GetTextExtent@CDC@@QBE?AVCSize@@PBDH@Z 00401010 f i GridCell.obj
 0001:00000050       ?_AtlGetStringResourceImage@ATL@@YAPBUATLSTRINGRESOURCEIMAGE@1@PAUHINSTANCE__@@PAUHRSRC__@@I@Z 00401050 f i GridCell.obj
 0001:000000c0       ?AtlGetStringResourceImage@ATL@@YAPBUATLSTRINGRESOURCEIMAGE@1@PAUHINSTANCE__@@I@Z 004010c0 f i GridCell.obj
 0001:00000100       ?GetBaseTypeLength@?$ChTraitsCRT@D@ATL@@SAHPB_WH@Z 00401100 f i GridCell.obj
 0001:00000120       ?ConvertToBaseType@?$ChTraitsCRT@D@ATL@@SAXPADHPB_WH@Z 00401120 f i GridCell.obj
 0001:00000150       ?LoadStringA@?$CStringT@DV?$StrTraitMFC@DV?$ChTraitsCRT@D@ATL@@@@@ATL@@QAEHPAUHINSTANCE__@@I@Z 00401150 f i GridCell.obj
 0001:00000210       ?LoadStringA@?$CStringT@DV?$StrTraitMFC@DV?$ChTraitsCRT@D@ATL@@@@@ATL@@QAEHI@Z 00401210 f i GridCell.obj
 0001:00000240       ?CheckImplicitLoad@?$CStringT@DV?$StrTraitMFC@DV?$ChTraitsCRT@D@ATL@@@@@ATL@@AAE_NPBX@Z 00401240 f i GridCell.obj
 0001:00000280       ??0?$CStringT@DV?$StrTraitMFC@DV?$ChTraitsCRT@D@ATL@@@@@ATL@@QAE@PBD@Z 00401280 f i GridCell.obj
 0001:00000340       ??1CFont@@UAE@XZ           00401340 f i GridCell.obj
 0001:00000350       ??_ECGdiObject@@UAEPAXI@Z  00401350 f i  CIL library: CIL module
 0001:00000350       ??_GCGdiObject@@UAEPAXI@Z  00401350 f i GridCell.obj
 0001:00000380       ?FormatV@?$CStringT@DV?$StrTraitMFC@DV?$ChTraitsCRT@D@ATL@@@@@ATL@@QAEXPBDPAD@Z 00401380 f i GridCell.obj
 0001:00000400       ?Format@?$CStringT@DV?$StrTraitMFC@DV?$ChTraitsCRT@D@ATL@@@@@ATL@@QAAXPBDZZ 00401400 f i GridCell.obj
 0001:00000420       ??1CGdiObject@@UAE@XZ      00401420 f i GridCell.obj
 0001:00000530       ??_ECFont@@UAEPAXI@Z       00401530 f i  CIL library: CIL module
 0001:00000530       ??_GCFont@@UAEPAXI@Z       00401530 f i GridCell.obj
 0001:00000560       ?OnMouseWheel@CXTPMarkupInputElement@@UAEXPAVCXTPMarkupMouseWheelEventArgs@@@Z 00401560 f i ToolkitPro1531vc100S:XTPMarkupInputElement.obj
 0001:00000560       ?OnLButtonUp@CXTPReportRecordItemControl@@UAEXPAUXTP_REPORTRECORDITEM_CLICKARGS@@@Z 00401560 f i ToolkitPro1531vc100S:XTPReportRecordItemControls.obj
 0001:00000560       ?OnMouseLeftButtonDown@CXTPMarkupInputElement@@UAEXPAVCXTPMarkupMouseButtonEventArgs@@@Z 00401560 f i ToolkitPro1531vc100S:XTPMarkupInputElement.obj
 0001:00000560       ?TxKillTimer@XTextHost@CXTPRichRender@@UAEXI@Z 00401560 f i ToolkitPro1531vc100S:XTPRichRender.obj
 0001:00000560       ?OnLostMouseCapture@CXTPMarkupInputElement@@UAEXPAVCXTPMarkupMouseEventArgs@@@Z 00401560 f i ToolkitPro1531vc100S:XTPMarkupInputElement.obj
 0001:00000560       ?TxSetCapture@XTextHost@CXTPRichRender@@UAEXH@Z 00401560 f i ToolkitPro1531vc100S:XTPRichRender.obj
 0001:00000560       ?OnRenderFocusVisual@CXTPMarkupVisual@@MAEXPAVCXTPMarkupDrawingContext@@@Z 00401560 f i ToolkitPro1531vc100S:XTPMarkupUIElement.obj
 0001:00000560       ?OnRender@CXTPMarkupVisual@@MAEXPAVCXTPMarkupDrawingContext@@@Z 00401560 f i ToolkitPro1531vc100S:XTPMarkupUIElement.obj
 0001:00000560       ?Focus@CXTPMarkupKeyboardNavigation@@QAEXPAVCXTPMarkupInputElement@@@Z 00401560 f i ToolkitPro1531vc100S:XTPMarkupKeyboardNavigation.obj
 0001:00000560       ?OnMouseLeftButtonUp@CXTPMarkupInputElement@@UAEXPAVCXTPMarkupMouseButtonEventArgs@@@Z 00401560 f i ToolkitPro1531vc100S:XTPMarkupInputElement.obj
 0001:00000560       ?OnMouseRightButtonUp@CXTPMarkupInputElement@@UAEXPAVCXTPMarkupMouseButtonEventArgs@@@Z 00401560 f i ToolkitPro1531vc100S:XTPMarkupInputElement.obj
 0001:00000560       ?DoDataExchange@CAboutDlg@@MAEXPAVCDataExchange@@@Z 00401560 f i MtkFileServerDlg.obj
 0001:00000560       ?ReleaseDC@CXTPMarkupDeviceContext@@UAEXPAUHDC__@@@Z 00401560 f i ToolkitPro1531vc100S:XTPMarkupDeviceContext.obj
 0001:00000560       ?TxImmReleaseContext@XTextHost@CXTPRichRender@@UAEXPAUXTP_HIMC__@@@Z 00401560 f i ToolkitPro1531vc100S:XTPRichRender.obj
 0001:00000560       ?OnMouseMove@CXTPMarkupInputElement@@UAEXPAVCXTPMarkupMouseEventArgs@@@Z 00401560 f i ToolkitPro1531vc100S:XTPMarkupInputElement.obj
 0001:00000560       ?OnLButtonDown@CXTPReportRecordItemControl@@UAEXPAUXTP_REPORTRECORDITEM_CLICKARGS@@@Z 00401560 f i ToolkitPro1531vc100S:XTPReportRecordItemControls.obj
 0001:00000560       ?TxViewChange@XTextHost@CXTPRichRender@@UAEXH@Z 00401560 f i ToolkitPro1531vc100S:XTPRichRender.obj
 0001:00000560       ?Serialize@CObject@@UAEXAAVCArchive@@@Z 00401560 f i GridCell.obj
 0001:00000560       ?DoDataExchange@CWnd@@MAEXPAVCDataExchange@@@Z 00401560 f i GridCtrl.obj
 0001:00000560       ?OnMouseRightButtonDown@CXTPMarkupInputElement@@UAEXPAVCXTPMarkupMouseButtonEventArgs@@@Z 00401560 f i ToolkitPro1531vc100S:XTPMarkupInputElement.obj
 0001:00000560       ?OnEditCanceled@CXTPReportRecordItem@@UAEXPAUXTP_REPORTRECORDITEM_ARGS@@@Z 00401560 f i ToolkitPro1531vc100S:XTPReportRecordItemText.obj
 0001:00000560       ?OnVisibleChanged@CXTPToolTipContextToolTip@@MAEXH@Z 00401560 f i ToolkitPro1531vc100S:XTPToolTipContext.obj
 0001:00000570       ??3CObject@@SGXPAX@Z       00401570 f i GridCell.obj
 0001:00000590       ??0?$CSimpleStringT@D$0A@@ATL@@QAE@PAUIAtlStringMgr@1@@Z 00401590 f i GridCell.obj
 0001:000005c0       ??0?$CStringT@DV?$StrTraitMFC@DV?$ChTraitsCRT@D@ATL@@@@@ATL@@QAE@XZ 004015c0 f i GridCell.obj
 0001:000005f0       ??1?$CStringT@DV?$StrTraitMFC@DV?$ChTraitsCRT@D@ATL@@@@@ATL@@QAE@XZ 004015f0 f i GridCell.obj
 0001:000005f0       ??1TOOLITEM@CXTPToolTipContextToolTip@@QAE@XZ 004015f0 f i ToolkitPro1531vc100S:XTPToolTipContext.obj
 0001:000005f0       ??1?$CSimpleStringT@D$0A@@ATL@@QAE@XZ 004015f0 f i GridCell.obj
 0001:00000610       ?Empty@?$CSimpleStringT@D$0A@@ATL@@QAEXXZ 00401610 f i GridCell.obj
 0001:00000670       ?Release@CStringData@ATL@@QAEXXZ 00401670 f i GridCell.obj
 0001:00000690       ?Fork@?$CSimpleStringT@D$0A@@ATL@@AAEXH@Z 00401690 f i GridCell.obj
 0001:00000710       ?ThrowMemoryException@?$CSimpleStringT@D$0A@@ATL@@KAXXZ 00401710 f i GridCell.obj
 0001:00000720       ?Reallocate@?$CSimpleStringT@D$0A@@ATL@@AAEXH@Z 00401720 f i GridCell.obj
 0001:00000760       ?PrepareWrite2@?$CSimpleStringT@D$0A@@ATL@@AAEXH@Z 00401760 f i GridCell.obj
 0001:000007c0       ?GetBuffer@?$CSimpleStringT@D$0A@@ATL@@QAEPADH@Z 004017c0 f i GridCell.obj
 0001:000007c0       ?PrepareWrite@?$CSimpleStringT@D$0A@@ATL@@AAEPADH@Z 004017c0 f i GridCell.obj
 0001:00000800       ?AtlThrowImpl@ATL@@YGXJ@Z  00401800 f i GridCell.obj
 0001:00000820       ?SetLength@?$CSimpleStringT@D$0A@@ATL@@AAEXH@Z 00401820 f i GridCell.obj
 0001:00000850       ?SetString@?$CSimpleStringT@D$0A@@ATL@@QAEXPBDH@Z 00401850 f i GridCell.obj
 0001:000008f0       ?SetString@?$CSimpleStringT@D$0A@@ATL@@QAEXPBD@Z 004018f0 f i GridCell.obj
 0001:00000930       ??4?$CStringT@DV?$StrTraitMFC@DV?$ChTraitsCRT@D@ATL@@@@@ATL@@QAEAAV01@PBD@Z 00401930 f i GridCell.obj
 0001:00000970       ?Find@?$CStringT@DV?$StrTraitMFC@DV?$ChTraitsCRT@D@ATL@@@@@ATL@@QBEHDH@Z 00401970 f i GridCellBase.obj
 0001:000009b0       ?Mid@?$CStringT@DV?$StrTraitMFC@DV?$ChTraitsCRT@D@ATL@@@@@ATL@@QBE?AV12@H@Z 004019b0 f i GridCellBase.obj
 0001:000009e0       ??$AtlAddThrow@H@ATL@@YAHHH@Z 004019e0 f i GridCellBase.obj
 0001:00000a10       ?Mid@?$CStringT@DV?$StrTraitMFC@DV?$ChTraitsCRT@D@ATL@@@@@ATL@@QBE?AV12@HH@Z 00401a10 f i GridCellBase.obj
 0001:00000ac0       ??4?$CSimpleStringT@D$0A@@ATL@@QAEAAV01@ABV01@@Z 00401ac0 f i GridCellBase.obj
 0001:00000b30       ??0?$CSimpleStringT@D$0A@@ATL@@QAE@PBDHPAUIAtlStringMgr@1@@Z 00401b30 f i GridCellBase.obj
 0001:00000bb0       ?GetManager@?$CStringT@DV?$StrTraitMFC@DV?$ChTraitsCRT@D@ATL@@@@@ATL@@QBEPAUIAtlStringMgr@2@XZ 00401bb0 f i GridCellBase.obj
 0001:00000be0       ?Left@?$CStringT@DV?$StrTraitMFC@DV?$ChTraitsCRT@D@ATL@@@@@ATL@@QBE?AV12@H@Z 00401be0 f i GridCellBase.obj
 0001:00000c60       ?CloneData@?$CSimpleStringT@D$0A@@ATL@@CAPAUCStringData@2@PAU32@@Z 00401c60 f i GridCellBase.obj
 0001:00000cd0       ?GetTextExtent@CDC@@QBE?AVCSize@@ABV?$CStringT@DV?$StrTraitMFC@DV?$ChTraitsCRT@D@ATL@@@@@ATL@@@Z 00401cd0 f i GridCellBase.obj
 0001:00000d10       ?GetProcAddress_ImageList_Draw@CComCtlWrapper@@QAE?AUImageList_Draw_Type@1@XZ 00401d10 f i GridCellBase.obj
 0001:00000d70       ?_ImageList_Draw@CComCtlWrapper@@QAEHPAU_IMAGELIST@@HPAUHDC__@@HHI@Z 00401d70 f i GridCellBase.obj
 0001:00000e70       ?AfxImageList_Draw@@YGHPAU_IMAGELIST@@HPAUHDC__@@HHI@Z 00401e70 f i GridCellBase.obj
 0001:00000ea0       ?Draw@CImageList@@QAEHPAVCDC@@HUtagPOINT@@I@Z 00401ea0 f i GridCellBase.obj
 0001:00000ee0       ?GetModuleHandleA@CDllIsolationWrapperBase@@QAEPAUHINSTANCE__@@XZ 00401ee0 f i GridCellBase.obj
 0001:00000f20       ?GetProcAddress_ImageList_GetImageInfo@CComCtlWrapper@@QAE?AUImageList_GetImageInfo_Type@1@XZ 00401f20 f i GridCellBase.obj
 0001:00000f80       ?_ImageList_GetImageInfo@CComCtlWrapper@@QAEHPAU_IMAGELIST@@HPAU_IMAGEINFO@@@Z 00401f80 f i GridCellBase.obj
 0001:00001080       ??_GCPen@@UAEPAXI@Z        00402080 f i GridCellBase.obj
 0001:00001080       ??_ECPen@@UAEPAXI@Z        00402080 f i  CIL library: CIL module
 0001:000010b0       ??1CPen@@UAE@XZ            004020b0 f i GridCellBase.obj
 0001:000010c0       ?FillRect@CDC@@QAEXPBUtagRECT@@PAVCBrush@@@Z 004020c0 f i GridCellBase.obj
 0001:00001100       ??_ECBrush@@UAEPAXI@Z      00402100 f i  CIL library: CIL module
 0001:00001100       ??_GCBrush@@UAEPAXI@Z      00402100 f i GridCellBase.obj
 0001:00001130       ??1CBrush@@UAE@XZ          00402130 f i GridCellBase.obj
 0001:00001140       ??1AFX_EXCEPTION_LINK@@QAE@XZ 00402140 f i GridCellBase.obj
 0001:00001150       ?Find@?$CStringT@DV?$StrTraitMFC@DV?$ChTraitsCRT@D@ATL@@@@@ATL@@QBEHPBDH@Z 00402150 f i GridCtrl.obj
 0001:00001190       ?TrimRight@?$CStringT@DV?$StrTraitMFC@DV?$ChTraitsCRT@D@ATL@@@@@ATL@@QAEAAV12@XZ 00402190 f i GridCtrl.obj
 0001:00001210       ?TrimLeft@?$CStringT@DV?$StrTraitMFC@DV?$ChTraitsCRT@D@ATL@@@@@ATL@@QAEAAV12@XZ 00402210 f i GridCtrl.obj
 0001:00001330       ?Escape@CDC@@UAEHHHPBDPAX@Z 00402330 f i GridCtrl.obj
 0001:00001360       ?GrayStringA@CDC@@UAEHPAVCBrush@@P6GHPAUHDC__@@JH@ZJHHHHH@Z 00402360 f i GridCtrl.obj
 0001:000013a0       ?DrawTextExA@CDC@@UAEHPADHPAUtagRECT@@IPAUtagDRAWTEXTPARAMS@@@Z 004023a0 f i GridCtrl.obj
 0001:000013d0       ?TabbedTextOutA@CDC@@UAE?AVCSize@@HHPBDHHPAHH@Z 004023d0 f i GridCtrl.obj
 0001:00001410       ?ExtTextOutA@CDC@@UAEHHHIPBUtagRECT@@PBDIPAH@Z 00402410 f i GridCtrl.obj
 0001:00001440       ?TextOutA@CDC@@UAEHHHPBDH@Z 00402440 f i GridCtrl.obj
 0001:00001470       ?RectVisible@CDC@@UBEHPBUtagRECT@@@Z 00402470 f i GridCtrl.obj
 0001:00001490       ?PtVisible@CDC@@UBEHHH@Z   00402490 f i GridCtrl.obj
 0001:000014b0       ?EnsureRead@CArchive@@QAEXPAXI@Z 004024b0 f i GridCtrl.obj
 0001:000014e0       ??$HashKey@K@@YGIK@Z       004024e0 f i GridCtrl.obj
 0001:00001510       ?AfxCrtErrorCheck@@YAHH@Z  00402510 f i GridCtrl.obj
 0001:000015a0       ?memmove_s@Checked@ATL@@YAXPAXIPBXI@Z 004025a0 f i GridCtrl.obj
 0001:00001640       ?Compare@?$CStringT@DV?$StrTraitMFC@DV?$ChTraitsCRT@D@ATL@@@@@ATL@@QBEHPBD@Z 00402640 f i GridCtrl.obj
 0001:00001670       ??9ATL@@YA_NABV?$CStringT@DV?$StrTraitMFC@DV?$ChTraitsCRT@D@ATL@@@@@0@0@Z 00402670 f i GridCtrl.obj
 0001:000016a0       ?GetProcAddress_ImageList_AddMasked@CComCtlWrapper@@QAE?AUImageList_AddMasked_Type@1@XZ 004026a0 f i GridCtrl.obj
 0001:00001700       ?_ImageList_AddMasked@CComCtlWrapper@@QAEHPAU_IMAGELIST@@PAUHBITMAP__@@K@Z 00402700 f i GridCtrl.obj
 0001:00001800       ?AfxImageList_AddMasked@@YGHPAU_IMAGELIST@@PAUHBITMAP__@@K@Z 00402800 f i GridCtrl.obj
 0001:00001830       ??0?$CStringT@DV?$StrTraitMFC@DV?$ChTraitsCRT@D@ATL@@@@@ATL@@QAE@DH@Z 00402830 f i GridCtrl.obj
 0001:000018f0       ??1CFileException@@UAE@XZ  004028f0 f i GridCtrl.obj
 0001:00001920       ??_ECFileException@@UAEPAXI@Z 00402920 f i  CIL library: CIL module
 0001:00001920       ??_GCFileException@@UAEPAXI@Z 00402920 f i GridCtrl.obj
 0001:00001970       ??0CFileException@@QAE@HJPBD@Z 00402970 f i GridCtrl.obj
 0001:00001a20       ?GetBufferSetLength@?$CSimpleStringT@D$0A@@ATL@@QAEPADH@Z 00402a20 f i GridCtrl.obj
 0001:00001a70       ?Format@COleDateTime@ATL@@QBE?AV?$CStringT@DV?$StrTraitMFC@DV?$ChTraitsCRT@D@ATL@@@@@2@PBD@Z 00402a70 f i GridCtrl.obj
 0001:00001d90       ?AtlConvertSystemTimeToVariantTime@ATL@@YAHABU_SYSTEMTIME@@PAN@Z 00402d90 f i GridCtrl.obj
 0001:00001e60       ??4COleDateTime@ATL@@QAEAAV01@AB_J@Z 00402e60 f i GridCtrl.obj
 0001:00001f30       ?DrawTextA@CDC@@UAEHPBDHPAUtagRECT@@I@Z 00402f30 f i GridCtrl.obj
 0001:00001f60       ??_ECCommonDialog@@UAEPAXI@Z 00402f60 f i  CIL library: CIL module
 0001:00001f60       ??_GCCommonDialog@@UAEPAXI@Z 00402f60 f i GridCtrl.obj
 0001:00001f90       ?BeginModalState@CWnd@@UAEXXZ 00402f90 f i GridCtrl.obj
 0001:00001fa0       ?EndModalState@CWnd@@UAEXXZ 00402fa0 f i GridCtrl.obj
 0001:00001fb0       ?Create@CDialog@@UAEHIPAVCWnd@@@Z 00402fb0 f i GridCtrl.obj
 0001:00001fd0       ??1CCommonDialog@@UAE@XZ   00402fd0 f i GridCtrl.obj
 0001:00001fd0       ??1CPrintDialog@@UAE@XZ    00402fd0 f i GridCtrl.obj
 0001:00001fe0       ??9CPoint@@QBEHUtagPOINT@@@Z 00402fe0 f i GridCtrl.obj
 0001:00002010       ??1COleDataObject@@QAE@XZ  00403010 f i GridCtrl.obj
 0001:00002020       ?ReleaseBuffer@?$CSimpleStringT@D$0A@@ATL@@QAEXH@Z 00403020 f i GridCtrl.obj
 0001:00002070       ?Append@?$CSimpleStringT@D$0A@@ATL@@QAEXPBDH@Z 00403070 f i GridCtrl.obj
 0001:00002130       ?Append@?$CSimpleStringT@D$0A@@ATL@@QAEXPBD@Z 00403130 f i GridCtrl.obj
 0001:00002170       ??1CWaitCursor@@QAE@XZ     00403170 f i GridCtrl.obj
 0001:00002280       ?GetOwner@CWnd@@QBEPAV1@XZ 00403280 f i GridCtrl.obj
 0001:000022a0       ?MoveWindow@CWnd@@QAEXPBUtagRECT@@H@Z 004032a0 f i GridCtrl.obj
 0001:000022d0       ?BitBlt@CDC@@QAEHHHHHPAV1@HHK@Z 004032d0 f i GridCtrl.obj
 0001:00002310       ?SelectObject@CDC@@QAEPAVCBitmap@@PAV2@@Z 00403310 f i GridCtrl.obj
 0001:00002340       ?CreateCompatibleDC@CDC@@QAEHPAV1@@Z 00403340 f i GridCtrl.obj
 0001:00002380       ?SetSel@CEdit@@QAEXHHH@Z   00403380 f i InPlaceEdit.obj
 0001:000023c0       ?GetFont@CWnd@@QBEPAVCFont@@XZ 004033c0 f i InPlaceEdit.obj
 0001:000023e0       ?SetFont@CWnd@@QAEXPAVCFont@@H@Z 004033e0 f i InPlaceEdit.obj
 0001:00002410       ??_GCEdit@@UAEPAXI@Z       00403410 f i InPlaceEdit.obj
 0001:00002410       ??_ECEdit@@UAEPAXI@Z       00403410 f i  CIL library: CIL module
 0001:00002440       ??_ECComboBox@@UAEPAXI@Z   00403440 f i  CIL library: CIL module
 0001:00002440       ??_GCComboBox@@UAEPAXI@Z   00403440 f i InPlaceList.obj
 0001:00002470       ?LoadSysLogClientDll@@YAHXZ 00403470 f   SysLogClient.obj
 0001:000024f0       ??1CMyThread@@UAE@XZ       004034f0 f i MyThread.obj
 0001:00002500       ?ThreadFunc@CMyThread@@SAIPAX@Z 00403500 f   MyThread.obj
 0001:00002520       ??_GCDFLogRecord@@UAEPAXI@Z 00403520 f i DFLog.obj
 0001:00002520       ??_ECDFLogRecord@@UAEPAXI@Z 00403520 f i  CIL library: CIL module
 0001:00002570       ?CreateItems@CDFLogRecord@@UAEXXZ 00403570 f   DFLog.obj
 0001:000026b0       ?GetItemMetrics@CDFLogRecord@@UAEXPAUXTP_REPORTRECORDITEM_DRAWARGS@@PAUXTP_REPORTRECORDITEM_METRICS@@@Z 004036b0 f   DFLog.obj
 0001:00002950       ??0CDFLogMaster@@QAE@P6AIPAX@Z0@Z 00403950 f   DFLog.obj
 0001:000029b0       ??_GCDFLogMaster@@UAEPAXI@Z 004039b0 f i DFLog.obj
 0001:000029b0       ??_ECDFLogMaster@@UAEPAXI@Z 004039b0 f i  CIL library: CIL module
 0001:00002a00       ?Go@CDFLogMaster@@MAEXXZ   00403a00 f   DFLog.obj
 0001:00002b20       ?DFLogSend@CDFLogMaster@@QAEXAAV?$CStringT@DV?$StrTraitMFC@DV?$ChTraitsCRT@D@ATL@@@@@ATL@@W4SEVERITY@@@Z 00403b20 f   DFLog.obj
 0001:00002c60       ?ClearAll@CDFLogMaster@@QAEXXZ 00403c60 f   DFLog.obj
 0001:00002cc0       ??2?$CXTPHeapObjectT@VCCmdTarget@@VCXTPReportDataAllocator@@@@SGPAXI@Z 00403cc0 f i DFLog.obj
 0001:00002cc0       ??2?$CXTPHeapObjectT@V?$CXTPArrayT@PAVCXTPReportHyperlink@@PAV1@PAUIDispatch@@@@VCXTPReportDataAllocator@@@@SGPAXI@Z 00403cc0 f i ToolkitPro1531vc100S:XTPReportRecordItem.obj
 0001:00002d30       ??3?$CXTPHeapObjectT@V?$CXTPArrayT@PAVCXTPReportHyperlink@@PAV1@PAUIDispatch@@@@VCXTPReportDataAllocator@@@@SGXPAX@Z 00403d30 f i ToolkitPro1531vc100S:XTPReportRecordItem.obj
 0001:00002d30       ??3?$CXTPHeapObjectT@VCCmdTarget@@VCXTPReportDataAllocator@@@@SGXPAX@Z 00403d30 f i DFLog.obj
 0001:00002d70       ?Free_mem@?$CXTPHeapAllocatorT@UCXTPReportDataAllocatorData@@@@SAXPAX@Z 00403d70 f i DFLog.obj
 0001:00002dd0       ?CreateHeapIfNeed@?$CXTPHeapAllocatorT@UCXTPReportDataAllocatorData@@@@SAXXZ 00403dd0 f i DFLog.obj
 0001:00002e40       ?UpdateRecordField@CXTPReportRecord@@UAEHHHV?$CStringT@DV?$StrTraitMFC@DV?$ChTraitsCRT@D@ATL@@@@@ATL@@@Z 00403e40 f i DFLog.obj
 0001:00002e70       ?GetCaption@CXTPReportColumn@@QBE?AV?$CStringT@DV?$StrTraitMFC@DV?$ChTraitsCRT@D@ATL@@@@@ATL@@XZ 00403e70 f i DFLog.obj
 0001:00002ea0       ??0CDFNetSlave@@QAE@P6AIPAX@Z0IPADI22@Z 00403ea0 f   DFNet.obj
 0001:00003070       ??_ECDFNetSlave@@UAEPAXI@Z 00404070 f i  CIL library: CIL module
 0001:00003070       ??_GCDFNetSlave@@UAEPAXI@Z 00404070 f i DFNet.obj
 0001:00003100       ?Go@CDFNetSlave@@MAEXXZ    00404100 f   DFNet.obj
 0001:00004430       ?ApplyFilter@CDFNetSlave@@IAE_NAAV?$CStringT@DV?$StrTraitMFC@DV?$ChTraitsCRT@D@ATL@@@@@ATL@@@Z 00405430 f   DFNet.obj
 0001:000045f0       ?GetFileFilterFromDB@CDFNetSlave@@IAE_NXZ 004055f0 f   DFNet.obj
 0001:00004ab0       ?GetFileHandleFromMaster@CDFNetSlave@@IAEXXZ 00405ab0 f   DFNet.obj
 0001:00004d10       ?UpdateFileHandleFromMaster@CDFNetSlave@@IAEXXZ 00405d10 f   DFNet.obj
 0001:00004f70       ??0CDFNetMaster@@QAE@P6AIPAX@Z0I@Z 00405f70 f   DFNet.obj
 0001:00005010       ??_ECDFNetMaster@@UAEPAXI@Z 00406010 f i  CIL library: CIL module
 0001:00005010       ??_GCDFNetMaster@@UAEPAXI@Z 00406010 f i DFNet.obj
 0001:00005080       ?Go@CDFNetMaster@@MAEXXZ   00406080 f   DFNet.obj
 0001:00005510       ?CreateSocket@CDFNetMaster@@IAE_NXZ 00406510 f   DFNet.obj
 0001:000056d0       ?ForceStopMaster@CDFNetMaster@@QAEXXZ 004066d0 f   DFNet.obj
 0001:00005860       ?Replace@?$CStringT@DV?$StrTraitMFC@DV?$ChTraitsCRT@D@ATL@@@@@ATL@@QAEHPBD0@Z 00406860 f i DFNet.obj
 0001:00005b40       ?push_back@?$vector@V?$CStringT@DV?$StrTraitMFC@DV?$ChTraitsCRT@D@ATL@@@@@ATL@@V?$allocator@V?$CStringT@DV?$StrTraitMFC@DV?$ChTraitsCRT@D@ATL@@@@@ATL@@@std@@@std@@QAEX$$QAV?$CStringT@DV?$StrTraitMFC@DV?$ChTraitsCRT@D@ATL@@@@@ATL@@@Z 00406b40 f i DFNet.obj
 0001:00005c00       ??1?$vector@V?$CStringT@DV?$StrTraitMFC@DV?$ChTraitsCRT@D@ATL@@@@@ATL@@V?$allocator@V?$CStringT@DV?$StrTraitMFC@DV?$ChTraitsCRT@D@ATL@@@@@ATL@@@std@@@std@@QAE@XZ 00406c00 f i DFNet.obj
 0001:00005c10       ?erase@?$vector@V?$CStringT@DV?$StrTraitMFC@DV?$ChTraitsCRT@D@ATL@@@@@ATL@@V?$allocator@V?$CStringT@DV?$StrTraitMFC@DV?$ChTraitsCRT@D@ATL@@@@@ATL@@@std@@@std@@QAE?AV?$_Vector_iterator@V?$_Vector_val@V?$CStringT@DV?$StrTraitMFC@DV?$ChTraitsCRT@D@ATL@@@@@ATL@@V?$allocator@V?$CStringT@DV?$StrTraitMFC@DV?$ChTraitsCRT@D@ATL@@@@@ATL@@@std@@@std@@@2@V?$_Vector_const_iterator@V?$_Vector_val@V?$CStringT@DV?$StrTraitMFC@DV?$ChTraitsCRT@D@ATL@@@@@ATL@@V?$allocator@V?$CStringT@DV?$StrTraitMFC@DV?$ChTraitsCRT@D@ATL@@@@@ATL@@@std@@@std@@@2@0@Z 00406c10 f i DFNet.obj
 0001:00005c90       ?_Reserve@?$vector@V?$CStringT@DV?$StrTraitMFC@DV?$ChTraitsCRT@D@ATL@@@@@ATL@@V?$allocator@V?$CStringT@DV?$StrTraitMFC@DV?$ChTraitsCRT@D@ATL@@@@@ATL@@@std@@@std@@IAEXI@Z 00406c90 f i DFNet.obj
 0001:00005ce0       ?_Tidy@?$vector@V?$CStringT@DV?$StrTraitMFC@DV?$ChTraitsCRT@D@ATL@@@@@ATL@@V?$allocator@V?$CStringT@DV?$StrTraitMFC@DV?$ChTraitsCRT@D@ATL@@@@@ATL@@@std@@@std@@IAEXXZ 00406ce0 f i DFNet.obj
 0001:00005d30       ?reserve@?$vector@V?$CStringT@DV?$StrTraitMFC@DV?$ChTraitsCRT@D@ATL@@@@@ATL@@V?$allocator@V?$CStringT@DV?$StrTraitMFC@DV?$ChTraitsCRT@D@ATL@@@@@ATL@@@std@@@std@@QAEXI@Z 00406d30 f i DFNet.obj
 0001:00005e10       ?_Destroy@?$vector@V?$CStringT@DV?$StrTraitMFC@DV?$ChTraitsCRT@D@ATL@@@@@ATL@@V?$allocator@V?$CStringT@DV?$StrTraitMFC@DV?$ChTraitsCRT@D@ATL@@@@@ATL@@@std@@@std@@IAEXPAV?$CStringT@DV?$StrTraitMFC@DV?$ChTraitsCRT@D@ATL@@@@@ATL@@0@Z 00406e10 f i DFNet.obj
 0001:00005e40       ?allocate@?$allocator@V?$CStringT@DV?$StrTraitMFC@DV?$ChTraitsCRT@D@ATL@@@@@ATL@@@std@@QAEPAV?$CStringT@DV?$StrTraitMFC@DV?$ChTraitsCRT@D@ATL@@@@@ATL@@I@Z 00406e40 f i DFNet.obj
 0001:00005ea0       ??A?$CMap@IAAIPAUCDFNetWork@@AAPAU1@@@QAEAAPAUCDFNetWork@@AAI@Z 00406ea0 f i DFNet.obj
 0001:00005f00       ?RemoveKey@?$CMap@IAAIPAUCDFNetWork@@AAPAU1@@@QAEHAAI@Z 00406f00 f i DFNet.obj
 0001:00005f90       ?RemoveAll@?$CMap@IAAIPAUCDFNetWork@@AAPAU1@@@QAEXXZ 00406f90 f i DFNet.obj
 0001:00005fe0       ?GetNextAssoc@?$CMap@IAAIPAUCDFNetWork@@AAPAU1@@@QBEXAAPAU__POSITION@@AAIAAPAUCDFNetWork@@@Z 00406fe0 f i DFNet.obj
 0001:00006070       ??1?$CMap@IAAIPAUCDFNetWork@@AAPAU1@@@UAE@XZ 00407070 f i DFNet.obj
 0001:00006080       ?Serialize@?$CMap@IAAIPAUCDFNetWork@@AAPAU1@@@UAEXAAVCArchive@@@Z 00407080 f i DFNet.obj
 0001:00006330       ??$sprintf_s@$0PK@@@YAHAAY0PK@DPBDZZ 00407330 f i DFNet.obj
 0001:00006350       ??_E?$CMap@IAAIPAUCDFNetWork@@AAPAU1@@@UAEPAXI@Z 00407350 f i  CIL library: CIL module
 0001:00006350       ??_G?$CMap@IAAIPAUCDFNetWork@@AAPAU1@@@UAEPAXI@Z 00407350 f i DFNet.obj
 0001:00006380       ?InitHashTable@?$CMap@IAAIPAUCDFNetWork@@AAPAU1@@@QAEXIH@Z 00407380 f i DFNet.obj
 0001:000063e0       ?NewAssoc@?$CMap@IAAIPAUCDFNetWork@@AAPAU1@@@IAEPAVCAssoc@1@AAI@Z 004073e0 f i DFNet.obj
 0001:00006450       ?GetAssocAt@?$CMap@IAAIPAUCDFNetWork@@AAPAU1@@@IBEPAVCAssoc@1@AAI00@Z 00407450 f i DFNet.obj
 0001:000064c0       ??$SerializeElements@PAUCDFNetWork@@@@YGXAAVCArchive@@PAPAUCDFNetWork@@H@Z 004074c0 f i DFNet.obj
 0001:00006570       ??$_Move@PAV?$CStringT@DV?$StrTraitMFC@DV?$ChTraitsCRT@D@ATL@@@@@ATL@@PAV12@@std@@YAPAV?$CStringT@DV?$StrTraitMFC@DV?$ChTraitsCRT@D@ATL@@@@@ATL@@PAV12@00U_Nonscalar_ptr_iterator_tag@0@@Z 00407570 f i DFNet.obj
 0001:000065f0       ??$_Uninit_move@PAV?$CStringT@DV?$StrTraitMFC@DV?$ChTraitsCRT@D@ATL@@@@@ATL@@PAV12@V?$allocator@V?$CStringT@DV?$StrTraitMFC@DV?$ChTraitsCRT@D@ATL@@@@@ATL@@@std@@V12@@std@@YAPAV?$CStringT@DV?$StrTraitMFC@DV?$ChTraitsCRT@D@ATL@@@@@ATL@@PAV12@00AAV?$allocator@V?$CStringT@DV?$StrTraitMFC@DV?$ChTraitsCRT@D@ATL@@@@@ATL@@@0@0U_Nonscalar_ptr_iterator_tag@0@@Z 004075f0 f i DFNet.obj
 0001:000066f0       ??$_Dest_val@V?$allocator@V?$CStringT@DV?$StrTraitMFC@DV?$ChTraitsCRT@D@ATL@@@@@ATL@@@std@@V?$CStringT@DV?$StrTraitMFC@DV?$ChTraitsCRT@D@ATL@@@@@ATL@@@std@@YAXAAV?$allocator@V?$CStringT@DV?$StrTraitMFC@DV?$ChTraitsCRT@D@ATL@@@@@ATL@@@0@PAV?$CStringT@DV?$StrTraitMFC@DV?$ChTraitsCRT@D@ATL@@@@@ATL@@@Z 004076f0 f i DFNet.obj
 0001:00006710       ??1bad_alloc@std@@UAE@XZ   00407710 f i DFNet.obj
 0001:00006720       ??0bad_alloc@std@@QAE@ABV01@@Z 00407720 f i DFNet.obj
 0001:00006740       ??_Ebad_alloc@std@@UAEPAXI@Z 00407740 f i  CIL library: CIL module
 0001:00006740       ??_Gbad_alloc@std@@UAEPAXI@Z 00407740 f i DFNet.obj
 0001:00006770       ??$HashKey@AAI@@YGIAAI@Z   00407770 f i DFNet.obj
 0001:000067b0       ?memcpy_s@Checked@ATL@@YAXPAXIPBXI@Z 004077b0 f i DFNet.obj
 0001:00006850       ??0?$CStringT@DV?$StrTraitMFC@DV?$ChTraitsCRT@D@ATL@@@@@ATL@@QAE@PBDH@Z 00407850 f i DFNet.obj
 0001:00006880       ??8ATL@@YA_NABV?$CStringT@DV?$StrTraitMFC@DV?$ChTraitsCRT@D@ATL@@@@@0@PBD@Z 00407880 f i DFNet.obj
 0001:000068b0       ??_ECDFFileRecord@@UAEPAXI@Z 004078b0 f i  CIL library: CIL module
 0001:000068b0       ??_GCDFFileRecord@@UAEPAXI@Z 004078b0 f i MtkFile.obj
 0001:00006900       ?CreateItems@CDFFileRecord@@UAEXXZ 00407900 f   MtkFile.obj
 0001:00006ae0       ?GetItemMetrics@CDFFileRecord@@UAEXPAUXTP_REPORTRECORDITEM_DRAWARGS@@PAUXTP_REPORTRECORDITEM_METRICS@@@Z 00407ae0 f   MtkFile.obj
 0001:00006ed0       ??0CMtkFileMaster@@QAE@P6AIPAX@Z0@Z 00407ed0 f   MtkFile.obj
 0001:00007030       ??_ECMtkFileMaster@@UAEPAXI@Z 00408030 f i  CIL library: CIL module
 0001:00007030       ??_GCMtkFileMaster@@UAEPAXI@Z 00408030 f i MtkFile.obj
 0001:00007060       ??1CMtkFileMaster@@UAE@XZ  00408060 f   MtkFile.obj
 0001:000071d0       ?Go@CMtkFileMaster@@MAEXXZ 004081d0 f   MtkFile.obj
 0001:00007700       ?fnFileSort@CMtkFileMaster@@QAEXHH@Z 00408700 f   MtkFile.obj
 0001:00007e90       ?fnRefFile@CMtkFileMaster@@QAEXAAUCMtkFile@@@Z 00408e90 f   MtkFile.obj
 0001:00008020       ?fnUnRefFile@CMtkFileMaster@@QAEXAAUCMtkFile@@@Z 00409020 f   MtkFile.obj
 0001:000081a0       ?fnDoRefresh@CMtkFileMaster@@SGXPAXE@Z 004091a0 f   MtkFile.obj
 0001:00008960       ?fnDoUpdate@CMtkFileMaster@@SGXPAXE@Z 00409960 f   MtkFile.obj
 0001:00008af0       ?RemoveAt@?$CArray@PAUCMtkFile@@AAPAU1@@@QAEXHH@Z 00409af0 f i MtkFile.obj
 0001:00008b30       ??1?$CArray@PAUCMtkFile@@AAPAU1@@@UAE@XZ 00409b30 f i MtkFile.obj
 0001:00008b50       ?Serialize@?$CArray@PAUCMtkFile@@AAPAU1@@@UAEXAAVCArchive@@@Z 00409b50 f i MtkFile.obj
 0001:00008bb0       ??$sprintf_s@$0BAA@@@YAHAAY0BAA@DPBDZZ 00409bb0 f i MtkFile.obj
 0001:00008bd0       ??_E?$CArray@PAUCMtkFile@@AAPAU1@@@UAEPAXI@Z 00409bd0 f i  CIL library: CIL module
 0001:00008bd0       ??_G?$CArray@PAUCMtkFile@@AAPAU1@@@UAEPAXI@Z 00409bd0 f i MtkFile.obj
 0001:00008c10       ?SetSize@?$CArray@PAUCMtkFile@@AAPAU1@@@QAEXHH@Z 00409c10 f i MtkFile.obj
 0001:00008d50       ??$SerializeElements@PAUCMtkFile@@@@YGXAAVCArchive@@PAPAUCMtkFile@@H@Z 00409d50 f i MtkFile.obj
 0001:00008e10       ?MakeLower@?$CStringT@DV?$StrTraitMFC@DV?$ChTraitsCRT@D@ATL@@@@@ATL@@QAEAAV12@XZ 00409e10 f i MtkFile.obj
 0001:00008ef0       ?GetItem@CXTPReportRecord@@QBEPAVCXTPReportRecordItem@@H@Z 00409ef0 f i MtkFile.obj
 0001:00008f10       ?GetPreviewText@CXTPReportRecordItemPreview@@UAE?AV?$CStringT@DV?$StrTraitMFC@DV?$ChTraitsCRT@D@ATL@@@@@ATL@@XZ 00409f10 f i ToolkitPro1531vc100S:XTPReportRecordItemPreview.obj
 0001:00008f10       ?GetFormatString@CXTPReportGroupRow@@UBE?AV?$CStringT@DV?$StrTraitMFC@DV?$ChTraitsCRT@D@ATL@@@@@ATL@@XZ 00409f10 f i ToolkitPro1531vc100S:XTPReportControl.obj
 0001:00008f10       ?GetValue@CXTPReportRecordItemText@@QAE?AV?$CStringT@DV?$StrTraitMFC@DV?$ChTraitsCRT@D@ATL@@@@@ATL@@XZ 00409f10 f i MtkFile.obj
 0001:00008f40       ?GetMessageMap@CMtkFileServerApp@@MBEPBUAFX_MSGMAP@@XZ 00409f40 f   MtkFileServer.obj
 0001:00008f50       ??0CMtkFileServerApp@@QAE@XZ 00409f50 f   MtkFileServer.obj
 0001:00008fc0       ??_GCMtkFileServerApp@@UAEPAXI@Z 00409fc0 f i MtkFileServer.obj
 0001:00008fc0       ??_ECMtkFileServerApp@@UAEPAXI@Z 00409fc0 f i  CIL library: CIL module
 0001:00009070       ?InitInstance@CMtkFileServerApp@@UAEHXZ 0040a070 f   MtkFileServer.obj
 0001:00009180       ??1CMtkFileServerDlg@@UAE@XZ 0040a180 f i MtkFileServer.obj
 0001:000094d0       ??1CDialogEx@@UAE@XZ       0040a4d0 f i MtkFileServer.obj
 0001:00009540       ??1CTabDlg1@@UAE@XZ        0040a540 f i MtkFileServer.obj
 0001:00009540       ??1CTabDlg3@@UAE@XZ        0040a540 f i MtkFileServer.obj
 0001:00009540       ??1CAboutDlg@@UAE@XZ       0040a540 f i MtkFileServerDlg.obj
 0001:00009540       ??1CTabDlg2@@UAE@XZ        0040a540 f i MtkFileServer.obj
 0001:00009540       ??1CTabDlg4@@UAE@XZ        0040a540 f i MtkFileServer.obj
 0001:000095b0       ?GetVersion@CMtkFileServerApp@@QAEXXZ 0040a5b0 f   MtkFileServer.obj
 0001:000096d0       ?GetIni@CMtkFileServerApp@@QAEXXZ 0040a6d0 f   MtkFileServer.obj
 0001:00009c50       ?SetIni@CMtkFileServerApp@@QAEXXZ 0040ac50 f   MtkFileServer.obj
 0001:00009e10       ?GetApplicationRecoveryPingInterval@CWinApp@@UAEKXZ 0040ae10 f i MtkFileServer.obj
 0001:00009e20       ?RestoreAutosavedFilesAtRestart@CWinApp@@UBEHXZ 0040ae20 f i MtkFileServer.obj
 0001:00009e30       ?ReopenPreviousFilesAtRestart@CWinApp@@UBEHXZ 0040ae30 f i MtkFileServer.obj
 0001:00009e40       ?SupportsAutosaveAtInterval@CWinApp@@UBEHXZ 0040ae40 f i MtkFileServer.obj
 0001:00009e50       ?SupportsAutosaveAtRestart@CWinApp@@UBEHXZ 0040ae50 f i MtkFileServer.obj
 0001:00009e60       ?SupportsApplicationRecovery@CWinApp@@UBEHXZ 0040ae60 f i MtkFileServer.obj
 0001:00009e70       ?SupportsRestartManager@CWinApp@@UBEHXZ 0040ae70 f i MtkFileServer.obj
 0001:00009e80       ?GetMessageMap@CAboutDlg@@MBEPBUAFX_MSGMAP@@XZ 0040ae80 f   MtkFileServerDlg.obj
 0001:00009e90       ??_GCTabDlg3@@UAEPAXI@Z    0040ae90 f i MtkFileServerDlg.obj
 0001:00009e90       ??_ECTabDlg2@@UAEPAXI@Z    0040ae90 f i  CIL library: CIL module
 0001:00009e90       ??_ECAboutDlg@@UAEPAXI@Z   0040ae90 f i  CIL library: CIL module
 0001:00009e90       ??_GCTabDlg4@@UAEPAXI@Z    0040ae90 f i MtkFileServerDlg.obj
 0001:00009e90       ??_ECTabDlg4@@UAEPAXI@Z    0040ae90 f i  CIL library: CIL module
 0001:00009e90       ??_GCAboutDlg@@UAEPAXI@Z   0040ae90 f i MtkFileServerDlg.obj
 0001:00009e90       ??_ECTabDlg3@@UAEPAXI@Z    0040ae90 f i  CIL library: CIL module
 0001:00009e90       ??_ECTabDlg1@@UAEPAXI@Z    0040ae90 f i  CIL library: CIL module
 0001:00009e90       ??_GCTabDlg1@@UAEPAXI@Z    0040ae90 f i MtkFileServerDlg.obj
 0001:00009e90       ??_GCTabDlg2@@UAEPAXI@Z    0040ae90 f i MtkFileServerDlg.obj
 0001:00009f20       ?GetMessageMap@CTabDlg1@@MBEPBUAFX_MSGMAP@@XZ 0040af20 f   MtkFileServerDlg.obj
 0001:00009f30       ?OnReadonlyFile@CTabDlg1@@IAEXXZ 0040af30 f   MtkFileServerDlg.obj
 0001:0000a160       ?OnClearFilter@CTabDlg1@@IAEXXZ 0040b160 f   MtkFileServerDlg.obj
 0001:0000a1a0       ?OnChangeFilter@CTabDlg1@@IAEXXZ 0040b1a0 f   MtkFileServerDlg.obj
 0001:0000a240       ?GetMessageMap@CTabDlg2@@MBEPBUAFX_MSGMAP@@XZ 0040b240 f   MtkFileServerDlg.obj
 0001:0000a250       ?OnStartServer@CTabDlg2@@IAEXXZ 0040b250 f   MtkFileServerDlg.obj
 0001:0000a350       ?OnStopServer@CTabDlg2@@IAEXXZ 0040b350 f   MtkFileServerDlg.obj
 0001:0000a460       ?OnDisconnect@CTabDlg2@@IAEXXZ 0040b460 f   MtkFileServerDlg.obj
 0001:0000a580       ?OnDebug@CTabDlg2@@IAEXXZ  0040b580 f   MtkFileServerDlg.obj
 0001:0000a6a0       ?OnSelectFileList@CTabDlg2@@IAEXPAUtagNMHDR@@PAJ@Z 0040b6a0 f   MtkFileServerDlg.obj
 0001:0000a920       ?GetMessageMap@CTabDlg3@@MBEPBUAFX_MSGMAP@@XZ 0040b920 f   MtkFileServerDlg.obj
 0001:0000a930       ?OnStartServer@CTabDlg3@@IAEXXZ 0040b930 f   MtkFileServerDlg.obj
 0001:0000aa40       ?OnStopServer@CTabDlg3@@IAEXXZ 0040ba40 f   MtkFileServerDlg.obj
 0001:0000ab60       ?OnSave@CTabDlg3@@IAEXXZ   0040bb60 f   MtkFileServerDlg.obj
 0001:0000ab70       ?OnChangeMenu@CTabDlg3@@IAEXPAUtagNMHDR@@PAJ@Z 0040bb70 f   MtkFileServerDlg.obj
 0001:0000b490       ?OnChangeSettings@CTabDlg3@@IAEXPAUtagNMHDR@@PAJ@Z 0040c490 f   MtkFileServerDlg.obj
 0001:0000ba20       ?GetMessageMap@CTabDlg4@@MBEPBUAFX_MSGMAP@@XZ 0040ca20 f   MtkFileServerDlg.obj
 0001:0000ba30       ?OnClear@CTabDlg4@@IAEXXZ  0040ca30 f   MtkFileServerDlg.obj
 0001:0000ba50       ?OnFilter1@CTabDlg4@@IAEXXZ 0040ca50 f   MtkFileServerDlg.obj
 0001:0000bab0       ?OnFilter2@CTabDlg4@@IAEXXZ 0040cab0 f   MtkFileServerDlg.obj
 0001:0000bb10       ?OnFilter3@CTabDlg4@@IAEXXZ 0040cb10 f   MtkFileServerDlg.obj
 0001:0000bb70       ?OnFilter4@CTabDlg4@@IAEXXZ 0040cb70 f   MtkFileServerDlg.obj
 0001:0000bbd0       ?OnFilter5@CTabDlg4@@IAEXXZ 0040cbd0 f   MtkFileServerDlg.obj
 0001:0000bc30       ??_ECDFNetSlaveRecord@@UAEPAXI@Z 0040cc30 f i  CIL library: CIL module
 0001:0000bc30       ??_GCDFNetSlaveRecord@@UAEPAXI@Z 0040cc30 f i MtkFileServerDlg.obj
 0001:0000bc80       ?CreateItems@CDFNetSlaveRecord@@UAEXXZ 0040cc80 f   MtkFileServerDlg.obj
 0001:0000bec0       ?GetItemMetrics@CDFNetSlaveRecord@@UAEXPAUXTP_REPORTRECORDITEM_DRAWARGS@@PAUXTP_REPORTRECORDITEM_METRICS@@@Z 0040cec0 f   MtkFileServerDlg.obj
 0001:0000c2a0       ??_GCDFSetMenuRecord@@UAEPAXI@Z 0040d2a0 f i MtkFileServerDlg.obj
 0001:0000c2a0       ??_ECDFSetMenuRecord@@UAEPAXI@Z 0040d2a0 f i  CIL library: CIL module
 0001:0000c2f0       ??_GCDFSetListRecord@@UAEPAXI@Z 0040d2f0 f i MtkFileServerDlg.obj
 0001:0000c2f0       ??_ECDFSetListRecord@@UAEPAXI@Z 0040d2f0 f i  CIL library: CIL module
 0001:0000c340       ??0CDFSetListRecord@@QAE@PAVCMtkFileServerDlg@@AAV?$CStringT@DV?$StrTraitMFC@DV?$ChTraitsCRT@D@ATL@@@@@ATL@@1@Z 0040d340 f   MtkFileServerDlg.obj
 0001:0000c400       ??0CDFSetListRecord@@QAE@PAVCMtkFileServerDlg@@AAV?$CStringT@DV?$StrTraitMFC@DV?$ChTraitsCRT@D@ATL@@@@@ATL@@I@Z 0040d400 f   MtkFileServerDlg.obj
 0001:0000c500       ?UpdateRecord@CDFSetListRecord@@QAEHHI@Z 0040d500 f   MtkFileServerDlg.obj
 0001:0000c5c0       ??0CMtkFileServerDlg@@QAE@PAVCWnd@@@Z 0040d5c0 f   MtkFileServerDlg.obj
 0001:0000c910       ??_GCMtkFileServerDlg@@UAEPAXI@Z 0040d910 f i MtkFileServerDlg.obj
 0001:0000c910       ??_ECMtkFileServerDlg@@UAEPAXI@Z 0040d910 f i  CIL library: CIL module
 0001:0000c940       ?DoDataExchange@CMtkFileServerDlg@@MAEXPAVCDataExchange@@@Z 0040d940 f   MtkFileServerDlg.obj
 0001:0000c960       ?GetMessageMap@CMtkFileServerDlg@@MBEPBUAFX_MSGMAP@@XZ 0040d960 f   MtkFileServerDlg.obj
 0001:0000c970       ?OnInitDialog@CMtkFileServerDlg@@MAEHXZ 0040d970 f   MtkFileServerDlg.obj
 0001:0000ff10       ?BeginApp@CMtkFileServerDlg@@IAEHXZ 00410f10 f   MtkFileServerDlg.obj
 0001:00010040       ?EndApp@CMtkFileServerDlg@@IAEXXZ 00411040 f   MtkFileServerDlg.obj
 0001:00010200       ?OnSysCommand@CMtkFileServerDlg@@IAEXIJ@Z 00411200 f   MtkFileServerDlg.obj
 0001:00010360       ?OnPaint@CMtkFileServerDlg@@IAEXXZ 00411360 f   MtkFileServerDlg.obj
 0001:00010450       ?OnSize@CMtkFileServerDlg@@IAEXIHH@Z 00411450 f   MtkFileServerDlg.obj
 0001:00010610       ?OnQueryDragIcon@CMtkFileServerDlg@@IAEPAUHICON__@@XZ 00411610 f   MtkFileServerDlg.obj
 0001:00010620       ?OnTcnSelchangeTab1@CMtkFileServerDlg@@QAEXPAUtagNMHDR@@PAJ@Z 00411620 f   MtkFileServerDlg.obj
 0001:000107d0       ?OnTimer@CMtkFileServerDlg@@QAEXI@Z 004117d0 f   MtkFileServerDlg.obj
 0001:00010c80       ?fnFileCompare@CMtkFileServerDlg@@SAHPBX0@Z 00411c80 f   MtkFileServerDlg.obj
 0001:00010c80       ?fnFileCompare@CMtkFileMaster@@SAHPBX0@Z 00411c80 f   MtkFile.obj
 0001:00010ce0       ??$sprintf_s@$0BI@@@YAHAAY0BI@DPBDZZ 00411ce0 f i MtkFileServerDlg.obj
 0001:00010d00       ?Concatenate@?$CSimpleStringT@D$0A@@ATL@@KAXAAV12@PBDH1H@Z 00411d00 f i MtkFileServerDlg.obj
 0001:00010d80       ??HATL@@YA?AV?$CStringT@DV?$StrTraitMFC@DV?$ChTraitsCRT@D@ATL@@@@@0@PBDABV10@@Z 00411d80 f i MtkFileServerDlg.obj
 0001:00010e50       ?LoadBitmapA@CBitmap@@QAEHI@Z 00411e50 f i MtkFileServerDlg.obj
 0001:00010e80       ??_ECButton@@UAEPAXI@Z     00411e80 f i  CIL library: CIL module
 0001:00010e80       ??_GCButton@@UAEPAXI@Z     00411e80 f i MtkFileServerDlg.obj
 0001:00010eb0       ??_GCStatic@@UAEPAXI@Z     00411eb0 f i MtkFileServerDlg.obj
 0001:00010eb0       ??_ECStatic@@UAEPAXI@Z     00411eb0 f i  CIL library: CIL module
 0001:00010ee0       ?GetAt@CXTPReportColumns@@QBEPAVCXTPReportColumn@@H@Z 00411ee0 f i MtkFileServerDlg.obj
 0001:00010f00       ?GetRuntimeClass@CNotifyDlg@@UBEPAUCRuntimeClass@@XZ 00411f00 f   NotifyDlg.obj
 0001:00010f10       ??0CNotifyDlg@@QAE@PAVCWnd@@@Z 00411f10 f   NotifyDlg.obj
 0001:00010fb0       ??_ECNotifyDlg@@UAEPAXI@Z  00411fb0 f i  CIL library: CIL module
 0001:00010fb0       ??_GCNotifyDlg@@UAEPAXI@Z  00411fb0 f i NotifyDlg.obj
 0001:00011060       ??1CNotifyDlg@@UAE@XZ      00412060 f   NotifyDlg.obj
 0001:000110c0       ?DoDataExchange@CNotifyDlg@@MAEXPAVCDataExchange@@@Z 004120c0 f   NotifyDlg.obj
 0001:000110f0       ?GetMessageMap@CNotifyDlg@@MBEPBUAFX_MSGMAP@@XZ 004120f0 f   NotifyDlg.obj
 0001:00011100       ?OnInitDialog@CNotifyDlg@@MAEHXZ 00412100 f   NotifyDlg.obj
 0001:00011210       ?OnTimer@CNotifyDlg@@IAEXI@Z 00412210 f   NotifyDlg.obj
 0001:000112f0       ?SetDateTime@COleDateTime@ATL@@QAEHHHHHHH@Z 004122f0 f i stdafx.obj
 0001:00011376       ?AfxNewHandler@@YAHI@Z     00412376 f   nafxcw:afxmem.obj
 0001:0001137b       ?AfxSetNewHandler@@YGP6AHI@ZP6AHI@Z@Z 0041237b f   nafxcw:afxmem.obj
 0001:00011392       ??2@YAPAXI@Z               00412392 f   nafxcw:afxmem.obj
 0001:000113c1       ??_V@YAXPAX@Z              004123c1 f   nafxcw:afxmem.obj
 0001:000113c1       ??3@YAXPAX@Z               004123c1 f   nafxcw:afxmem.obj
 0001:000113cc       ??_U@YAPAXI@Z              004123cc f   nafxcw:afxmem.obj
 0001:000113d7       ?Process@COleException@@SGJPBVCException@@@Z 004123d7 f   nafxcw:olemisc.obj
 0001:0001142b       ?AfxUnmergeMenus@@YGXPAUHMENU__@@00@Z 0041242b f   nafxcw:olemisc.obj
 0001:000114ee       ?_AfxFillFormatEtc@@YGPAUtagFORMATETC@@PAU1@G0@Z 004124ee f   nafxcw:olemisc.obj
 0001:0001152e       ?GetRuntimeClass@COleException@@UBEPAUCRuntimeClass@@XZ 0041252e f   nafxcw:olemisc.obj
 0001:00011534       ??$AtlMultiply@K@ATL@@YAJPAKKK@Z 00412534 f i nafxcw:olemisc.obj
 0001:00011534       ??$AtlMultiply@I@ATL@@YAJPAIII@Z 00412534 f i nafxcw:olemisc.obj
 0001:00011558       ?AtlCoTaskMemCAlloc@ATL@@YAPAXKK@Z 00412558 f i nafxcw:olemisc.obj
 0001:00011587       ?CopyChars@?$CSimpleStringT@_W$0A@@ATL@@SAXPA_WIPB_WH@Z 00412587 f i nafxcw:olemisc.obj
 0001:000115a8       ?wmemcpy_s@Checked@ATL@@YAXPA_WIPB_WI@Z 004125a8 f i nafxcw:olemisc.obj
 0001:000115c9       ?GetBaseTypeLength@?$ChTraitsCRT@_W@ATL@@SAHPBD@Z 004125c9 f i nafxcw:olemisc.obj
 0001:000115e3       ?ConvertToBaseType@?$ChTraitsCRT@_W@ATL@@SAXPA_WHPB_WH@Z 004125e3 f i nafxcw:olemisc.obj
 0001:0001160e       ?GetBaseTypeLength@?$ChTraitsCRT@D@ATL@@SAHPB_W@Z 0041260e f i nafxcw:olemisc.obj
 0001:0001162a       ??$AtlAdd@K@ATL@@YAJPAKKK@Z 0041262a f i nafxcw:olemisc.obj
 0001:00011650       ?AfxThrowOleException@@YGXJ@Z 00412650 f   nafxcw:olemisc.obj
 0001:000116a2       ?GetErrorMessage@COleException@@UBEHPADIPAI@Z 004126a2 f   nafxcw:olemisc.obj
 0001:00011704       ?_AfxCopyGlobalMemory@@YGPAXPAX0@Z 00412704 f   nafxcw:olemisc.obj
 0001:0001177d       ?_AfxOleCopyTargetDevice@@YGPAUtagDVTARGETDEVICE@@PAU1@@Z 0041277d f   nafxcw:olemisc.obj
 0001:000117b3       ?_AfxOleCopyFormatEtc@@YGXPAUtagFORMATETC@@0@Z 004127b3 f   nafxcw:olemisc.obj
 0001:000117e9       ?_AtlVerifyStackAvailable@_ATL_SAFE_ALLOCA_IMPL@ATL@@YA_NK@Z 004127e9 f i nafxcw:olemisc.obj
 0001:0001185e       ?AtlCrtErrorCheck@ATL@@YAHH@Z 0041285e f i nafxcw:olemisc.obj
 0001:00011898       ??_GCOleException@@UAEPAXI@Z 00412898 f i nafxcw:olemisc.obj
 0001:00011898       ??_ECOleException@@UAEPAXI@Z 00412898 f i nafxcw:olemisc.obj
 0001:000118ba       ??$AtlAddThrow@K@ATL@@YAKKK@Z 004128ba f i nafxcw:olemisc.obj
 0001:000118e1       ??0?$CSimpleStringT@_W$0A@@ATL@@QAE@PAUIAtlStringMgr@1@@Z 004128e1 f i nafxcw:olemisc.obj
 0001:0001190b       ?SetLength@?$CSimpleStringT@_W$0A@@ATL@@AAEXH@Z 0041290b f i nafxcw:olemisc.obj
 0001:00011938       ?ThrowMemoryException@?$CSimpleStringT@_W$0A@@ATL@@KAXXZ 00412938 f i nafxcw:olemisc.obj
 0001:00011943       ?Allocate@?$CAtlSafeAllocBufferManager@VCCRTAllocator@ATL@@@_ATL_SAFE_ALLOCA_IMPL@ATL@@QAEPAXK@Z 00412943 f i nafxcw:olemisc.obj
 0001:00011970       ?Empty@?$CSimpleStringT@_W$0A@@ATL@@QAEXXZ 00412970 f i nafxcw:olemisc.obj
 0001:000119b8       ?Fork@?$CSimpleStringT@_W$0A@@ATL@@AAEXH@Z 004129b8 f i nafxcw:olemisc.obj
 0001:00011a1e       ?Reallocate@?$CSimpleStringT@_W$0A@@ATL@@AAEXH@Z 00412a1e f i nafxcw:olemisc.obj
 0001:00011a57       ?PrepareWrite2@?$CSimpleStringT@_W$0A@@ATL@@AAEXH@Z 00412a57 f i nafxcw:olemisc.obj
 0001:00011aac       ?AppendChar@?$CSimpleStringT@D$0A@@ATL@@QAEXD@Z 00412aac f i nafxcw:olemisc.obj
 0001:00011ad9       ?PrepareWrite@?$CSimpleStringT@_W$0A@@ATL@@AAEPA_WH@Z 00412ad9 f i nafxcw:olemisc.obj
 0001:00011b14       ??4?$CStringT@DV?$StrTraitMFC@DV?$ChTraitsCRT@D@ATL@@@@@ATL@@QAEAAV01@PB_W@Z 00412b14 f i nafxcw:olemisc.obj
 0001:00011b6a       ??0?$CStringT@DV?$StrTraitMFC@DV?$ChTraitsCRT@D@ATL@@@@@ATL@@QAE@PB_W@Z 00412b6a f i nafxcw:olemisc.obj
 0001:00011bae       ??Y?$CStringT@DV?$StrTraitMFC@DV?$ChTraitsCRT@D@ATL@@@@@ATL@@QAEAAV01@D@Z 00412bae f i nafxcw:olemisc.obj
 0001:00011bc5       ?_AfxCopyStgMedium@@YGHGPAUtagSTGMEDIUM@@0@Z 00412bc5 f   nafxcw:olemisc.obj
 0001:00011e48       ??4?$CStringT@_WV?$StrTraitMFC@_WV?$ChTraitsCRT@_W@ATL@@@@@ATL@@QAEAAV01@PBD@Z 00412e48 f i nafxcw:olemisc.obj
 0001:00011e9a       ?LoadStringA@?$CStringT@_WV?$StrTraitMFC@_WV?$ChTraitsCRT@_W@ATL@@@@@ATL@@QAEHPAUHINSTANCE__@@I@Z 00412e9a f i nafxcw:olemisc.obj
 0001:00011ee6       ?LoadStringA@?$CStringT@_WV?$StrTraitMFC@_WV?$ChTraitsCRT@_W@ATL@@@@@ATL@@QAEHI@Z 00412ee6 f i nafxcw:olemisc.obj
 0001:00011f0a       ?CheckImplicitLoad@?$CStringT@_WV?$StrTraitMFC@_WV?$ChTraitsCRT@_W@ATL@@@@@ATL@@AAE_NPBX@Z 00412f0a f i nafxcw:olemisc.obj
 0001:00011f2f       ?AfxMergeMenus@@YGPAUHMENU__@@PAU1@0PAJHH@Z 00412f2f f   nafxcw:olemisc.obj
 0001:000121bf       ??0?$CStringT@_WV?$StrTraitMFC@_WV?$ChTraitsCRT@_W@ATL@@@@@ATL@@QAE@PBD@Z 004131bf f i nafxcw:olemisc.obj
 0001:00012203       ?Delete@CException@@QAEXXZ 00413203 f   nafxcw:except.obj
 0001:00012211       ?GetErrorMessage@CException@@UAEHPADIPAI@Z 00413211 f   nafxcw:except.obj
 0001:0001221c       ?ReportError@CException@@UAEHII@Z 0041321c f   nafxcw:except.obj
 0001:00012290       ?GetRuntimeClass@CSimpleException@@UBEPAUCRuntimeClass@@XZ 00413290 f   nafxcw:except.obj
 0001:00012296       ?GetRuntimeClass@CMemoryException@@UBEPAUCRuntimeClass@@XZ 00413296 f   nafxcw:except.obj
 0001:0001229c       ?GetRuntimeClass@CNotSupportedException@@UBEPAUCRuntimeClass@@XZ 0041329c f   nafxcw:except.obj
 0001:000122a2       ?GetRuntimeClass@CInvalidArgException@@UBEPAUCRuntimeClass@@XZ 004132a2 f   nafxcw:except.obj
 0001:000122a8       ?InitString@CSimpleException@@QAEXXZ 004132a8 f   nafxcw:except.obj
 0001:000122d3       ?AfxThrowMemoryException@@YGXXZ 004132d3 f   nafxcw:except.obj
 0001:000122ef       ?AfxThrowNotSupportedException@@YGXXZ 004132ef f   nafxcw:except.obj
 0001:0001230b       ?AfxThrowInvalidArgException@@YGXXZ 0041330b f   nafxcw:except.obj
 0001:00012327       ?CreateObject@?$CThreadLocal@V_AFX_THREAD_STATE@@@@SGPAVCNoTrackObject@@XZ 00413327 f i nafxcw:except.obj
 0001:00012356       ??0CException@@QAE@XZ      00413356 f   nafxcw:except.obj
 0001:00012360       ??0CException@@QAE@H@Z     00413360 f   nafxcw:except.obj
 0001:00012371       ?GetErrorMessage@CSimpleException@@UBEHPADIPAI@Z 00413371 f   nafxcw:except.obj
 0001:000123cb       ??_GCMemoryException@@UAEPAXI@Z 004133cb f i nafxcw:except.obj
 0001:000123cb       ??_ECNotSupportedException@@UAEPAXI@Z 004133cb f i nafxcw:except.obj
 0001:000123cb       ??_GCUserException@@UAEPAXI@Z 004133cb f i nafxcw:wingdi.obj
 0001:000123cb       ??_ECResourceException@@UAEPAXI@Z 004133cb f i nafxcw:wingdi.obj
 0001:000123cb       ??_GCResourceException@@UAEPAXI@Z 004133cb f i nafxcw:wingdi.obj
 0001:000123cb       ??_ECMemoryException@@UAEPAXI@Z 004133cb f i nafxcw:except.obj
 0001:000123cb       ??_GCNotSupportedException@@UAEPAXI@Z 004133cb f i nafxcw:except.obj
 0001:000123cb       ??_ECUserException@@UAEPAXI@Z 004133cb f i nafxcw:wingdi.obj
 0001:000123cb       ??_ECInvalidArgException@@UAEPAXI@Z 004133cb f i nafxcw:except.obj
 0001:000123cb       ??_GCInvalidArgException@@UAEPAXI@Z 004133cb f i nafxcw:except.obj
 0001:000123ed       ?AfxGetExceptionContext@@YAPAUAFX_EXCEPTION_CONTEXT@@XZ 004133ed f i nafxcw:except.obj
 0001:00012420       ??0AFX_EXCEPTION_LINK@@QAE@XZ 00413420 f   nafxcw:except.obj
 0001:00012438       ?AfxTryCleanup@@YGXXZ      00413438 f   nafxcw:except.obj
 0001:0001245c       ??$HashKey@PB_W@@YGIPB_W@Z 0041345c f   nafxcw:strcore.obj
 0001:000124b8       ??$HashKey@PBD@@YGIPBD@Z   004134b8 f   nafxcw:strcore.obj
 0001:00012514       ?AfxGetStringManager@@YGPAUIAtlStringMgr@ATL@@XZ 00413514 f   nafxcw:strcore.obj
 0001:0001251a       ?Allocate@CAfxStringMgr@@UAEPAUCStringData@ATL@@HH@Z 0041351a f   nafxcw:strcore.obj
 0001:00012559       ?Free@CMemFile@@MAEXPAE@Z  00413559 f   nafxcw:filemem.obj
 0001:00012559       ?Free@CAfxStringMgr@@UAEXPAUCStringData@ATL@@@Z 00413559 f   nafxcw:strcore.obj
 0001:0001256b       ?Reallocate@CAfxStringMgr@@UAEPAUCStringData@ATL@@PAU23@HH@Z 0041356b f   nafxcw:strcore.obj
 0001:0001259d       ?CopyCharsOverlapped@?$CSimpleStringT@_W$0A@@ATL@@SAXPA_WIPB_WH@Z 0041359d f i nafxcw:strcore.obj
 0001:000125be       ??1CComBSTR@ATL@@QAE@XZ    004135be f i nafxcw:strcore.obj
 0001:000125c7       ?FreeHeap@?$CTempBuffer@D$0IA@VCCRTAllocator@ATL@@@ATL@@AAEXXZ 004135c7 f i nafxcw:strcore.obj
 0001:000125c7       ?FreeHeap@?$CTempBuffer@_W$0IA@VCCRTAllocator@ATL@@@ATL@@AAEXXZ 004135c7 f i nafxcw:strcore.obj
 0001:000125d0       ?AllocateHeap@?$CTempBuffer@D$0IA@VCCRTAllocator@ATL@@@ATL@@AAEXI@Z 004135d0 f i nafxcw:strcore.obj
 0001:000125d0       ?AllocateHeap@?$CTempBuffer@_W$0IA@VCCRTAllocator@ATL@@@ATL@@AAEXI@Z 004135d0 f i nafxcw:strcore.obj
 0001:000125f6       ??$AtlMultiplyThrow@I@ATL@@YAIII@Z 004135f6 f i nafxcw:strcore.obj
 0001:0001261d       ?GetNilString@CAfxStringMgr@@UAEPAUCStringData@ATL@@XZ 0041361d f   nafxcw:strcore.obj
 0001:0001262b       ?CloneData@?$CSimpleStringT@_W$0A@@ATL@@CAPAUCStringData@2@PAU32@@Z 0041362b f i nafxcw:strcore.obj
 0001:0001268b       ??1?$CTempBuffer@D$0IA@VCCRTAllocator@ATL@@@ATL@@QAE@XZ 0041368b f i nafxcw:strcore.obj
 0001:0001268b       ??1?$CTempBuffer@_W$0IA@VCCRTAllocator@ATL@@@ATL@@QAE@XZ 0041368b f i nafxcw:strcore.obj
 0001:00012698       ??$?6DV?$StrTraitMFC@DV?$ChTraitsCRT@D@ATL@@@@@CArchive@@QAEAAV0@ABV?$CStringT@DV?$StrTraitMFC@DV?$ChTraitsCRT@D@ATL@@@@@ATL@@@Z 00413698 f i nafxcw:strcore.obj
 0001:000126c6       ?Allocate@?$CTempBuffer@D$0IA@VCCRTAllocator@ATL@@@ATL@@QAEPADI@Z 004136c6 f i nafxcw:strcore.obj
 0001:000126f7       ?Allocate@?$CTempBuffer@_W$0IA@VCCRTAllocator@ATL@@@ATL@@QAEPA_WI@Z 004136f7 f i nafxcw:strcore.obj
 0001:00012728       ?SetString@?$CSimpleStringT@_W$0A@@ATL@@QAEXPB_WH@Z 00413728 f i nafxcw:strcore.obj
 0001:0001279b       ??0?$CStringT@DV?$StrTraitMFC@DV?$ChTraitsCRT@D@ATL@@@@@ATL@@QAE@PB_WH@Z 0041379b f i nafxcw:strcore.obj
 0001:00012808       ??4?$CSimpleStringT@_W$0A@@ATL@@QAEAAV01@ABV01@@Z 00413808 f i nafxcw:strcore.obj
 0001:0001285a       ??$?5DV?$StrTraitMFC@DV?$ChTraitsCRT@D@ATL@@@@@CArchive@@QAEAAV0@AAV?$CStringT@DV?$StrTraitMFC@DV?$ChTraitsCRT@D@ATL@@@@@ATL@@@Z 0041385a f i nafxcw:strcore.obj
 0001:000129ad       ??$SerializeElementsInsertExtract@V?$CStringT@DV?$StrTraitMFC@DV?$ChTraitsCRT@D@ATL@@@@@ATL@@@@YGXAAVCArchive@@PAV?$CStringT@DV?$StrTraitMFC@DV?$ChTraitsCRT@D@ATL@@@@@ATL@@H@Z 004139ad f i nafxcw:strcore.obj
 0001:000129f9       ??$SerializeElements@V?$CStringT@DV?$StrTraitMFC@DV?$ChTraitsCRT@D@ATL@@@@@ATL@@@@YGXAAVCArchive@@PAV?$CStringT@DV?$StrTraitMFC@DV?$ChTraitsCRT@D@ATL@@@@@ATL@@H@Z 004139f9 f   nafxcw:strcore.obj
 0001:00012a04       ?SetOutputDC@CDC@@UAEXPAUHDC__@@@Z 00413a04 f   nafxcw:wingdi.obj
 0001:00012a13       ?ReleaseAttribDC@CDC@@UAEXXZ 00413a13 f   nafxcw:wingdi.obj
 0001:00012a18       ?ReleaseOutputDC@CDC@@UAEXXZ 00413a18 f   nafxcw:wingdi.obj
 0001:00012a1d       ?SaveDC@CDC@@UAEHXZ        00413a1d f   nafxcw:wingdi.obj
 0001:00012a50       ?RestoreDC@CDC@@UAEHH@Z    00413a50 f   nafxcw:wingdi.obj
 0001:00012a92       ?SetBkColor@CDC@@UAEKK@Z   00413a92 f   nafxcw:wingdi.obj
 0001:00012ac5       ?SetBkMode@CDC@@QAEHH@Z    00413ac5 f   nafxcw:wingdi.obj
 0001:00012af7       ?SetPolyFillMode@CDC@@QAEHH@Z 00413af7 f   nafxcw:wingdi.obj
 0001:00012b29       ?SetROP2@CDC@@QAEHH@Z      00413b29 f   nafxcw:wingdi.obj
 0001:00012b5b       ?SetStretchBltMode@CDC@@QAEHH@Z 00413b5b f   nafxcw:wingdi.obj
 0001:00012b8d       ?SetTextColor@CDC@@UAEKK@Z 00413b8d f   nafxcw:wingdi.obj
 0001:00012bc0       ?SetMapMode@CDC@@UAEHH@Z   00413bc0 f   nafxcw:wingdi.obj
 0001:00012bf2       ?GetClipBox@CDC@@UBEHPAUtagRECT@@@Z 00413bf2 f   nafxcw:wingdi.obj
 0001:00012c07       ?ExcludeClipRect@CDC@@QAEHHHHH@Z 00413c07 f   nafxcw:wingdi.obj
 0001:00012c4b       ?ExcludeClipRect@CDC@@QAEHPBUtagRECT@@@Z 00413c4b f   nafxcw:wingdi.obj
 0001:00012c92       ?IntersectClipRect@CDC@@QAEHPBUtagRECT@@@Z 00413c92 f   nafxcw:wingdi.obj
 0001:00012cd9       ?LineTo@CDC@@QAEHHH@Z      00413cd9 f   nafxcw:wingdi.obj
 0001:00012d10       ?SetTextAlign@CDC@@QAEII@Z 00413d10 f   nafxcw:wingdi.obj
 0001:00012d49       ?GetLayout@CDC@@QBEKXZ     00413d49 f   nafxcw:wingdi.obj
 0001:00012d53       ?SetLayout@CDC@@QAEKK@Z    00413d53 f   nafxcw:wingdi.obj
 0001:00012d68       ?GetRuntimeClass@CResourceException@@UBEPAUCRuntimeClass@@XZ 00413d68 f   nafxcw:wingdi.obj
 0001:00012d6e       ?GetRuntimeClass@CUserException@@UBEPAUCRuntimeClass@@XZ 00413d6e f   nafxcw:wingdi.obj
 0001:00012d74       ?GetRuntimeClass@CDC@@UBEPAUCRuntimeClass@@XZ 00413d74 f   nafxcw:wingdi.obj
 0001:00012d7a       ?GetRuntimeClass@CClientDC@@UBEPAUCRuntimeClass@@XZ 00413d7a f   nafxcw:wingdi.obj
 0001:00012d80       ?GetRuntimeClass@CWindowDC@@UBEPAUCRuntimeClass@@XZ 00413d80 f   nafxcw:wingdi.obj
 0001:00012d86       ?GetRuntimeClass@CPaintDC@@UBEPAUCRuntimeClass@@XZ 00413d86 f   nafxcw:wingdi.obj
 0001:00012d8c       ?GetRuntimeClass@CGdiObject@@UBEPAUCRuntimeClass@@XZ 00413d8c f   nafxcw:wingdi.obj
 0001:00012d92       ?GetRuntimeClass@CPen@@UBEPAUCRuntimeClass@@XZ 00413d92 f   nafxcw:wingdi.obj
 0001:00012d98       ?GetRuntimeClass@CBrush@@UBEPAUCRuntimeClass@@XZ 00413d98 f   nafxcw:wingdi.obj
 0001:00012d9e       ?GetRuntimeClass@CFont@@UBEPAUCRuntimeClass@@XZ 00413d9e f   nafxcw:wingdi.obj
 0001:00012da4       ?GetRuntimeClass@CBitmap@@UBEPAUCRuntimeClass@@XZ 00413da4 f   nafxcw:wingdi.obj
 0001:00012daa       ?GetRuntimeClass@CPalette@@UBEPAUCRuntimeClass@@XZ 00413daa f   nafxcw:wingdi.obj
 0001:00012db0       ?GetRuntimeClass@CRgn@@UBEPAUCRuntimeClass@@XZ 00413db0 f   nafxcw:wingdi.obj
 0001:00012db6       ?AfxThrowResourceException@@YGXXZ 00413db6 f   nafxcw:wingdi.obj
 0001:00012dd2       ?AfxThrowUserException@@YGXXZ 00413dd2 f   nafxcw:wingdi.obj
 0001:00012dee       ?Destruct@?$ConstructDestruct@VCWnd@@@@SGXPAVCObject@@@Z 00413dee f i nafxcw:wincore.obj
 0001:00012dee       ?Destruct@?$ConstructDestruct@VCImageList@@@@SGXPAVCObject@@@Z 00413dee f i nafxcw:winctrl2.obj
 0001:00012dee       ?Destruct@?$ConstructDestruct@VCMenu@@@@SGXPAVCObject@@@Z 00413dee f i nafxcw:winmenu.obj
 0001:00012dee       ?Destruct@?$ConstructDestruct@VCGdiObject@@@@SGXPAVCObject@@@Z 00413dee f i nafxcw:wingdi.obj
 0001:00012dee       ?Destruct@?$ConstructDestruct@VCDC@@@@SGXPAVCObject@@@Z 00413dee f i nafxcw:wingdi.obj
 0001:00012e01       ??3CObject@@SGXPAX0@Z      00413e01 f i nafxcw:wingdi.obj
 0001:00012e13       ?GetViewportExt@CDC@@QBE?AVCSize@@XZ 00413e13 f i nafxcw:wingdi.obj
 0001:00012e39       ?GetWindowExt@CDC@@QBE?AVCSize@@XZ 00413e39 f i nafxcw:wingdi.obj
 0001:00012e5f       ??0CDC@@QAE@XZ             00413e5f f   nafxcw:wingdi.obj
 0001:00012e73       ?SelectObject@CDC@@QAEHPAVCRgn@@@Z 00413e73 f   nafxcw:wingdi.obj
 0001:00012ebd       ?SetViewportOrg@CDC@@UAE?AVCPoint@@HH@Z 00413ebd f   nafxcw:wingdi.obj
 0001:00012f03       ?OffsetViewportOrg@CDC@@UAE?AVCPoint@@HH@Z 00413f03 f   nafxcw:wingdi.obj
 0001:00012f49       ?SetViewportExt@CDC@@UAE?AVCSize@@HH@Z 00413f49 f   nafxcw:wingdi.obj
 0001:00012f8f       ?ScaleViewportExt@CDC@@UAE?AVCSize@@HHHH@Z 00413f8f f   nafxcw:wingdi.obj
 0001:00012fe1       ?SetWindowOrg@CDC@@QAE?AVCPoint@@HH@Z 00413fe1 f   nafxcw:wingdi.obj
 0001:00013027       ?OffsetWindowOrg@CDC@@QAE?AVCPoint@@HH@Z 00414027 f   nafxcw:wingdi.obj
 0001:0001306d       ?SetWindowExt@CDC@@UAE?AVCSize@@HH@Z 0041406d f   nafxcw:wingdi.obj
 0001:000130b3       ?ScaleWindowExt@CDC@@UAE?AVCSize@@HHHH@Z 004140b3 f   nafxcw:wingdi.obj
 0001:00013105       ?SelectClipRgn@CDC@@QAEHPAVCRgn@@@Z 00414105 f   nafxcw:wingdi.obj
 0001:0001314a       ?MoveTo@CDC@@QAE?AVCPoint@@HH@Z 0041414a f   nafxcw:wingdi.obj
 0001:00013190       ?ScreenToClient@CWnd@@QBEXPAUtagRECT@@@Z 00414190 f   nafxcw:wingdi.obj
 0001:000131d1       ?ClientToScreen@CWnd@@QBEXPAUtagRECT@@@Z 004141d1 f   nafxcw:wingdi.obj
 0001:00013212       ?SelectClipRgn@CDC@@QAEHPAVCRgn@@H@Z 00414212 f   nafxcw:wingdi.obj
 0001:0001325d       ?LPtoDP@CDC@@QBEXPAUtagSIZE@@@Z 0041425d f   nafxcw:wingdi.obj
 0001:000132c8       ?DPtoLP@CDC@@QBEXPAUtagSIZE@@@Z 004142c8 f   nafxcw:wingdi.obj
 0001:00013333       ?CreateObject@CDC@@SGPAVCObject@@XZ 00414333 f   nafxcw:wingdi.obj
 0001:00013354       ?CreateObject@CGdiObject@@SGPAVCObject@@XZ 00414354 f   nafxcw:wingdi.obj
 0001:0001336e       ?Construct@?$ConstructDestruct@VCDC@@@@SGXPAVCObject@@@Z 0041436e f i nafxcw:wingdi.obj
 0001:0001338f       ?Construct@?$ConstructDestruct@VCGdiObject@@@@SGXPAVCObject@@@Z 0041438f f i nafxcw:wingdi.obj
 0001:000133a9       ?afxMapHDC@@YGPAVCHandleMap@@H@Z 004143a9 f   nafxcw:wingdi.obj
 0001:0001341d       ?FromHandle@CDC@@SGPAV1@PAUHDC__@@@Z 0041441d f   nafxcw:wingdi.obj
 0001:00013431       ?Attach@CDC@@QAEHPAUHDC__@@@Z 00414431 f   nafxcw:wingdi.obj
 0001:00013469       ?Detach@CDC@@QAEPAUHDC__@@XZ 00414469 f   nafxcw:wingdi.obj
 0001:0001349c       ?DeleteDC@CDC@@QAEHXZ      0041449c f   nafxcw:wingdi.obj
 0001:000134b2       ??1CDC@@UAE@XZ             004144b2 f   nafxcw:wingdi.obj
 0001:000134cb       ??0CClientDC@@QAE@PAVCWnd@@@Z 004144cb f   nafxcw:wingdi.obj
 0001:0001351f       ??1CClientDC@@UAE@XZ       0041451f f   nafxcw:wingdi.obj
 0001:0001355a       ??0CWindowDC@@QAE@PAVCWnd@@@Z 0041455a f   nafxcw:wingdi.obj
 0001:000135ae       ??1CWindowDC@@UAE@XZ       004145ae f   nafxcw:wingdi.obj
 0001:000135e9       ??0CPaintDC@@QAE@PAVCWnd@@@Z 004145e9 f   nafxcw:wingdi.obj
 0001:0001363d       ??1CPaintDC@@UAE@XZ        0041463d f   nafxcw:wingdi.obj
 0001:0001367d       ?afxMapHGDIOBJ@@YGPAVCHandleMap@@H@Z 0041467d f   nafxcw:wingdi.obj
 0001:000136f1       ?FromHandle@CGdiObject@@SGPAV1@PAX@Z 004146f1 f   nafxcw:wingdi.obj
 0001:00013705       ?Attach@CGdiObject@@QAEHPAX@Z 00414705 f   nafxcw:wingdi.obj
 0001:00013733       ?Detach@CGdiObject@@QAEPAXXZ 00414733 f   nafxcw:wingdi.obj
 0001:0001375f       ?DeleteObject@CGdiObject@@QAEHXZ 0041475f f   nafxcw:wingdi.obj
 0001:00013775       ??_GCDC@@UAEPAXI@Z         00414775 f i nafxcw:wingdi.obj
 0001:00013775       ??_ECDC@@UAEPAXI@Z         00414775 f i nafxcw:wingdi.obj
 0001:00013796       ?SelectGdiObject@CDC@@KGPAVCGdiObject@@PAUHDC__@@PAX@Z 00414796 f   nafxcw:wingdi.obj
 0001:000137b1       ?SelectStockObject@CDC@@UAEPAVCGdiObject@@H@Z 004147b1 f   nafxcw:wingdi.obj
 0001:000137f2       ?SelectObject@CDC@@QAEPAVCPen@@PAV2@@Z 004147f2 f   nafxcw:wingdi.obj
 0001:000137f2       ?SelectObject@CDC@@UAEPAVCFont@@PAV2@@Z 004147f2 f   nafxcw:wingdi.obj
 0001:000137f2       ?SelectObject@CDC@@QAEPAVCBrush@@PAV2@@Z 004147f2 f   nafxcw:wingdi.obj
 0001:0001383d       ?SelectPalette@CDC@@QAEPAVCPalette@@PAV2@H@Z 0041483d f   nafxcw:wingdi.obj
 0001:00013863       ??_GCClientDC@@UAEPAXI@Z   00414863 f i nafxcw:wingdi.obj
 0001:00013863       ??_ECClientDC@@UAEPAXI@Z   00414863 f i nafxcw:wingdi.obj
 0001:00013884       ??_ECWindowDC@@UAEPAXI@Z   00414884 f i nafxcw:wingdi.obj
 0001:00013884       ??_GCWindowDC@@UAEPAXI@Z   00414884 f i nafxcw:wingdi.obj
 0001:000138a5       ??_GCPaintDC@@UAEPAXI@Z    004148a5 f i nafxcw:wingdi.obj
 0001:000138a5       ??_ECPaintDC@@UAEPAXI@Z    004148a5 f i nafxcw:wingdi.obj
 0001:000138c6       ??0CPen@@QAE@HHK@Z         004148c6 f   nafxcw:wingdi.obj
 0001:0001390f       ??0CBrush@@QAE@K@Z         0041490f f   nafxcw:wingdi.obj
 0001:00013952       ?AfxGetGrayBitmap@@YGXABVCBitmap@@PAV1@K@Z 00414952 f   nafxcw:wingdi.obj
 0001:00013bd2       ?AfxGetDitheredBitmap@@YGXABVCBitmap@@PAV1@KK@Z 00414bd2 f   nafxcw:wingdi.obj
 0001:00013ec8       ?GetRoutingFrame_@CCmdTarget@@KGPAVCFrameWnd@@XZ 00414ec8 f   nafxcw:appui1.obj
 0001:00013ed4       ?AfxCtxMessageBoxA@@YAHPAUHWND__@@PBD1I@Z 00414ed4 f i nafxcw:appui1.obj
 0001:00013f63       ?AfxGetMainWnd@@YGPAVCWnd@@XZ 00414f63 f i nafxcw:appui1.obj
 0001:00013f76       ?DoEnableModeless@CWinApp@@SAXH@Z 00414f76 f   nafxcw:appui1.obj
 0001:00013fb1       ?GetSafeOwner_@CWnd@@SGPAUHWND__@@PAU2@PAPAU2@@Z 00414fb1 f   nafxcw:appui1.obj
 0001:00014051       ?EnableModeless@CWinApp@@QAEXH@Z 00415051 f   nafxcw:appui1.obj
 0001:00014063       ?ShowAppMessageBox@CWinApp@@SAHPAV1@PBDII@Z 00415063 f   nafxcw:appui1.obj
 0001:000141c4       ?AfxMessageBox@@YGHPBDII@Z 004151c4 f   nafxcw:appui1.obj
 0001:000141f7       ?DoMessageBox@CWinApp@@UAEHPBDII@Z 004151f7 f   nafxcw:appui1.obj
 0001:00014212       ?AfxMessageBox@@YGHIII@Z   00415212 f   nafxcw:appui1.obj
 0001:00014274       ?AfxLoadString@@YGHIPADI@Z 00415274 f   nafxcw:winstr.obj
 0001:000142ce       ?AfxFindStringResourceHandle@@YGPAUHINSTANCE__@@I@Z 004152ce f   nafxcw:winstr.obj
 0001:000142d9       ?AfxExtractSubString@@YGHAAV?$CStringT@DV?$StrTraitMFC@DV?$ChTraitsCRT@D@ATL@@@@@ATL@@PBDHD@Z 004152d9 f   nafxcw:winstr.obj
 0001:0001435e       ?GetRuntimeClass@CObject@@UBEPAUCRuntimeClass@@XZ 0041535e f   nafxcw:objcore.obj
 0001:00014364       ?CreateObject@CRuntimeClass@@QAEPAVCObject@@XZ 00415364 f   nafxcw:objcore.obj
 0001:000143ae       ?IsDerivedFrom@CRuntimeClass@@QBEHPBU1@@Z 004153ae f   nafxcw:objcore.obj
 0001:000143d9       ?IsKindOf@CObject@@QBEHPBUCRuntimeClass@@@Z 004153d9 f   nafxcw:objcore.obj
 0001:000143f7       ?AfxDynamicDownCast@@YAPAVCObject@@PAUCRuntimeClass@@PAV1@@Z 004153f7 f   nafxcw:objcore.obj
 0001:0001441a       ?AfxClassInit@@YGXPAUCRuntimeClass@@@Z 0041541a f   nafxcw:objcore.obj
 0001:00014445       ?AfxWingdixTerm@@YAXXZ     00415445 f   nafxcw:wingdix.obj
 0001:00014450       ?FillSolidRect@CDC@@QAEXPBUtagRECT@@K@Z 00415450 f   nafxcw:wingdix.obj
 0001:00014493       ?CombineRgn@CRgn@@QAEHPBV1@0H@Z 00415493 f i nafxcw:wingdix.obj
 0001:000144c2       ?DPtoHIMETRIC@CDC@@QBEXPAUtagSIZE@@@Z 004154c2 f   nafxcw:wingdix.obj
 0001:00014552       ?HIMETRICtoDP@CDC@@QBEXPAUtagSIZE@@@Z 00415552 f   nafxcw:wingdix.obj
 0001:000145e2       ?HIMETRICtoLP@CDC@@QBEXPAUtagSIZE@@@Z 004155e2 f   nafxcw:wingdix.obj
 0001:00014601       ?GetHalftoneBrush@CDC@@SGPAVCBrush@@XZ 00415601 f   nafxcw:wingdix.obj
 0001:000146a7       ?FillSolidRect@CDC@@QAEXHHHHK@Z 004156a7 f   nafxcw:wingdix.obj
 0001:00014705       ?Draw3dRect@CDC@@QAEXHHHHKK@Z 00415705 f   nafxcw:wingdix.obj
 0001:00014771       ?Draw3dRect@CDC@@QAEXPBUtagRECT@@KK@Z 00415771 f   nafxcw:wingdix.obj
 0001:0001479f       ??1CRgn@@UAE@XZ            0041579f f i nafxcw:wingdix.obj
 0001:000147aa       ?DrawDragRect@CDC@@QAEXPBUtagRECT@@UtagSIZE@@01PAVCBrush@@2@Z 004157aa f   nafxcw:wingdix.obj
 0001:00014a6e       ??_ECRgn@@UAEPAXI@Z        00415a6e f i nafxcw:wingdix.obj
 0001:00014a6e       ??_GCRgn@@UAEPAXI@Z        00415a6e f i nafxcw:wingdix.obj
 0001:00014a95       ??1AFX_MAINTAIN_STATE2@@QAE@XZ 00415a95 f   nafxcw:afxstate.obj
 0001:00014aa6       ??1?$CThreadLocal@VAFX_MODULE_THREAD_STATE@@@@QAE@XZ 00415aa6 f i nafxcw:afxstate.obj
 0001:00014aab       ?CreateActivationContext@AFX_MODULE_STATE@@QAEXXZ 00415aab f   nafxcw:afxstate.obj
 0001:00014b9f       ?Unlock@CTypeLibCache@@QAEXXZ 00415b9f f   nafxcw:afxstate.obj
 0001:00014bd6       ?AfxGetPerUserRegistration@@YGHXZ 00415bd6 f   nafxcw:afxstate.obj
 0001:00014bdc       ??0_AFX_THREAD_STATE@@QAE@XZ 00415bdc f   nafxcw:afxstate.obj
 0001:00014bf5       ??1_AFX_THREAD_STATE@@UAE@XZ 00415bf5 f   nafxcw:afxstate.obj
 0001:00014c2c       ??1AFX_MODULE_THREAD_STATE@@UAE@XZ 00415c2c f   nafxcw:afxstate.obj
 0001:00014cda       ??_G_AFX_THREAD_STATE@@UAEPAXI@Z 00415cda f i nafxcw:afxstate.obj
 0001:00014cda       ??_E_AFX_THREAD_STATE@@UAEPAXI@Z 00415cda f i nafxcw:afxstate.obj
 0001:00014cfa       ??0AFX_MODULE_THREAD_STATE@@QAE@XZ 00415cfa f   nafxcw:afxstate.obj
 0001:00014d24       ??_EAFX_MODULE_THREAD_STATE@@UAEPAXI@Z 00415d24 f i nafxcw:afxstate.obj
 0001:00014d24       ??_GAFX_MODULE_THREAD_STATE@@UAEPAXI@Z 00415d24 f i nafxcw:afxstate.obj
 0001:00014d44       ?CreateObject@?$CThreadLocal@VAFX_MODULE_THREAD_STATE@@@@SGPAVCNoTrackObject@@XZ 00415d44 f i nafxcw:afxstate.obj
 0001:00014d59       ?AfxGetThreadState@@YGPAV_AFX_THREAD_STATE@@XZ 00415d59 f   nafxcw:afxstate.obj
 0001:00014d72       ??1AFX_MODULE_STATE@@UAE@XZ 00415d72 f   nafxcw:afxstate.obj
 0001:00014e27       ?GetData@?$CThreadLocal@VAFX_MODULE_THREAD_STATE@@@@QAEPAVAFX_MODULE_THREAD_STATE@@XZ 00415e27 f i nafxcw:afxstate.obj
 0001:00014e3b       ??0CDllIsolationWrapperBase@@QAE@ABV?$CStringT@DV?$StrTraitMFC@DV?$ChTraitsCRT@D@ATL@@@@@ATL@@@Z 00415e3b f i nafxcw:afxstate.obj
 0001:00014e6d       ??1CDllIsolationWrapperBase@@UAE@XZ 00415e6d f i nafxcw:afxstate.obj
 0001:00014e93       ??_E_AFX_BASE_MODULE_STATE@@UAEPAXI@Z 00415e93 f i nafxcw:afxstate.obj
 0001:00014e93       ??_GAFX_MODULE_STATE@@UAEPAXI@Z 00415e93 f i nafxcw:afxstate.obj
 0001:00014e93       ??_EAFX_MODULE_STATE@@UAEPAXI@Z 00415e93 f i nafxcw:afxstate.obj
 0001:00014e93       ??_G_AFX_BASE_MODULE_STATE@@UAEPAXI@Z 00415e93 f i nafxcw:afxstate.obj
 0001:00014eb3       ??0CComCtlWrapper@@QAE@XZ  00415eb3 f i nafxcw:afxstate.obj
 0001:000150d7       ??0CCommDlgWrapper@@QAE@XZ 004160d7 f i nafxcw:afxstate.obj
 0001:0001515a       ??0CShellWrapper@@QAE@XZ   0041615a f i nafxcw:afxstate.obj
 0001:000151a1       ??_GCComCtlWrapper@@UAEPAXI@Z 004161a1 f i nafxcw:afxstate.obj
 0001:000151a1       ??_GCCommDlgWrapper@@UAEPAXI@Z 004161a1 f i nafxcw:afxstate.obj
 0001:000151a1       ??_GCShellWrapper@@UAEPAXI@Z 004161a1 f i nafxcw:afxstate.obj
 0001:000151a1       ??_ECCommDlgWrapper@@UAEPAXI@Z 004161a1 f i nafxcw:afxstate.obj
 0001:000151a1       ??_GCDllIsolationWrapperBase@@UAEPAXI@Z 004161a1 f i nafxcw:afxstate.obj
 0001:000151a1       ??_ECShellWrapper@@UAEPAXI@Z 004161a1 f i nafxcw:afxstate.obj
 0001:000151a1       ??_ECComCtlWrapper@@UAEPAXI@Z 004161a1 f i nafxcw:afxstate.obj
 0001:000151a1       ??_ECDllIsolationWrapperBase@@UAEPAXI@Z 004161a1 f i nafxcw:afxstate.obj
 0001:000151c1       ??0AFX_MODULE_STATE@@QAE@H@Z 004161c1 f   nafxcw:afxstate.obj
 0001:00015301       ?CreateObject@?$CProcessLocal@V_AFX_BASE_MODULE_STATE@@@@SGPAVCNoTrackObject@@XZ 00416301 f i nafxcw:afxstate.obj
 0001:0001533c       ?AfxGetModuleState@@YGPAVAFX_MODULE_STATE@@XZ 0041633c f   nafxcw:afxstate.obj
 0001:0001536f       ?AfxGetModuleThreadState@@YGPAVAFX_MODULE_THREAD_STATE@@XZ 0041636f f   nafxcw:afxstate.obj
 0001:00015386       ??0AFX_MAINTAIN_STATE2@@QAE@PAVAFX_MODULE_STATE@@@Z 00416386 f   nafxcw:afxstate.obj
 0001:000153bf       ?AtlIAccessibleInvokeHelper@ATL@@YGJPAUIAccessible@@JABU_GUID@@KGPAUtagDISPPARAMS@@PAUtagVARIANT@@PAUtagEXCEPINFO@@PAI@Z 004163bf f i nafxcw:wincore.obj
 0001:0001599b       ?AtlIAccessibleGetIDsOfNamesHelper@ATL@@YGJABU_GUID@@PAPA_WIKPAJ@Z 0041699b f i nafxcw:wincore.obj
 0001:00015a07       ??0CWnd@@AAE@PAUHWND__@@@Z 00416a07 f   nafxcw:wincore.obj
 0001:00015a6f       ?_AfxModifyStyle@@YGHPAUHWND__@@HKKI@Z 00416a6f f   nafxcw:wincore.obj
 0001:00015ac1       ?ModifyStyle@CWnd@@SGHPAUHWND__@@KKI@Z 00416ac1 f   nafxcw:wincore.obj
 0001:00015add       ?ModifyStyleEx@CWnd@@SGHPAUHWND__@@KKI@Z 00416add f   nafxcw:wincore.obj
 0001:00015af9       ?GetMenu@CWnd@@UBEPAVCMenu@@XZ 00416af9 f   nafxcw:wincore.obj
 0001:00015b09       ?OnFinalRelease@CWnd@@UAEXXZ 00416b09 f   nafxcw:wincore.obj
 0001:00015b1a       ?DefWindowProcA@CWnd@@MAEJIIJ@Z 00416b1a f   nafxcw:wincore.obj
 0001:00015b63       ?GetSuperWndProcAddr@CWnd@@MAEPAP6GJPAUHWND__@@IIJ@ZXZ 00416b63 f   nafxcw:wincore.obj
 0001:00015b67       ?PreTranslateMessage@CWnd@@UAEHPAUtagMSG@@@Z 00416b67 f   nafxcw:wincore.obj
 0001:00015b88       ?OnToolHitTest@CWnd@@UBEHVCPoint@@PAUtagTOOLINFOA@@@Z 00416b88 f   nafxcw:wincore.obj
 0001:00015bfb       ?GetWindowPlacement@CWnd@@QBEHPAUtagWINDOWPLACEMENT@@@Z 00416bfb f   nafxcw:wincore.obj
 0001:00015c17       ?SetWindowPlacement@CWnd@@QAEHPBUtagWINDOWPLACEMENT@@@Z 00416c17 f   nafxcw:wincore.obj
 0001:00015c33       ??1_AFX_HTMLHELP_STATE@@UAE@XZ 00416c33 f   nafxcw:wincore.obj
 0001:00015c48       ??_E_AFX_HTMLHELP_STATE@@UAEPAXI@Z 00416c48 f i nafxcw:wincore.obj
 0001:00015c48       ??_G_AFX_HTMLHELP_STATE@@UAEPAXI@Z 00416c48 f i nafxcw:wincore.obj
 0001:00015c68       ?AfxFindMessageEntry@@YGPBUAFX_MSGMAP_ENTRY@@PBU1@III@Z 00416c68 f   nafxcw:wincore.obj
 0001:00015caa       ?WindowProc@CWnd@@MAEJIIJ@Z 00416caa f   nafxcw:wincore.obj
 0001:00015cf0       ??0CTestCmdUI@@QAE@XZ      00416cf0 f   nafxcw:wincore.obj
 0001:00015d0b       ?Enable@CTestCmdUI@@UAEXH@Z 00416d0b f   nafxcw:wincore.obj
 0001:00015d0b       ?Enable@CMFCColorBarCmdUI@@UAEXH@Z 00416d0b f   nafxcw:afxcolorbar.obj
 0001:00015d21       ?SetScrollInfo@CWnd@@QAEHHPAUtagSCROLLINFO@@H@Z 00416d21 f   nafxcw:wincore.obj
 0001:00015d61       ?GetScrollInfo@CWnd@@QAEHHPAUtagSCROLLINFO@@I@Z 00416d61 f   nafxcw:wincore.obj
 0001:00015da1       ?AfxRepositionWindow@@YGXPAUAFX_SIZEPARENTPARAMS@@PAUHWND__@@PBUtagRECT@@@Z 00416da1 f   nafxcw:wincore.obj
 0001:00015e55       ?CalcWindowRect@CWnd@@UAEXPAUtagRECT@@I@Z 00416e55 f   nafxcw:wincore.obj
 0001:00015e86       ?GetInterfaceMap@CWnd@@MBEPBUAFX_INTERFACEMAP@@XZ 00416e86 f   nafxcw:wincore.obj
 0001:00015e8c       ?AddRef@XAccessible@CWnd@@UAGKXZ 00416e8c f   nafxcw:wincore.obj
 0001:00015eca       ?Release@XAccessible@CWnd@@UAGKXZ 00416eca f   nafxcw:wincore.obj
 0001:00015f08       ?QueryInterface@XAccessible@CWnd@@UAGJABU_GUID@@PAPAX@Z 00416f08 f   nafxcw:wincore.obj
 0001:00015f4c       ?Invoke@XAccessible@CWnd@@UAGJJABU_GUID@@KGPAUtagDISPPARAMS@@PAUtagVARIANT@@PAUtagEXCEPINFO@@PAI@Z 00416f4c f   nafxcw:wincore.obj
 0001:00015fa0       ?GetIDsOfNames@XAccessible@CWnd@@UAGJABU_GUID@@PAPA_WIKPAJ@Z 00416fa0 f   nafxcw:wincore.obj
 0001:00015fbd       ?GetTypeInfoCount@XAccessible@CWnd@@UAGJPAI@Z 00416fbd f   nafxcw:wincore.obj
 0001:00015fdc       ?get_accParent@XAccessible@CWnd@@UAGJPAPAUIDispatch@@@Z 00416fdc f   nafxcw:wincore.obj
 0001:00016021       ?get_accChildCount@XAccessible@CWnd@@UAGJPAJ@Z 00417021 f   nafxcw:wincore.obj
 0001:00016066       ?get_accChild@XAccessible@CWnd@@UAGJUtagVARIANT@@PAPAUIDispatch@@@Z 00417066 f   nafxcw:wincore.obj
 0001:000160b7       ?get_accName@XAccessible@CWnd@@UAGJUtagVARIANT@@PAPA_W@Z 004170b7 f   nafxcw:wincore.obj
 0001:00016108       ?get_accValue@XAccessible@CWnd@@UAGJUtagVARIANT@@PAPA_W@Z 00417108 f   nafxcw:wincore.obj
 0001:00016159       ?get_accDescription@XAccessible@CWnd@@UAGJUtagVARIANT@@PAPA_W@Z 00417159 f   nafxcw:wincore.obj
 0001:000161aa       ?get_accRole@XAccessible@CWnd@@UAGJUtagVARIANT@@PAU3@@Z 004171aa f   nafxcw:wincore.obj
 0001:000161fb       ?get_accState@XAccessible@CWnd@@UAGJUtagVARIANT@@PAU3@@Z 004171fb f   nafxcw:wincore.obj
 0001:0001624c       ?get_accHelp@XAccessible@CWnd@@UAGJUtagVARIANT@@PAPA_W@Z 0041724c f   nafxcw:wincore.obj
 0001:0001629d       ?get_accHelpTopic@XAccessible@CWnd@@UAGJPAPA_WUtagVARIANT@@PAJ@Z 0041729d f   nafxcw:wincore.obj
 0001:000162f1       ?get_accKeyboardShortcut@XAccessible@CWnd@@UAGJUtagVARIANT@@PAPA_W@Z 004172f1 f   nafxcw:wincore.obj
 0001:00016342       ?get_accFocus@XAccessible@CWnd@@UAGJPAUtagVARIANT@@@Z 00417342 f   nafxcw:wincore.obj
 0001:00016387       ?get_accSelection@XAccessible@CWnd@@UAGJPAUtagVARIANT@@@Z 00417387 f   nafxcw:wincore.obj
 0001:000163cc       ?get_accDefaultAction@XAccessible@CWnd@@UAGJUtagVARIANT@@PAPA_W@Z 004173cc f   nafxcw:wincore.obj
 0001:0001641d       ?accSelect@XAccessible@CWnd@@UAGJJUtagVARIANT@@@Z 0041741d f   nafxcw:wincore.obj
 0001:0001646e       ?accLocation@XAccessible@CWnd@@UAGJPAJ000UtagVARIANT@@@Z 0041746e f   nafxcw:wincore.obj
 0001:000164c8       ?accNavigate@XAccessible@CWnd@@UAGJJUtagVARIANT@@PAU3@@Z 004174c8 f   nafxcw:wincore.obj
 0001:0001651c       ?accHitTest@XAccessible@CWnd@@UAGJJJPAUtagVARIANT@@@Z 0041751c f   nafxcw:wincore.obj
 0001:00016567       ?accDoDefaultAction@XAccessible@CWnd@@UAGJUtagVARIANT@@@Z 00417567 f   nafxcw:wincore.obj
 0001:000165b5       ?put_accName@XAccessible@CWnd@@UAGJUtagVARIANT@@PA_W@Z 004175b5 f   nafxcw:wincore.obj
 0001:00016606       ?put_accValue@XAccessible@CWnd@@UAGJUtagVARIANT@@PA_W@Z 00417606 f   nafxcw:wincore.obj
 0001:00016657       ?AddRef@XAccessibleServer@CWnd@@UAGKXZ 00417657 f   nafxcw:wincore.obj
 0001:00016695       ?Release@XAccessibleServer@CWnd@@UAGKXZ 00417695 f   nafxcw:wincore.obj
 0001:000166d3       ?QueryInterface@XAccessibleServer@CWnd@@UAGJABU_GUID@@PAPAX@Z 004176d3 f   nafxcw:wincore.obj
 0001:00016717       ?SetProxy@XAccessibleServer@CWnd@@UAGJPAUIAccessibleProxy@@@Z 00417717 f   nafxcw:wincore.obj
 0001:0001675c       ?GetHWND@XAccessibleServer@CWnd@@UAGJPAPAUHWND__@@@Z 0041775c f   nafxcw:wincore.obj
 0001:00016796       ?GetEnumVariant@XAccessibleServer@CWnd@@UAGJPAPAUIEnumVARIANT@@@Z 00417796 f   nafxcw:wincore.obj
 0001:000167b5       ?EnsureStdObj@CWnd@@UAEJXZ 004177b5 f   nafxcw:wincore.obj
 0001:000167d4       ?get_accParent@CWnd@@UAEJPAPAUIDispatch@@@Z 004177d4 f   nafxcw:wincore.obj
 0001:000167e9       ?get_accChildCount@CWnd@@UAEJPAJ@Z 004177e9 f   nafxcw:wincore.obj
 0001:000167fe       ?get_accChild@CWnd@@UAEJUtagVARIANT@@PAPAUIDispatch@@@Z 004177fe f   nafxcw:wincore.obj
 0001:00016823       ?get_accName@CWnd@@UAEJUtagVARIANT@@PAPA_W@Z 00417823 f   nafxcw:wincore.obj
 0001:00016848       ?get_accValue@CWnd@@UAEJUtagVARIANT@@PAPA_W@Z 00417848 f   nafxcw:wincore.obj
 0001:0001686d       ?get_accDescription@CWnd@@UAEJUtagVARIANT@@PAPA_W@Z 0041786d f   nafxcw:wincore.obj
 0001:00016892       ?get_accRole@CWnd@@UAEJUtagVARIANT@@PAU2@@Z 00417892 f   nafxcw:wincore.obj
 0001:000168b7       ?get_accState@CWnd@@UAEJUtagVARIANT@@PAU2@@Z 004178b7 f   nafxcw:wincore.obj
 0001:000168dc       ?get_accHelp@CWnd@@UAEJUtagVARIANT@@PAPA_W@Z 004178dc f   nafxcw:wincore.obj
 0001:00016901       ?get_accHelpTopic@CWnd@@UAEJPAPA_WUtagVARIANT@@PAJ@Z 00417901 f   nafxcw:wincore.obj
 0001:00016929       ?get_accKeyboardShortcut@CWnd@@UAEJUtagVARIANT@@PAPA_W@Z 00417929 f   nafxcw:wincore.obj
 0001:0001694e       ?get_accFocus@CWnd@@UAEJPAUtagVARIANT@@@Z 0041794e f   nafxcw:wincore.obj
 0001:00016963       ?get_accSelection@CWnd@@UAEJPAUtagVARIANT@@@Z 00417963 f   nafxcw:wincore.obj
 0001:00016978       ?get_accDefaultAction@CWnd@@UAEJUtagVARIANT@@PAPA_W@Z 00417978 f   nafxcw:wincore.obj
 0001:0001699d       ?accSelect@CWnd@@UAEJJUtagVARIANT@@@Z 0041799d f   nafxcw:wincore.obj
 0001:000169c2       ?accLocation@CWnd@@UAEJPAJ000UtagVARIANT@@@Z 004179c2 f   nafxcw:wincore.obj
 0001:000169f0       ?accNavigate@CWnd@@UAEJJUtagVARIANT@@PAU2@@Z 004179f0 f   nafxcw:wincore.obj
 0001:00016a18       ?accHitTest@CWnd@@UAEJJJPAUtagVARIANT@@@Z 00417a18 f   nafxcw:wincore.obj
 0001:00016a33       ?accDoDefaultAction@CWnd@@UAEJUtagVARIANT@@@Z 00417a33 f   nafxcw:wincore.obj
 0001:00016a55       ?put_accName@CWnd@@UAEJUtagVARIANT@@PA_W@Z 00417a55 f   nafxcw:wincore.obj
 0001:00016a55       ?put_accValue@CWnd@@UAEJUtagVARIANT@@PA_W@Z 00417a55 f   nafxcw:wincore.obj
 0001:00016a7a       ?SetProxy@CWnd@@UAEJPAUIAccessibleProxy@@@Z 00417a7a f   nafxcw:wincore.obj
 0001:00016a8b       ?GrayCtlColor@CWnd@@SGHPAUHDC__@@PAUHWND__@@IPAUHBRUSH__@@K@Z 00417a8b f   nafxcw:wincore.obj
 0001:00016b17       ?PreTranslateInput@CWnd@@QAEHPAUtagMSG@@@Z 00417b17 f   nafxcw:wincore.obj
 0001:00016b4c       ?ContinueModal@CWnd@@UAEHXZ 00417b4c f   nafxcw:wincore.obj
 0001:00016b53       ?IsTracking@CFrameWnd@@QBEHXZ 00417b53 f   nafxcw:wincore.obj
 0001:00016b72       ?CreateControlContainer@CWnd@@MAEHPAPAVCOleControlContainer@@@Z 00417b72 f   nafxcw:wincore.obj
 0001:00016b8d       ?CreateControlSite@CWnd@@MAEHPAVCOleControlContainer@@PAPAVCOleControlSite@@IABU_GUID@@@Z 00417b8d f   nafxcw:wincore.obj
 0001:00016ba8       ?GetControlContainer@CWnd@@QAEPAVCOleControlContainer@@XZ 00417ba8 f   nafxcw:wincore.obj
 0001:00016bac       ?GetRuntimeClass@CWnd@@UBEPAUCRuntimeClass@@XZ 00417bac f   nafxcw:wincore.obj
 0001:00016bb2       ?GetNext@?$_CTypedPtrList@VCPtrList@@PAUCOleControlSiteOrWnd@@@@QAEAAPAUCOleControlSiteOrWnd@@AAPAU__POSITION@@@Z 00417bb2 f i nafxcw:wincore.obj
 0001:00016bbd       ?AllocSysString@?$ChTraitsCRT@D@ATL@@SAPA_WPBDH@Z 00417bbd f i nafxcw:wincore.obj
 0001:00016c02       ??$HashKey@I@@YGII@Z       00417c02 f i nafxcw:afxtoolbar.obj
 0001:00016c02       ??$HashKey@H@@YGIH@Z       00417c02 f i nafxcw:afxvslistbox.obj
 0001:00016c02       ??$HashKey@PAVCWnd@@@@YGIPAVCWnd@@@Z 00417c02 f i nafxcw:wincore.obj
 0001:00016c02       ??$HashKey@PAUHICON__@@@@YGIPAUHICON__@@@Z 00417c02 f i nafxcw:afxbasetabctrl.obj
 0001:00016c02       ??$HashKey@PAVCDocument@@@@YGIPAVCDocument@@@Z 00417c02 f i nafxcw:afxdatarecovery.obj
 0001:00016c31       ??$CompareElements@PAUHMENU__@@PAU1@@@YGHPBQAUHMENU__@@0@Z 00417c31 f i nafxcw:afxmenuhash.obj
 0001:00016c31       ??$CompareElements@PAUHWND__@@PAU1@@@YGHPBQAUHWND__@@0@Z 00417c31 f i nafxcw:afxvisualmanageroffice2007.obj
 0001:00016c31       ??$CompareElements@PAVCDocument@@PAV1@@@YGHPBQAVCDocument@@0@Z 00417c31 f i nafxcw:afxdatarecovery.obj
 0001:00016c31       ??$CompareElements@HH@@YGHPBH0@Z 00417c31 f i nafxcw:afxvslistbox.obj
 0001:00016c31       ??$CompareElements@PAUHICON__@@PAU1@@@YGHPBQAUHICON__@@0@Z 00417c31 f i nafxcw:afxbasetabctrl.obj
 0001:00016c31       ??$CompareElements@PAVIControlSiteFactory@@PAV1@@@YGHPBQAVIControlSiteFactory@@0@Z 00417c31 f i nafxcw:occmgr.obj
 0001:00016c31       ??$CompareElements@PAVCWnd@@PAV1@@@YGHPBQAVCWnd@@0@Z 00417c31 f i nafxcw:wincore.obj
 0001:00016c56       ?AfxCtxRegisterClassA@@YAGPBUtagWNDCLASSA@@@Z 00417c56 f i nafxcw:wincore.obj
 0001:00016ce1       ?AfxCtxGetClassInfoA@@YAHPAUHINSTANCE__@@PBDPAUtagWNDCLASSA@@@Z 00417ce1 f i nafxcw:wincore.obj
 0001:00016d6d       ?AfxCtxGetClassInfoExA@@YAHPAUHINSTANCE__@@PBDPAUtagWNDCLASSEXA@@@Z 00417d6d f i nafxcw:wincore.obj
 0001:00016df9       ?AfxCtxCreateWindowExA@@YAPAUHWND__@@KPBD0KHHHHPAU1@PAUHMENU__@@PAUHINSTANCE__@@PAX@Z 00417df9 f i nafxcw:wincore.obj
 0001:00016ea0       ?AfxCtxLoadLibraryA@@YAPAUHINSTANCE__@@PBD@Z 00417ea0 f i nafxcw:wincore.obj
 0001:00016f26       ?AfxCtxLoadLibraryW@@YAPAUHINSTANCE__@@PB_W@Z 00417f26 f i nafxcw:wincore.obj
 0001:00016fac       ?Init@CCriticalSection@@AAEJXZ 00417fac f i nafxcw:wincore.obj
 0001:00016fd4       ??0CCriticalSection@@QAE@XZ 00417fd4 f i nafxcw:wincore.obj
 0001:0001700f       ??1CCriticalSection@@UAE@XZ 0041800f f i nafxcw:wincore.obj
 0001:0001702c       ?Lock@CCriticalSection@@UAEHK@Z 0041802c f i nafxcw:wincore.obj
 0001:0001703c       ?Unlock@CCriticalSection@@UAEHXZ 0041803c f i nafxcw:wincore.obj
 0001:0001704a       ?AfxInvariantStrICmp@@YAHPBD0@Z 0041804a f i nafxcw:wincore.obj
 0001:0001706b       ?Lock@CInternalGlobalLock@@QAEXH@Z 0041806b f i nafxcw:wincore.obj
 0001:0001709f       ?Unlock@CInternalGlobalLock@@QAEXXZ 0041809f f i nafxcw:wincore.obj
 0001:000170bb       ??0CWnd@@QAE@XZ            004180bb f   nafxcw:wincore.obj
 0001:0001711d       ?_AfxPreInitDialog@@YGXPAVCWnd@@PAUtagRECT@@PAK@Z 0041811d f   nafxcw:wincore.obj
 0001:00017143       ?SetMenu@CWnd@@UAEHPAVCMenu@@@Z 00418143 f   nafxcw:wincore.obj
 0001:00017160       ?CreateEx@CWnd@@UAEHKPBD0KABUtagRECT@@PAV1@IPAX@Z 00418160 f   nafxcw:wincore.obj
 0001:000171ab       ?Create@CWnd@@UAEHPBD0KABUtagRECT@@PAV1@IPAUCCreateContext@@@Z 004181ab f   nafxcw:wincore.obj
 0001:000171fb       ?CancelToolTips@CWnd@@SGXH@Z 004181fb f   nafxcw:wincore.obj
 0001:00017251       ?TrackPopupMenu@CMenu@@QAEHIHHPAVCWnd@@PBUtagRECT@@@Z 00418251 f   nafxcw:wincore.obj
 0001:000172a7       ?_AfxFindPopupMenuFromID@@YGPAVCMenu@@PAV1@I@Z 004182a7 f   nafxcw:wincore.obj
 0001:0001731d       ?RegisterTouchWindow@CWnd@@QAEHHK@Z 0041831d f   nafxcw:wincore.obj
 0001:000173e2       ?OnTabletQuerySystemGestureStatus@CWnd@@IAEJIJ@Z 004183e2 f   nafxcw:wincore.obj
 0001:0001741e       ?OnTouchInputs@CWnd@@MAEHIPAUtagTOUCHINPUT@@@Z 0041841e f   nafxcw:wincore.obj
 0001:00017485       ?WinHelpInternal@CWnd@@UAEXKI@Z 00418485 f   nafxcw:wincore.obj
 0001:000174db       ?MessageBoxA@CWnd@@QAEHPBD0I@Z 004184db f   nafxcw:wincore.obj
 0001:00017512       ?SetScrollPos@CWnd@@QAEHHHH@Z 00418512 f   nafxcw:wincore.obj
 0001:00017544       ?GetScrollPos@CWnd@@QBEHH@Z 00418544 f   nafxcw:wincore.obj
 0001:00017570       ?SetScrollRange@CWnd@@QAEXHHHH@Z 00418570 f   nafxcw:wincore.obj
 0001:000175a5       ?GetScrollRange@CWnd@@QBEXHPAH0@Z 004185a5 f   nafxcw:wincore.obj
 0001:000175d7       ?EnableScrollBarCtrl@CWnd@@QAEXHH@Z 004185d7 f   nafxcw:wincore.obj
 0001:0001761d       ?GetScrollLimit@CWnd@@QAEHH@Z 0041861d f   nafxcw:wincore.obj
 0001:0001767a       ?ScrollWindow@CWnd@@QAEXHHPBUtagRECT@@0@Z 0041867a f   nafxcw:wincore.obj
 0001:00017744       ?OnActivateTopLevel@CWnd@@IAEJIJ@Z 00418744 f   nafxcw:wincore.obj
 0001:00017772       ?UpdateData@CWnd@@QAEHH@Z  00418772 f   nafxcw:wincore.obj
 0001:00017800       ?CenterWindow@CWnd@@QAEXPAV1@@Z 00418800 f   nafxcw:wincore.obj
 0001:000179f8       ?RunModalLoop@CWnd@@QAEHK@Z 004189f8 f   nafxcw:wincore.obj
 0001:00017b3c       ?EndModalLoop@CWnd@@UAEXH@Z 00418b3c f   nafxcw:wincore.obj
 0001:00017b66       ?OnDrawIconicThumbnailOrLivePreview@CWnd@@UAEXAAVCDC@@VCRect@@VCSize@@HAAH@Z 00418b66 f   nafxcw:wincore.obj
 0001:00017b8a       ?CreateObject@CWnd@@SGPAVCObject@@XZ 00418b8a f   nafxcw:wincore.obj
 0001:00017bb7       ?Construct@?$ConstructDestruct@VCWnd@@@@SGXPAVCObject@@@Z 00418bb7 f i nafxcw:wincore.obj
 0001:00017bde       ?RemoveKey@?$CMap@PAVCWnd@@PAV1@PAVCImageList@@PAV2@@@QAEHPAVCWnd@@@Z 00418bde f i nafxcw:afxmdiclientareawnd.obj
 0001:00017bde       ?RemoveKey@?$CMap@PAVCWnd@@PAV1@PAVCHwndRenderTarget@@PAV2@@@QAEHPAVCWnd@@@Z 00418bde f i nafxcw:wincore.obj
 0001:00017bde       ?RemoveKey@?$CMap@HHII@@QAEHH@Z 00418bde f i nafxcw:afxmousemanager.obj
 0001:00017c45       ??_G?$CMap@PAVCWnd@@PAV1@PAVCHwndRenderTarget@@PAV2@@@UAEPAXI@Z 00418c45 f i nafxcw:wincore.obj
 0001:00017c45       ??_E?$CMap@PAVCWnd@@PAV1@PAVCHwndRenderTarget@@PAV2@@@UAEPAXI@Z 00418c45 f i nafxcw:wincore.obj
 0001:00017c6c       ?GetProcAddress_InitCommonControls@CComCtlWrapper@@QAE?AUInitCommonControls_Type@1@XZ 00418c6c f i nafxcw:wincore.obj
 0001:00017c9b       ?_InitCommonControls@CComCtlWrapper@@QAEXXZ 00418c9b f i nafxcw:wincore.obj
 0001:00017d08       ?GetProcAddress_InitCommonControlsEx@CComCtlWrapper@@QAE?AUInitCommonControlsEx_Type@1@XZ 00418d08 f i nafxcw:wincore.obj
 0001:00017d37       ?_InitCommonControlsEx@CComCtlWrapper@@QAEHPAUtagINITCOMMONCONTROLSEX@@@Z 00418d37 f i nafxcw:wincore.obj
 0001:00017ddb       ??_ECCriticalSection@@UAEPAXI@Z 00418ddb f i nafxcw:wincore.obj
 0001:00017ddb       ??_GCCriticalSection@@UAEPAXI@Z 00418ddb f i nafxcw:wincore.obj
 0001:00017dfc       ??1CInternalGlobalLock@@QAE@XZ 00418dfc f i nafxcw:wincore.obj
 0001:00017e01       ?GetCurrentMessage@CWnd@@KGPBUtagMSG@@XZ 00418e01 f   nafxcw:wincore.obj
 0001:00017e3f       ?Default@CWnd@@IAEJXZ      00418e3f f   nafxcw:wincore.obj
 0001:00017e71       ?afxMapHWND@@YGPAVCHandleMap@@H@Z 00418e71 f   nafxcw:wincore.obj
 0001:00017ee5       ?FromHandle@CWnd@@SGPAV1@PAUHWND__@@@Z 00418ee5 f   nafxcw:wincore.obj
 0001:00017f11       ?FromHandlePermanent@CWnd@@SGPAV1@PAUHWND__@@@Z 00418f11 f   nafxcw:wincore.obj
 0001:00017f32       ?Attach@CWnd@@QAEHPAUHWND__@@@Z 00418f32 f   nafxcw:wincore.obj
 0001:00017f70       ?Detach@CWnd@@QAEPAUHWND__@@XZ 00418f70 f   nafxcw:wincore.obj
 0001:00017fa0       ?AfxUnhookWindowCreate@@YGHXZ 00418fa0 f   nafxcw:wincore.obj
 0001:00017fed       ?OnNcDestroy@CWnd@@IAEXXZ  00418fed f   nafxcw:wincore.obj
 0001:00018114       ?DestroyWindow@CWnd@@UAEHXZ 00419114 f   nafxcw:wincore.obj
 0001:00018173       ?OnNTCtlColor@CWnd@@IAEJIJ@Z 00419173 f   nafxcw:wincore.obj
 0001:000181c4       ?OnTouchMessage@CWnd@@IAEJIJ@Z 004191c4 f   nafxcw:wincore.obj
 0001:000182ce       ?OnGesture@CWnd@@IAEJIJ@Z  004192ce f   nafxcw:wincore.obj
 0001:0001853e       ?GetParentOwner@CWnd@@QBEPAV1@XZ 0041953e f   nafxcw:wincore.obj
 0001:00018584       ?GetSafeOwner@CWnd@@SGPAV1@PAV1@PAPAUHWND__@@@Z 00419584 f   nafxcw:wincore.obj
 0001:000185a6       ?GetDescendantWindow@CWnd@@SGPAV1@PAUHWND__@@HH@Z 004195a6 f   nafxcw:wincore.obj
 0001:0001861f       ?RepositionBars@CWnd@@QAEXIIIIPAUtagRECT@@PBU2@H@Z 0041961f f   nafxcw:wincore.obj
 0001:00018785       ?WalkPreTranslateTree@CWnd@@SGHPAUHWND__@@PAUtagMSG@@@Z 00419785 f   nafxcw:wincore.obj
 0001:000187cb       ?SendChildNotifyLastMsg@CWnd@@QAEHPAJ@Z 004197cb f   nafxcw:wincore.obj
 0001:00018806       ?OnSetFocus@CWnd@@IAEXPAV1@@Z 00419806 f   nafxcw:wincore.obj
 0001:0001882b       ?OnHelpInfo@CWnd@@IAEHPAUtagHELPINFO@@@Z 0041982b f   nafxcw:wincore.obj
 0001:00018897       ?OnGetObject@CWnd@@IAEJIJ@Z 00419897 f   nafxcw:wincore.obj
 0001:000188d5       ?OnVScroll@CWnd@@IAEXIIPAVCScrollBar@@@Z 004198d5 f   nafxcw:wincore.obj
 0001:000188d5       ?OnHScroll@CWnd@@IAEXIIPAVCScrollBar@@@Z 004198d5 f   nafxcw:wincore.obj
 0001:000188fb       ?OnPaint@CWnd@@IAEXXZ      004198fb f   nafxcw:wincore.obj
 0001:00018944       ?OnEnterIdle@CWnd@@IAEXIPAV1@@Z 00419944 f   nafxcw:wincore.obj
 0001:00018986       ?OnCtlColor@CWnd@@IAEPAUHBRUSH__@@PAVCDC@@PAV1@I@Z 00419986 f   nafxcw:wincore.obj
 0001:000189af       ?_AfxInitCommonControls@@YGJPAUtagINITCOMMONCONTROLSEX@@J@Z 004199af f   nafxcw:wincore.obj
 0001:00018a12       ?UnsubclassWindow@CWnd@@QAEPAUHWND__@@XZ 00419a12 f   nafxcw:wincore.obj
 0001:00018a3b       ?AllocSysString@?$CStringT@DV?$StrTraitMFC@DV?$ChTraitsCRT@D@ATL@@@@@ATL@@QBEPA_WXZ 00419a3b f i nafxcw:wincore.obj
 0001:00018a52       ?get_accParent@?$IAccessibleProxyImpl@VCAccessibleProxy@ATL@@@ATL@@UAGJPAPAUIDispatch@@@Z 00419a52 f i nafxcw:wincore.obj
 0001:00018a84       ?get_accChildCount@?$IAccessibleProxyImpl@VCAccessibleProxy@ATL@@@ATL@@UAGJPAJ@Z 00419a84 f i nafxcw:wincore.obj
 0001:00018ab6       ?get_accChild@?$IAccessibleProxyImpl@VCAccessibleProxy@ATL@@@ATL@@UAGJUtagVARIANT@@PAPAUIDispatch@@@Z 00419ab6 f i nafxcw:wincore.obj
 0001:00018af6       ?get_accName@?$IAccessibleProxyImpl@VCAccessibleProxy@ATL@@@ATL@@UAGJUtagVARIANT@@PAPA_W@Z 00419af6 f i nafxcw:wincore.obj
 0001:00018b36       ?get_accValue@?$IAccessibleProxyImpl@VCAccessibleProxy@ATL@@@ATL@@UAGJUtagVARIANT@@PAPA_W@Z 00419b36 f i nafxcw:wincore.obj
 0001:00018b76       ?get_accDescription@?$IAccessibleProxyImpl@VCAccessibleProxy@ATL@@@ATL@@UAGJUtagVARIANT@@PAPA_W@Z 00419b76 f i nafxcw:wincore.obj
 0001:00018bb6       ?get_accRole@?$IAccessibleProxyImpl@VCAccessibleProxy@ATL@@@ATL@@UAGJUtagVARIANT@@PAU3@@Z 00419bb6 f i nafxcw:wincore.obj
 0001:00018bf6       ?get_accState@?$IAccessibleProxyImpl@VCAccessibleProxy@ATL@@@ATL@@UAGJUtagVARIANT@@PAU3@@Z 00419bf6 f i nafxcw:wincore.obj
 0001:00018c36       ?get_accHelp@?$IAccessibleProxyImpl@VCAccessibleProxy@ATL@@@ATL@@UAGJUtagVARIANT@@PAPA_W@Z 00419c36 f i nafxcw:wincore.obj
 0001:00018c76       ?get_accHelpTopic@?$IAccessibleProxyImpl@VCAccessibleProxy@ATL@@@ATL@@UAGJPAPA_WUtagVARIANT@@PAJ@Z 00419c76 f i nafxcw:wincore.obj
 0001:00018cbf       ?get_accKeyboardShortcut@?$IAccessibleProxyImpl@VCAccessibleProxy@ATL@@@ATL@@UAGJUtagVARIANT@@PAPA_W@Z 00419cbf f i nafxcw:wincore.obj
 0001:00018cff       ?get_accFocus@?$IAccessibleProxyImpl@VCAccessibleProxy@ATL@@@ATL@@UAGJPAUtagVARIANT@@@Z 00419cff f i nafxcw:wincore.obj
 0001:00018d31       ?get_accSelection@?$IAccessibleProxyImpl@VCAccessibleProxy@ATL@@@ATL@@UAGJPAUtagVARIANT@@@Z 00419d31 f i nafxcw:wincore.obj
 0001:00018d63       ?get_accDefaultAction@?$IAccessibleProxyImpl@VCAccessibleProxy@ATL@@@ATL@@UAGJUtagVARIANT@@PAPA_W@Z 00419d63 f i nafxcw:wincore.obj
 0001:00018da3       ?accSelect@?$IAccessibleProxyImpl@VCAccessibleProxy@ATL@@@ATL@@UAGJJUtagVARIANT@@@Z 00419da3 f i nafxcw:wincore.obj
 0001:00018dd6       ?accLocation@?$IAccessibleProxyImpl@VCAccessibleProxy@ATL@@@ATL@@UAGJPAJ000UtagVARIANT@@@Z 00419dd6 f i nafxcw:wincore.obj
 0001:00018e2f       ?accNavigate@?$IAccessibleProxyImpl@VCAccessibleProxy@ATL@@@ATL@@UAGJJUtagVARIANT@@PAU3@@Z 00419e2f f i nafxcw:wincore.obj
 0001:00018e72       ?accHitTest@?$IAccessibleProxyImpl@VCAccessibleProxy@ATL@@@ATL@@UAGJJJPAUtagVARIANT@@@Z 00419e72 f i nafxcw:wincore.obj
 0001:00018eaa       ?accDoDefaultAction@?$IAccessibleProxyImpl@VCAccessibleProxy@ATL@@@ATL@@UAGJUtagVARIANT@@@Z 00419eaa f i nafxcw:wincore.obj
 0001:00018eda       ?put_accName@?$IAccessibleProxyImpl@VCAccessibleProxy@ATL@@@ATL@@UAGJUtagVARIANT@@PA_W@Z 00419eda f i nafxcw:wincore.obj
 0001:00018eda       ?put_accValue@?$IAccessibleProxyImpl@VCAccessibleProxy@ATL@@@ATL@@UAGJUtagVARIANT@@PA_W@Z 00419eda f i nafxcw:wincore.obj
 0001:00018ef7       ?SetServer@?$IAccessibleProxyImpl@VCAccessibleProxy@ATL@@@ATL@@UAGJPAUIAccessible@@PAUIAccessibleServer@@@Z 00419ef7 f i nafxcw:wincore.obj
 0001:00018f11       ?Invoke@?$IAccessibleProxyImpl@VCAccessibleProxy@ATL@@@ATL@@UAGJJABU_GUID@@KGPAUtagDISPPARAMS@@PAUtagVARIANT@@PAUtagEXCEPINFO@@PAI@Z 00419f11 f i nafxcw:wincore.obj
 0001:00018f4b       ?GetIDsOfNames@?$IAccessibleProxyImpl@VCAccessibleProxy@ATL@@@ATL@@UAGJABU_GUID@@PAPA_WIKPAJ@Z 00419f4b f i nafxcw:wincore.obj
 0001:00018f7c       ?GetTypeInfoCount@?$IAccessibleProxyImpl@VCAccessibleProxy@ATL@@@ATL@@UAGJPAI@Z 00419f7c f i nafxcw:wincore.obj
 0001:00018fa1       ?GetTypeInfo@?$IAccessibleProxyImpl@VCAccessibleProxy@ATL@@@ATL@@UAGJIKPAPAUITypeInfo@@@Z 00419fa1 f i nafxcw:wincore.obj
 0001:00018fcc       ?CreateObject@?$CProcessLocal@V_AFX_HTMLHELP_STATE@@@@SGPAVCNoTrackObject@@XZ 00419fcc f i nafxcw:wincore.obj
 0001:00018fe1       ?_AfxPostInitDialog@@YGXPAVCWnd@@ABUtagRECT@@K@Z 00419fe1 f   nafxcw:wincore.obj
 0001:00019082       ?AfxCallWndProc@@YGJPAVCWnd@@PAUHWND__@@IIJ@Z 0041a082 f   nafxcw:wincore.obj
 0001:00019187       ?AfxWndProc@@YGJPAUHWND__@@IIJ@Z 0041a187 f   nafxcw:wincore.obj
 0001:000191d4       ??1CWnd@@UAE@XZ            0041a1d4 f   nafxcw:wincore.obj
 0001:00019265       ?OnDestroy@CWnd@@IAEXXZ    0041a265 f   nafxcw:wincore.obj
 0001:000192fa       ?OnCharToItem@CWnd@@IAEHIPAVCListBox@@I@Z 0041a2fa f   nafxcw:wincore.obj
 0001:000192fa       ?OnVKeyToItem@CWnd@@IAEHIPAVCListBox@@I@Z 0041a2fa f   nafxcw:wincore.obj
 0001:00019327       ?OnMeasureItem@CWnd@@IAEXHPAUtagMEASUREITEMSTRUCT@@@Z 0041a327 f   nafxcw:wincore.obj
 0001:000193b0       ?GetParentFrame@CWnd@@QBEPAVCFrameWnd@@XZ 0041a3b0 f   nafxcw:wincore.obj
 0001:000193ef       ?GetTopLevelFrame@CWnd@@QBEPAVCFrameWnd@@XZ 0041a3ef f   nafxcw:wincore.obj
 0001:00019430       ?SendMessageToDescendants@CWnd@@SGXPAUHWND__@@IIJHH@Z 0041a430 f   nafxcw:wincore.obj
 0001:000194af       ?ReflectLastMsg@CWnd@@KGHPAUHWND__@@PAJ@Z 0041a4af f   nafxcw:wincore.obj
 0001:0001954f       ?OnParentNotify@CWnd@@IAEXIJ@Z 0041a54f f   nafxcw:wincore.obj
 0001:0001957f       ?OnDragList@CWnd@@IAEJIJ@Z 0041a57f f   nafxcw:wincore.obj
 0001:000195ab       ?UpdateDialogControls@CWnd@@QAEXPAVCCmdTarget@@H@Z 0041a5ab f   nafxcw:wincore.obj
 0001:000196b5       ?SubclassWindow@CWnd@@QAEHPAUHWND__@@@Z 0041a6b5 f   nafxcw:wincore.obj
 0001:000196fb       ?SubclassDlgItem@CWnd@@QAEHIPAV1@@Z 0041a6fb f   nafxcw:wincore.obj
 0001:00019769       ?GetRenderTarget@CWnd@@QAEPAVCHwndRenderTarget@@XZ 0041a769 f   nafxcw:wincore.obj
 0001:000197a6       ?DoD2DPaint@CWnd@@IAEHXZ   0041a7a6 f   nafxcw:wincore.obj
 0001:0001983b       ??0?$CMFCComObject@VCAccessibleProxy@ATL@@@@QAE@PAX@Z 0041a83b f i nafxcw:wincore.obj
 0001:00019868       _InlineIsEqualGUID         0041a868 f i nafxcw:wincore.obj
 0001:0001989a       ?FinalRelease@CAccessibleProxy@ATL@@QAEJXZ 0041a89a f i nafxcw:wincore.obj
 0001:000198af       ?InlineIsEqualUnknown@ATL@@YGHABU_GUID@@@Z 0041a8af f i nafxcw:wincore.obj
 0001:000198df       ?AtlInternalQueryInterface@ATL@@YGJPAXPBU_ATL_INTMAP_ENTRY@1@ABU_GUID@@PAPAX@Z 0041a8df f i nafxcw:wincore.obj
 0001:00019982       ??1?$CMFCComObject@VCAccessibleProxy@ATL@@@@UAE@XZ 0041a982 f i nafxcw:wincore.obj
 0001:000199a7       ?AddRef@?$CMFCComObject@VCAccessibleProxy@ATL@@@@UAGKXZ 0041a9a7 f i nafxcw:wincore.obj
 0001:000199b9       ?Release@?$CMFCComObject@VCAccessibleProxy@ATL@@@@UAGKXZ 0041a9b9 f i nafxcw:wincore.obj
 0001:000199dc       ?QueryInterface@?$CMFCComObject@VCAccessibleProxy@ATL@@@@UAGJABU_GUID@@PAPAX@Z 0041a9dc f i nafxcw:wincore.obj
 0001:000199f8       ??_G?$CMFCComObject@VCAccessibleProxy@ATL@@@@UAEPAXI@Z 0041a9f8 f i nafxcw:wincore.obj
 0001:000199f8       ??_E?$CMFCComObject@VCAccessibleProxy@ATL@@@@UAEPAXI@Z 0041a9f8 f i nafxcw:wincore.obj
 0001:00019a19       ?Release@?$CMFCComObject@VCAccessibleProxy@ATL@@@@WBA@AGKXZ 0041aa19 f i nafxcw:wincore.obj
 0001:00019a23       ?QueryInterface@?$CMFCComObject@VCAccessibleProxy@ATL@@@@W3AGJABU_GUID@@PAPAX@Z 0041aa23 f i nafxcw:wincore.obj
 0001:00019a2d       ?AddRef@?$CMFCComObject@VCAccessibleProxy@ATL@@@@WBA@AGKXZ 0041aa2d f i nafxcw:wincore.obj
 0001:00019a37       ?QueryInterface@?$CMFCComObject@VCAccessibleProxy@ATL@@@@WBA@AGJABU_GUID@@PAPAX@Z 0041aa37 f i nafxcw:wincore.obj
 0001:00019a41       ?Release@?$CMFCComObject@VCAccessibleProxy@ATL@@@@W3AGKXZ 0041aa41 f i nafxcw:wincore.obj
 0001:00019a4b       ?AddRef@?$CMFCComObject@VCAccessibleProxy@ATL@@@@W3AGKXZ 0041aa4b f i nafxcw:wincore.obj
 0001:00019a55       ??_ECWnd@@UAEPAXI@Z        0041aa55 f i nafxcw:wincore.obj
 0001:00019a55       ??_GCWnd@@UAEPAXI@Z        0041aa55 f i nafxcw:wincore.obj
 0001:00019a76       ?GetWindowTextA@CWnd@@QBEXAAV?$CStringT@DV?$StrTraitMFC@DV?$ChTraitsCRT@D@ATL@@@@@ATL@@@Z 0041aa76 f   nafxcw:wincore.obj
 0001:00019ac0       ?OnDrawItem@CWnd@@IAEXHPAUtagDRAWITEMSTRUCT@@@Z 0041aac0 f   nafxcw:wincore.obj
 0001:00019b02       ?OnCompareItem@CWnd@@IAEHHPAUtagCOMPAREITEMSTRUCT@@@Z 0041ab02 f   nafxcw:wincore.obj
 0001:00019b2e       ?OnDeleteItem@CWnd@@IAEXHPAUtagDELETEITEMSTRUCT@@@Z 0041ab2e f   nafxcw:wincore.obj
 0001:00019b53       ?AfxHtmlHelp@@YGPAUHWND__@@PAU1@PBDIK@Z 0041ab53 f   nafxcw:wincore.obj
 0001:00019bd3       ?OnCommand@CWnd@@MAEHIJ@Z  0041abd3 f   nafxcw:wincore.obj
 0001:00019c6c       ?OnNotify@CWnd@@MAEHIJPAJ@Z 0041ac6c f   nafxcw:wincore.obj
 0001:00019cee       ?AfxGetParentOwner@@YGPAUHWND__@@PAU1@@Z 0041acee f   nafxcw:wincore.obj
 0001:00019d38       ?GetTopLevelParent@CWnd@@QBEPAV1@XZ 0041ad38 f   nafxcw:wincore.obj
 0001:00019d60       ?HandleFloatingSysCommand@CWnd@@QAEHIJ@Z 0041ad60 f   nafxcw:wincore.obj
 0001:00019e20       ?OnSysColorChange@CWnd@@IAEXXZ 0041ae20 f   nafxcw:wincore.obj
 0001:00019e68       ?OnDevModeChange@CWnd@@IAEXPAD@Z 0041ae68 f   nafxcw:wincore.obj
 0001:00019eb8       ?OnDisplayChange@CWnd@@IAEJIJ@Z 0041aeb8 f   nafxcw:wincore.obj
 0001:00019f03       ?CreateInstance@?$CMFCComObject@VCAccessibleProxy@ATL@@@@SGJPAPAV1@@Z 0041af03 f i nafxcw:wincore.obj
 0001:00019f75       ?_AfxHandleActivate@@YGXPAVCWnd@@I0@Z 0041af75 f   nafxcw:wincore.obj
 0001:00019fed       ?_AfxHandleSetCursor@@YGHPAVCWnd@@II@Z 0041afed f   nafxcw:wincore.obj
 0001:0001a065       ?_AfxActivationWndProc@@YGJPAUHWND__@@IIJ@Z 0041b065 f   nafxcw:wincore.obj
 0001:0001a1cc       ?_AfxCbtFilterHook@@YGJHIJ@Z 0041b1cc f   nafxcw:wincore.obj
 0001:0001a413       ?AfxHookWindowCreate@@YGXPAVCWnd@@@Z 0041b413 f   nafxcw:wincore.obj
 0001:0001a46d       ?CreateEx@CWnd@@UAEHKPBD0KHHHHPAUHWND__@@PAUHMENU__@@PAX@Z 0041b46d f   nafxcw:wincore.obj
 0001:0001a54c       ?PrepareForHelp@CWnd@@QAEXXZ 0041b54c f   nafxcw:wincore.obj
 0001:0001a5ca       ?OnWndMsg@CWnd@@MAEHIIJPAJ@Z 0041b5ca f   nafxcw:wincore.obj
 0001:0001ad5a       ?IsTopParentActive@CWnd@@QBEHXZ 0041bd5a f   nafxcw:wincore.obj
 0001:0001ad97       ?ActivateTopParent@CWnd@@QAEXXZ 0041bd97 f   nafxcw:wincore.obj
 0001:0001addd       ?ReflectChildNotify@CWnd@@IAEHIIJPAJ@Z 0041bddd f   nafxcw:wincore.obj
 0001:0001aec4       ?OnSettingChange@CWnd@@IAEXIPBD@Z 0041bec4 f   nafxcw:wincore.obj
 0001:0001aef0       ?CreateAccessibleProxy@CWnd@@UAEJIJPAJ@Z 0041bef0 f   nafxcw:wincore.obj
 0001:0001afaf       ?WinHelpA@CWnd@@UAEXKI@Z   0041bfaf f   nafxcw:wincore.obj
 0001:0001b024       ?HtmlHelpA@CWnd@@UAEXKI@Z  0041c024 f   nafxcw:wincore.obj
 0001:0001b098       ?GetMessageMap@CWnd@@MBEPBUAFX_MSGMAP@@XZ 0041c098 f   nafxcw:wincore.obj
 0001:0001b098       ?GetThisMessageMap@CWnd@@KGPBUAFX_MSGMAP@@XZ 0041c098 f   nafxcw:wincore.obj
 0001:0001b09e       ?OnChildNotify@CWnd@@MAEHIIJPAJ@Z 0041c09e f   nafxcw:wincore.obj
 0001:0001b0eb       ?GetDlgItemTextA@CWnd@@QBEHHAAV?$CStringT@DV?$StrTraitMFC@DV?$ChTraitsCRT@D@ATL@@@@@ATL@@@Z 0041c0eb f   nafxcw:wincore.obj
 0001:0001b15f       ?AfxRegisterClass@@YGHPAUtagWNDCLASSA@@@Z 0041c15f f   nafxcw:wincore.obj
 0001:0001b1ed       ?AfxRegisterWndClass@@YGPBDIPAUHICON__@@PAUHBRUSH__@@0@Z 0041c1ed f   nafxcw:wincore.obj
 0001:0001b2f0       ?ExecuteDlgInit@CWnd@@QAEHPAX@Z 0041c2f0 f   nafxcw:wincore.obj
 0001:0001b47c       ?_AfxRegisterWithIcon@@YGHPAUtagWNDCLASSA@@PBDI@Z 0041c47c f   nafxcw:wincore.obj
 0001:0001b4c0       ?AfxEndDeferRegisterClass@@YGHJ@Z 0041c4c0 f   nafxcw:wincore.obj
 0001:0001b7b0       ?PreCreateWindow@CWnd@@UAEHAAUtagCREATESTRUCTA@@@Z 0041c7b0 f   nafxcw:wincore.obj
 0001:0001b7eb       ?ExecuteDlgInit@CWnd@@QAEHPBD@Z 0041c7eb f   nafxcw:wincore.obj
 0001:0001b855       ?GetRuntimeClass@CUIntArray@@UBEPAUCRuntimeClass@@XZ 0041c855 f   nafxcw:array_u.obj
 0001:0001b85b       ??0CUIntArray@@QAE@XZ      0041c85b f   nafxcw:array_u.obj
 0001:0001b872       ??1CUIntArray@@UAE@XZ      0041c872 f   nafxcw:array_u.obj
 0001:0001b882       ??_GCUIntArray@@UAEPAXI@Z  0041c882 f i nafxcw:array_u.obj
 0001:0001b882       ??_ECUIntArray@@UAEPAXI@Z  0041c882 f i nafxcw:array_u.obj
 0001:0001b8a3       ??0OLE_DATA@@QAE@XZ        0041c8a3 f   nafxcw:oleinit.obj
 0001:0001b92b       ?AfxOleTerm@@YGXH@Z        0041c92b f   nafxcw:oleinit.obj
 0001:0001b987       ?AfxOleTermOrFreeLib@@YGXHH@Z 0041c987 f   nafxcw:oleinit.obj
 0001:0001b9da       ?AfxOleInit@@YGHXZ         0041c9da f   nafxcw:oleinit.obj
 0001:0001ba6e       ?GetRuntimeClass@CObArray@@UBEPAUCRuntimeClass@@XZ 0041ca6e f   nafxcw:array_o.obj
 0001:0001ba74       ??0CObArray@@QAE@XZ        0041ca74 f   nafxcw:array_o.obj
 0001:0001ba8b       ??1CObArray@@UAE@XZ        0041ca8b f   nafxcw:array_o.obj
 0001:0001ba9b       ?Serialize@CObArray@@UAEXAAVCArchive@@@Z 0041ca9b f   nafxcw:array_o.obj
 0001:0001bb0c       ?CreateObject@CObArray@@SGPAVCObject@@XZ 0041cb0c f   nafxcw:array_o.obj
 0001:0001bb30       ??_G?$CTypedPtrArray@VCObArray@@PAVCBitmap@@@@UAEPAXI@Z 0041cb30 f i nafxcw:winfrm.obj
 0001:0001bb30       ??_ECObArray@@UAEPAXI@Z    0041cb30 f i nafxcw:array_o.obj
 0001:0001bb30       ??_GCObArray@@UAEPAXI@Z    0041cb30 f i nafxcw:array_o.obj
 0001:0001bb30       ??_G?$CTypedPtrArray@VCObArray@@PAVCMFCCaptionButton@@@@UAEPAXI@Z 0041cb30 f i nafxcw:afxdockablepane.obj
 0001:0001bb30       ??_E?$CTypedPtrArray@VCObArray@@PAVCMFCCaptionButton@@@@UAEPAXI@Z 0041cb30 f i nafxcw:afxdockablepane.obj
 0001:0001bb30       ??_E?$CTypedPtrArray@VCObArray@@PAVCBitmap@@@@UAEPAXI@Z 0041cb30 f i nafxcw:winfrm.obj
 0001:0001bb51       ?Empty@COleDataSource@@QAEXXZ 0041cb51 f   nafxcw:oledobj2.obj
 0001:0001bba2       ?Lookup@COleDataSource@@IBEPAUAFX_DATACACHE_ENTRY@@PAUtagFORMATETC@@W4tagDATADIR@@@Z 0041cba2 f   nafxcw:oledobj2.obj
 0001:0001bc62       ?OnRenderData@COleDataSource@@UAEHPAUtagFORMATETC@@PAUtagSTGMEDIUM@@@Z 0041cc62 f   nafxcw:oledobj2.obj
 0001:0001bd9d       ?GetInterfaceMap@CEnumFormatEtc@@MBEPBUAFX_INTERFACEMAP@@XZ 0041cd9d f   nafxcw:oledobj2.obj
 0001:0001bda3       ??0CEnumFormatEtc@@QAE@XZ  0041cda3 f   nafxcw:oledobj2.obj
 0001:0001bdc3       ??1CEnumFormatEtc@@UAE@XZ  0041cdc3 f   nafxcw:oledobj2.obj
 0001:0001bdfd       ?OnNext@CEnumFormatEtc@@MAEHPAX@Z 0041cdfd f   nafxcw:oledobj2.obj
 0001:0001be31       ?GetInterfaceMap@COleDataSource@@MBEPBUAFX_INTERFACEMAP@@XZ 0041ce31 f   nafxcw:oledobj2.obj
 0001:0001be37       ?AddRef@XDataObject@COleDataSource@@UAGKXZ 0041ce37 f   nafxcw:oledobj2.obj
 0001:0001be4b       ?Release@XDataObject@COleDataSource@@UAGKXZ 0041ce4b f   nafxcw:oledobj2.obj
 0001:0001be5f       ?QueryInterface@XDataObject@COleDataSource@@UAGJABU_GUID@@PAPAX@Z 0041ce5f f   nafxcw:oledobj2.obj
 0001:0001be79       ?QueryGetData@XDataObject@COleDataSource@@UAGJPAUtagFORMATETC@@@Z 0041ce79 f   nafxcw:oledobj2.obj
 0001:0001bead       ?GetCanonicalFormatEtc@XDataObject@COleDataSource@@UAGJPAUtagFORMATETC@@0@Z 0041cead f   nafxcw:oledobj2.obj
 0001:0001beb5       ?DAdvise@XDataObject@COleDataSource@@UAGJPAUtagFORMATETC@@KPAUIAdviseSink@@PAK@Z 0041ceb5 f   nafxcw:oledobj2.obj
 0001:0001bec9       ?DUnadvise@XDataObject@COleDataSource@@UAGJK@Z 0041cec9 f   nafxcw:oledobj2.obj
 0001:0001bed1       ?EnumDAdvise@XDataObject@COleDataSource@@UAGJPAPAUIEnumSTATDATA@@@Z 0041ced1 f   nafxcw:oledobj2.obj
 0001:0001bee5       ?CreateObject@?$CProcessLocal@V_AFX_OLE_STATE@@@@SGPAVCNoTrackObject@@XZ 0041cee5 f i nafxcw:oledobj2.obj
 0001:0001bf11       ?GetCacheEntry@COleDataSource@@IAEPAUAFX_DATACACHE_ENTRY@@PAUtagFORMATETC@@W4tagDATADIR@@@Z 0041cf11 f   nafxcw:oledobj2.obj
 0001:0001bfc6       ?CacheGlobalData@COleDataSource@@QAEXGPAXPAUtagFORMATETC@@@Z 0041cfc6 f   nafxcw:oledobj2.obj
 0001:0001c003       ??_ECEnumFormatEtc@@UAEPAXI@Z 0041d003 f i nafxcw:oledobj2.obj
 0001:0001c003       ??_GCEnumFormatEtc@@UAEPAXI@Z 0041d003 f i nafxcw:oledobj2.obj
 0001:0001c024       ?AddFormat@CEnumFormatEtc@@QAEXPBUtagFORMATETC@@@Z 0041d024 f   nafxcw:oledobj2.obj
 0001:0001c0ac       ?GetData@XDataObject@COleDataSource@@UAGJPAUtagFORMATETC@@PAUtagSTGMEDIUM@@@Z 0041d0ac f   nafxcw:oledobj2.obj
 0001:0001c1b0       ?GetDataHere@XDataObject@COleDataSource@@UAGJPAUtagFORMATETC@@PAUtagSTGMEDIUM@@@Z 0041d1b0 f   nafxcw:oledobj2.obj
 0001:0001c2a5       ?SetData@XDataObject@COleDataSource@@UAGJPAUtagFORMATETC@@PAUtagSTGMEDIUM@@H@Z 0041d2a5 f   nafxcw:oledobj2.obj
 0001:0001c35f       ?EnumFormatEtc@XDataObject@COleDataSource@@UAGJKPAPAUIEnumFORMATETC@@@Z 0041d35f f   nafxcw:oledobj2.obj
 0001:0001c400       ??0COleDataSource@@QAE@XZ  0041d400 f   nafxcw:oledobj2.obj
 0001:0001c42d       ??1COleDataSource@@UAE@XZ  0041d42d f   nafxcw:oledobj2.obj
 0001:0001c488       ?GetClipboardOwner@COleDataSource@@SGPAV1@XZ 0041d488 f   nafxcw:oledobj2.obj
 0001:0001c4d0       ??_GCOleDataSource@@UAEPAXI@Z 0041d4d0 f i nafxcw:oledobj2.obj
 0001:0001c4d0       ??_ECOleDataSource@@UAEPAXI@Z 0041d4d0 f i nafxcw:oledobj2.obj
 0001:0001c4f1       ?FlushClipboard@COleDataSource@@SGXXZ 0041d4f1 f   nafxcw:oledobj2.obj
 0001:0001c501       ?OnAmbientProperty@CWnd@@UAEHPAVCOleControlSite@@JPAUtagVARIANT@@@Z 0041d501 f   nafxcw:winocc.obj
 0001:0001c50f       ?GetControlUnknown@CWnd@@QAEPAUIUnknown@@XZ 0041d50f f   nafxcw:winocc.obj
 0001:0001c51b       ?PaintWindowlessControls@CWnd@@QAEHPAVCDC@@@Z 0041d51b f   nafxcw:winocc.obj
 0001:0001c538       ?GetOleControlSite@CWnd@@QBEPAVCOleControlSite@@I@Z 0041d538 f   nafxcw:winocc.obj
 0001:0001c552       ?CheckDlgButton@CWnd@@QAEXHI@Z 0041d552 f   nafxcw:winocc.obj
 0001:0001c579       ?GetDlgItem@CWnd@@QBEPAV1@H@Z 0041d579 f   nafxcw:winocc.obj
 0001:0001c5a3       ?GetDlgItem@CWnd@@QBEXHPAPAUHWND__@@@Z 0041d5a3 f   nafxcw:winocc.obj
 0001:0001c5cc       ?IsDialogMessageA@CWnd@@QAEHPAUtagMSG@@@Z 0041d5cc f   nafxcw:winocc.obj
 0001:0001c603       ?GetStyle@CWnd@@QBEKXZ     0041d603 f   nafxcw:winocc.obj
 0001:0001c61d       ?GetExStyle@CWnd@@QBEKXZ   0041d61d f   nafxcw:winocc.obj
 0001:0001c637       ?ModifyStyle@CWnd@@QAEHKKI@Z 0041d637 f   nafxcw:winocc.obj
 0001:0001c663       ?ModifyStyleEx@CWnd@@QAEHKKI@Z 0041d663 f   nafxcw:winocc.obj
 0001:0001c68f       ?SetWindowTextA@CWnd@@QAEXPBD@Z 0041d68f f   nafxcw:winocc.obj
 0001:0001c6d6       ?GetDlgCtrlID@CWnd@@QBEHXZ 0041d6d6 f   nafxcw:winocc.obj
 0001:0001c6f1       ?SetDlgCtrlID@CWnd@@QAEHH@Z 0041d6f1 f   nafxcw:winocc.obj
 0001:0001c71a       ?MoveWindow@CWnd@@QAEXHHHHH@Z 0041d71a f   nafxcw:winocc.obj
 0001:0001c75a       ?ShowWindow@CWnd@@QAEHH@Z  0041d75a f   nafxcw:winocc.obj
 0001:0001c781       ?IsWindowEnabled@CWnd@@QBEHXZ 0041d781 f   nafxcw:winocc.obj
 0001:0001c79c       ?EnableWindow@CWnd@@QAEHH@Z 0041d79c f   nafxcw:winocc.obj
 0001:0001c7c3       ?InvokeHelper@CWnd@@QAAXJGGPAXPBEZZ 0041d7c3 f   nafxcw:winocc.obj
 0001:0001c7ec       ?GetProperty@CWnd@@QBEXJGPAX@Z 0041d7ec f   nafxcw:winocc.obj
 0001:0001c811       ?AttachControlSite@CWnd@@QAEXPAV1@I@Z 0041d811 f   nafxcw:winocc.obj
 0001:0001c83a       ?GetStyle@COleControlSiteOrWnd@@QBEKXZ 0041d83a f   nafxcw:winocc.obj
 0001:0001c853       ?IsDisabled@CDlgGroupRadioButtonIterator@@SA_NPBUCOleControlSiteOrWnd@@@Z 0041d853 f i nafxcw:winocc.obj
 0001:0001c89c       ?AttachControlSite@COleControlContainer@@UAEXPAVCWnd@@I@Z 0041d89c f   nafxcw:winocc.obj
 0001:0001c8df       ??0?$CTypedPtrListIterator@VCPtrList@@PAUCOleControlSiteOrWnd@@@@QAE@ABV0@@Z 0041d8df f i nafxcw:winocc.obj
 0001:0001c900       ?GetNilString@CFixedStringMgr@ATL@@UAEPAUCStringData@2@XZ 0041d900 f i nafxcw:olevar.obj
 0001:0001c900       ?GetTailPosition@CPtrList@@QBEPAU__POSITION@@XZ 0041d900 f i nafxcw:winocc.obj
 0001:0001c900       ?IsVisible@CDockingPanesRow@@UBEHXZ 0041d900 f i nafxcw:afxdockingpanesrow.obj
 0001:0001c900       ?IsVisible@CMFCAutoHideButton@@UBEHXZ 0041d900 f i nafxcw:afxautohidebutton.obj
 0001:0001c904       ?GetNext@CPtrList@@QBEPBXAAPAU__POSITION@@@Z 0041d904 f i nafxcw:winocc.obj
 0001:0001c922       ?GetPrev@CPtrList@@QBEPBXAAPAU__POSITION@@@Z 0041d922 f i nafxcw:winocc.obj
 0001:0001c941       ?SetWindowPos@CWnd@@QAEHPBV1@HHHHI@Z 0041d941 f   nafxcw:winocc.obj
 0001:0001c97f       ?SetFocus@CWnd@@QAEPAV1@XZ 0041d97f f   nafxcw:winocc.obj
 0001:0001c9ea       ?AttachControlSite@CWnd@@IAEXPAVCHandleMap@@@Z 0041d9ea f   nafxcw:winocc.obj
 0001:0001ca2e       ?GetPrev@?$_CTypedPtrList@VCPtrList@@PAUCOleControlSiteOrWnd@@@@QAEAAPAUCOleControlSiteOrWnd@@AAPAU__POSITION@@@Z 0041da2e f i nafxcw:winocc.obj
 0001:0001ca39       ?GetNextDlgTabItem@CWnd@@QBEPAUCOleControlSiteOrWnd@@PAU2@H@Z 0041da39 f   nafxcw:winocc.obj
 0001:0001cb7f       ?RemoveRadioCheckFromGroup@CWnd@@QBEXPBUCOleControlSiteOrWnd@@@Z 0041db7f f   nafxcw:winocc.obj
 0001:0001cc73       ?Skip@?$CTypedPtrListIterator@VCPtrList@@PAUCOleControlSiteOrWnd@@@@QBE?AV1@H@Z 0041dc73 f i nafxcw:winocc.obj
 0001:0001ccb5       ?GetWindowTextA@CWnd@@QBEHPADH@Z 0041dcb5 f   nafxcw:winocc.obj
 0001:0001cd34       ?GetFirstButton@CDlgGroupRadioButtonIterator@@QBE?AVCDlgControlIterator@@XZ 0041dd34 f i nafxcw:winocc.obj
 0001:0001cda5       ?GetLastButton@CDlgGroupRadioButtonIterator@@QBE?AVCDlgControlIterator@@XZ 0041dda5 f i nafxcw:winocc.obj
 0001:0001ce0c       ?FindSiteOrWnd@CWnd@@QBEPAU__POSITION@@PBUCOleControlSiteOrWnd@@@Z 0041de0c f   nafxcw:winocc.obj
 0001:0001ce57       ?FindSiteOrWndWithFocus@CWnd@@QBEPAU__POSITION@@XZ 0041de57 f   nafxcw:winocc.obj
 0001:0001cecb       ?MoveNext@CDlgGroupRadioButtonIterator@@QAEXXZ 0041decb f i nafxcw:winocc.obj
 0001:0001cf59       ?MovePrev@CDlgGroupRadioButtonIterator@@QAEXXZ 0041df59 f i nafxcw:winocc.obj
 0001:0001cfe4       ?GetPrevDlgGroupItem@CWnd@@QBEPAUCOleControlSiteOrWnd@@PAU2@@Z 0041dfe4 f   nafxcw:winocc.obj
 0001:0001d034       ?GetNextDlgGroupItem@CWnd@@QBEPAUCOleControlSiteOrWnd@@PAU2@@Z 0041e034 f   nafxcw:winocc.obj
 0001:0001d084       _IsEqualGUID               0041e084 f i nafxcw:cmdtarg.obj
 0001:0001d0a0       ?_AfxDispatchCmdMsg@@YGHPAVCCmdTarget@@IHP81@AEXXZPAXIPAUAFX_CMDHANDLERINFO@@@Z 0041e0a0 f   nafxcw:cmdtarg.obj
 0001:0001d1d8       ?OnCmdMsg@CCmdTarget@@UAEHIHPAXPAUAFX_CMDHANDLERINFO@@@Z 0041e1d8 f   nafxcw:cmdtarg.obj
 0001:0001d2f6       ?GetTypeLib@CCmdTarget@@UAEJKPAPAUITypeLib@@@Z 0041e2f6 f   nafxcw:cmdtarg.obj
 0001:0001d2fe       ?GetThisMessageMap@CCmdTarget@@KGPBUAFX_MSGMAP@@XZ 0041e2fe f   nafxcw:cmdtarg.obj
 0001:0001d2fe       ?GetMessageMap@CCmdTarget@@MBEPBUAFX_MSGMAP@@XZ 0041e2fe f   nafxcw:cmdtarg.obj
 0001:0001d304       ?GetDispatchMap@CCmdTarget@@MBEPBUAFX_DISPMAP@@XZ 0041e304 f   nafxcw:cmdtarg.obj
 0001:0001d30a       ?GetEventSinkMap@CCmdTarget@@MBEPBUAFX_EVENTSINKMAP@@XZ 0041e30a f   nafxcw:cmdtarg.obj
 0001:0001d310       ?GetInterfaceMap@CCmdTarget@@MBEPBUAFX_INTERFACEMAP@@XZ 0041e310 f   nafxcw:cmdtarg.obj
 0001:0001d316       ?OnFinalRelease@CCmdTarget@@UAEXXZ 0041e316 f   nafxcw:cmdtarg.obj
 0001:0001d346       ?GetConnectionMap@CCmdTarget@@MBEPBUAFX_CONNECTIONMAP@@XZ 0041e346 f   nafxcw:cmdtarg.obj
 0001:0001d34c       ?GetCommandMap@CCmdTarget@@MBEPBUAFX_OLECMDMAP@@XZ 0041e34c f   nafxcw:cmdtarg.obj
 0001:0001d352       ??0CCmdUI@@QAE@XZ          0041e352 f   nafxcw:cmdtarg.obj
 0001:0001d378       ?DoUpdate@CCmdUI@@QAEHPAVCCmdTarget@@H@Z 0041e378 f   nafxcw:cmdtarg.obj
 0001:0001d3e8       ?GetRuntimeClass@CCmdTarget@@UBEPAUCRuntimeClass@@XZ 0041e3e8 f   nafxcw:cmdtarg.obj
 0001:0001d3ee       ??0CCmdTarget@@QAE@XZ      0041e3ee f   nafxcw:cmdtarg.obj
 0001:0001d416       ??1CCmdTarget@@UAE@XZ      0041e416 f   nafxcw:cmdtarg.obj
 0001:0001d42d       ?BeginWaitCursor@CCmdTarget@@QAEXXZ 0041e42d f   nafxcw:cmdtarg.obj
 0001:0001d442       ?EndWaitCursor@CCmdTarget@@QAEXXZ 0041e442 f   nafxcw:cmdtarg.obj
 0001:0001d457       ?Enable@CCmdUI@@UAEXH@Z    0041e457 f   nafxcw:cmdtarg.obj
 0001:0001d4e9       ?SetCheck@CCmdUI@@UAEXH@Z  0041e4e9 f   nafxcw:cmdtarg.obj
 0001:0001d563       ?SetText@CCmdUI@@UAEXPBD@Z 0041e563 f   nafxcw:cmdtarg.obj
 0001:0001d5d4       ?_AfxLoadDotBitmap@@YGXXZ  0041e5d4 f   nafxcw:cmdtarg.obj
 0001:0001d6f5       ?SetRadio@CCmdUI@@UAEXH@Z  0041e6f5 f   nafxcw:cmdtarg.obj
 0001:0001d75d       ??0CSharedFile@@QAE@II@Z   0041e75d f   nafxcw:fileshrd.obj
 0001:0001d78b       ??1CSharedFile@@UAE@XZ     0041e78b f   nafxcw:fileshrd.obj
 0001:0001d7c2       ?SetHandle@CSharedFile@@QAEXPAXH@Z 0041e7c2 f   nafxcw:fileshrd.obj
 0001:0001d7fd       ?Alloc@CSharedFile@@MAEPAEK@Z 0041e7fd f   nafxcw:fileshrd.obj
 0001:0001d824       ?Realloc@CSharedFile@@MAEPAEPAEK@Z 0041e824 f   nafxcw:fileshrd.obj
 0001:0001d861       ?Free@CSharedFile@@MAEXPAE@Z 0041e861 f   nafxcw:fileshrd.obj
 0001:0001d87c       ?Detach@CSharedFile@@QAEPAXXZ 0041e87c f   nafxcw:fileshrd.obj
 0001:0001d89c       ?GetRuntimeClass@CSharedFile@@UBEPAUCRuntimeClass@@XZ 0041e89c f   nafxcw:fileshrd.obj
 0001:0001d8a2       ??_ECSharedFile@@UAEPAXI@Z 0041e8a2 f i nafxcw:fileshrd.obj
 0001:0001d8a2       ??_GCSharedFile@@UAEPAXI@Z 0041e8a2 f i nafxcw:fileshrd.obj
 0001:0001d8c3       ?SetFilePath@CFile@@UAEXPBD@Z 0041e8c3 f i nafxcw:fileshrd.obj
 0001:0001d8dd       ??0CMemFile@@QAE@I@Z       0041e8dd f   nafxcw:filemem.obj
 0001:0001d912       ??0CMemFile@@QAE@PAEII@Z   0041e912 f   nafxcw:filemem.obj
 0001:0001d96e       ?Detach@CMemFile@@QAEPAEXZ 0041e96e f   nafxcw:filemem.obj
 0001:0001d980       ?Alloc@CMemFile@@MAEPAEK@Z 0041e980 f   nafxcw:filemem.obj
 0001:0001d992       ?Realloc@CMemFile@@MAEPAEPAEK@Z 0041e992 f   nafxcw:filemem.obj
 0001:0001d9a8       ?GetPosition@CMemFile@@UBE_KXZ 0041e9a8 f   nafxcw:filemem.obj
 0001:0001d9ae       ?GrowFile@CMemFile@@MAEXK@Z 0041e9ae f   nafxcw:filemem.obj
 0001:0001d9f7       ?GetLength@CMemFile@@UBE_KXZ 0041e9f7 f   nafxcw:filemem.obj
 0001:0001d9fd       ?SetLength@CMemFile@@UAEX_K@Z 0041e9fd f   nafxcw:filemem.obj
 0001:0001da4d       ?Read@CMemFile@@UAEIPAXI@Z 0041ea4d f   nafxcw:filemem.obj
 0001:0001daa1       ?Write@CMemFile@@UAEXPBXI@Z 0041eaa1 f   nafxcw:filemem.obj
 0001:0001db03       ?Seek@CMemFile@@UAE_K_JI@Z 0041eb03 f   nafxcw:filemem.obj
 0001:0001db71       ?Close@CMemFile@@UAEXXZ    0041eb71 f   nafxcw:filemem.obj
 0001:0001db9d       ?Abort@CMemFile@@UAEXXZ    0041eb9d f   nafxcw:filemem.obj
 0001:0001dba2       ?LockRange@CMemFile@@UAEX_K0@Z 0041eba2 f   nafxcw:filemem.obj
 0001:0001dba2       ?UnlockRange@CMemFile@@UAEX_K0@Z 0041eba2 f   nafxcw:filemem.obj
 0001:0001dba8       ?Duplicate@CMemFile@@UBEPAVCFile@@XZ 0041eba8 f   nafxcw:filemem.obj
 0001:0001dbad       ?GetBufferPtr@CMemFile@@UAEIIIPAPAX0@Z 0041ebad f   nafxcw:filemem.obj
 0001:0001dc7e       ?GetRuntimeClass@CMemFile@@UBEPAUCRuntimeClass@@XZ 0041ec7e f   nafxcw:filemem.obj
 0001:0001dc84       ??1CMemFile@@UAE@XZ        0041ec84 f   nafxcw:filemem.obj
 0001:0001dcc7       ?Memcpy@CMemFile@@MAEPAEPAEPBEK@Z 0041ecc7 f   nafxcw:filemem.obj
 0001:0001dce7       ??_GCMemFile@@UAEPAXI@Z    0041ece7 f i nafxcw:filemem.obj
 0001:0001dce7       ??_ECMemFile@@UAEPAXI@Z    0041ece7 f i nafxcw:filemem.obj
 0001:0001dd08       ??0COleDataObject@@QAE@XZ  0041ed08 f   nafxcw:oledobj1.obj
 0001:0001dd1c       ?Release@COleDataObject@@QAEXXZ 0041ed1c f   nafxcw:oledobj1.obj
 0001:0001dd45       ?IsDataAvailable@COleDataObject@@QAEHGPAUtagFORMATETC@@@Z 0041ed45 f   nafxcw:oledobj1.obj
 0001:0001dd95       ?AttachClipboard@COleDataObject@@QAEHXZ 0041ed95 f   nafxcw:oledobj1.obj
 0001:0001dd9c       ?Attach@COleDataObject@@QAEXPAUIDataObject@@H@Z 0041ed9c f   nafxcw:oledobj1.obj
 0001:0001ddb9       ?EnsureClipboardObject@COleDataObject@@QAEXXZ 0041edb9 f   nafxcw:oledobj1.obj
 0001:0001ddf3       ?GetData@COleDataObject@@QAEHGPAUtagSTGMEDIUM@@PAUtagFORMATETC@@@Z 0041edf3 f   nafxcw:oledobj1.obj
 0001:0001de41       ?GetFileData@COleDataObject@@QAEPAVCFile@@GPAUtagFORMATETC@@@Z 0041ee41 f   nafxcw:oledobj1.obj
 0001:0001e017       ??1COleDropSource@@UAE@XZ  0041f017 f i nafxcw:oledrop1.obj
 0001:0001e01c       ?QueryContinueDrag@COleDropSource@@UAEJHK@Z 0041f01c f   nafxcw:oledrop1.obj
 0001:0001e053       ?GiveFeedback@COleDropSource@@UAEJK@Z 0041f053 f   nafxcw:oledrop1.obj
 0001:0001e062       ?GetInterfaceMap@COleDropSource@@MBEPBUAFX_INTERFACEMAP@@XZ 0041f062 f   nafxcw:oledrop1.obj
 0001:0001e068       ?AddRef@XDropSource@COleDropSource@@UAGKXZ 0041f068 f   nafxcw:oledrop1.obj
 0001:0001e07c       ?Release@XDropSource@COleDropSource@@UAGKXZ 0041f07c f   nafxcw:oledrop1.obj
 0001:0001e090       ?QueryInterface@XDropSource@COleDropSource@@UAGJABU_GUID@@PAPAX@Z 0041f090 f   nafxcw:oledrop1.obj
 0001:0001e0aa       ?QueryContinueDrag@XDropSource@COleDropSource@@UAGJHK@Z 0041f0aa f   nafxcw:oledrop1.obj
 0001:0001e0c4       ?IsRectNull@CRect@@QBEHXZ  0041f0c4 f i nafxcw:oledrop1.obj
 0001:0001e0db       ?OnBeginDrag@COleDropSource@@UAEHPAVCWnd@@@Z 0041f0db f   nafxcw:oledrop1.obj
 0001:0001e1ff       ?GiveFeedback@XDropSource@COleDropSource@@UAGJK@Z 0041f1ff f   nafxcw:oledrop1.obj
 0001:0001e232       ??0COleDropSource@@QAE@XZ  0041f232 f   nafxcw:oledrop1.obj
 0001:0001e2c3       ??_GCOleDropSource@@UAEPAXI@Z 0041f2c3 f i nafxcw:oledrop1.obj
 0001:0001e2c3       ??_ECOleDropSource@@UAEPAXI@Z 0041f2c3 f i nafxcw:oledrop1.obj
 0001:0001e2e4       ?DoDragDrop@COleDataSource@@QAEKKPBUtagRECT@@PAVCOleDropSource@@@Z 0041f2e4 f   nafxcw:oledrop1.obj
 0001:0001e3d0       ?Create@CStatic@@UAEHPBDKABUtagRECT@@PAVCWnd@@I@Z 0041f3d0 f   nafxcw:winctrl1.obj
 0001:0001e3f4       ??1CStatic@@UAE@XZ         0041f3f4 f   nafxcw:winctrl1.obj
 0001:0001e425       ?Create@CButton@@UAEHPBDKABUtagRECT@@PAVCWnd@@I@Z 0041f425 f   nafxcw:winctrl1.obj
 0001:0001e449       ??1CButton@@UAE@XZ         0041f449 f   nafxcw:winctrl1.obj
 0001:0001e47a       ?OnChildNotify@CStatic@@MAEHIIJPAJ@Z 0041f47a f   nafxcw:winctrl1.obj
 0001:0001e47a       ?OnChildNotify@CButton@@MAEHIIJPAJ@Z 0041f47a f   nafxcw:winctrl1.obj
 0001:0001e49d       ?Create@CListBox@@UAEHKABUtagRECT@@PAVCWnd@@I@Z 0041f49d f   nafxcw:winctrl1.obj
 0001:0001e4c0       ??1CListBox@@UAE@XZ        0041f4c0 f   nafxcw:winctrl1.obj
 0001:0001e4f1       ?OnShowWindow@CWnd@@IAEXHI@Z 0041f4f1 f   nafxcw:barcore.obj
 0001:0001e4f1       ?CharToItem@CListBox@@UAEHII@Z 0041f4f1 f   nafxcw:winctrl1.obj
 0001:0001e4f1       ?VKeyToItem@CListBox@@UAEHII@Z 0041f4f1 f   nafxcw:winctrl1.obj
 0001:0001e4f1       ?OnSizing@CMultiPaneFrameWnd@@IAEXIPAUtagRECT@@@Z 0041f4f1 f   nafxcw:afxmultipaneframewnd.obj
 0001:0001e4f9       ?OnChildNotify@CListBox@@MAEHIIJPAJ@Z 0041f4f9 f   nafxcw:winctrl1.obj
 0001:0001e587       ?Create@CComboBox@@UAEHKABUtagRECT@@PAVCWnd@@I@Z 0041f587 f   nafxcw:winctrl1.obj
 0001:0001e5aa       ??1CComboBox@@UAE@XZ       0041f5aa f   nafxcw:winctrl1.obj
 0001:0001e5db       ?OnChildNotify@CComboBox@@MAEHIIJPAJ@Z 0041f5db f   nafxcw:winctrl1.obj
 0001:0001e637       ?Create@CEdit@@QAEHKABUtagRECT@@PAVCWnd@@I@Z 0041f637 f   nafxcw:winctrl1.obj
 0001:0001e65a       ??1CEdit@@UAE@XZ           0041f65a f   nafxcw:winctrl1.obj
 0001:0001e68b       ?Create@CScrollBar@@UAEHKABUtagRECT@@PAVCWnd@@I@Z 0041f68b f   nafxcw:winctrl1.obj
 0001:0001e6ae       ??1CScrollBar@@UAE@XZ      0041f6ae f   nafxcw:winctrl1.obj
 0001:0001e6df       ?GetRuntimeClass@CStatic@@UBEPAUCRuntimeClass@@XZ 0041f6df f   nafxcw:winctrl1.obj
 0001:0001e6e5       ?GetRuntimeClass@CButton@@UBEPAUCRuntimeClass@@XZ 0041f6e5 f   nafxcw:winctrl1.obj
 0001:0001e6eb       ?GetRuntimeClass@CListBox@@UBEPAUCRuntimeClass@@XZ 0041f6eb f   nafxcw:winctrl1.obj
 0001:0001e6f1       ?GetRuntimeClass@CComboBox@@UBEPAUCRuntimeClass@@XZ 0041f6f1 f   nafxcw:winctrl1.obj
 0001:0001e6f7       ?GetRuntimeClass@CEdit@@UBEPAUCRuntimeClass@@XZ 0041f6f7 f   nafxcw:winctrl1.obj
 0001:0001e6fd       ?GetRuntimeClass@CScrollBar@@UBEPAUCRuntimeClass@@XZ 0041f6fd f   nafxcw:winctrl1.obj
 0001:0001e703       ??_GCScrollBar@@UAEPAXI@Z  0041f703 f i nafxcw:winctrl1.obj
 0001:0001e703       ??_ECScrollBar@@UAEPAXI@Z  0041f703 f i nafxcw:winctrl1.obj
 0001:0001e724       ?GetText@CListBox@@QBEXHAAV?$CStringT@DV?$StrTraitMFC@DV?$ChTraitsCRT@D@ATL@@@@@ATL@@@Z 0041f724 f   nafxcw:winctrl1.obj
 0001:0001e769       ?GetLBText@CComboBox@@QBEXHAAV?$CStringT@DV?$StrTraitMFC@DV?$ChTraitsCRT@D@ATL@@@@@ATL@@@Z 0041f769 f   nafxcw:winctrl1.obj
 0001:0001e7ae       ?OnPrintSetup@CPrintDialog@@IAEXXZ 0041f7ae f   nafxcw:dlgprnt.obj
 0001:0001e7e0       ?AfxCreateDC@@YGPAUHDC__@@PAX0@Z 0041f7e0 f   nafxcw:dlgprnt.obj
 0001:0001e84d       ?GetRuntimeClass@CPrintDialog@@UBEPAUCRuntimeClass@@XZ 0041f84d f   nafxcw:dlgprnt.obj
 0001:0001e853       ??0CPrintDialog@@QAE@HKPAVCWnd@@@Z 0041f853 f   nafxcw:dlgprnt.obj
 0001:0001e919       ??0CPrintDialog@@IAE@AAUtagPDA@@@Z 0041f919 f   nafxcw:dlgprnt.obj
 0001:0001e940       ?AttachOnSetup@CPrintDialog@@MAEPAV1@XZ 0041f940 f   nafxcw:dlgprnt.obj
 0001:0001e992       ?CreatePrinterDC@CPrintDialog@@QAEPAUHDC__@@XZ 0041f992 f   nafxcw:dlgprnt.obj
 0001:0001e9b4       ?GetProcAddress_PrintDlgA@CCommDlgWrapper@@QAE?AUPrintDlgA_Type@1@XZ 0041f9b4 f i nafxcw:dlgprnt.obj
 0001:0001e9e3       ?_PrintDlgA@CCommDlgWrapper@@QAEHPAUtagPDA@@@Z 0041f9e3 f i nafxcw:dlgprnt.obj
 0001:0001ea87       ?AfxCtxPrintDlgA@@YGHPAUtagPDA@@@Z 0041fa87 f i nafxcw:dlgprnt.obj
 0001:0001eaa3       ?GetMessageMap@CPrintDialog@@MBEPBUAFX_MSGMAP@@XZ 0041faa3 f   nafxcw:dlgprnt.obj
 0001:0001eaa9       ?DoModal@CPrintDialog@@UAEHXZ 0041faa9 f   nafxcw:dlgprnt.obj
 0001:0001eadf       ?GetDefaults@CPrintDialog@@QAEHXZ 0041fadf f   nafxcw:dlgprnt.obj
 0001:0001eaf6       ?GetDriverName@CPrintDialog@@QBE?AV?$CStringT@DV?$StrTraitMFC@DV?$ChTraitsCRT@D@ATL@@@@@ATL@@XZ 0041faf6 f   nafxcw:dlgprnt.obj
 0001:0001eb2c       ?GetDeviceName@CPrintDialog@@QBE?AV?$CStringT@DV?$StrTraitMFC@DV?$ChTraitsCRT@D@ATL@@@@@ATL@@XZ 0041fb2c f   nafxcw:dlgprnt.obj
 0001:0001eb63       ?GetPortName@CPrintDialog@@QBE?AV?$CStringT@DV?$StrTraitMFC@DV?$ChTraitsCRT@D@ATL@@@@@ATL@@XZ 0041fb63 f   nafxcw:dlgprnt.obj
 0001:0001eb9a       ?GetBuffer@?$CSimpleStringT@D$0A@@ATL@@QAEPADXZ 0041fb9a f i nafxcw:viewprnt.obj
 0001:0001ebb3       ??0CPrintInfo@@QAE@XZ      0041fbb3 f   nafxcw:viewprnt.obj
 0001:0001ec50       ??1CPrintInfo@@QAE@XZ      0041fc50 f   nafxcw:viewprnt.obj
 0001:0001eca9       ?AfxDlgProc@@YGHPAUHWND__@@IIJ@Z 0041fca9 f   nafxcw:dlgcore.obj
 0001:0001ece7       ??1CDialog@@UAE@XZ         0041fce7 f   nafxcw:dlgcore.obj
 0001:0001ed1e       ?Initialize@CDialog@@QAEXXZ 0041fd1e f   nafxcw:dlgcore.obj
 0001:0001ed48       ?OnPaint@CDialog@@IAEXXZ   0041fd48 f   nafxcw:dlgcore.obj
 0001:0001ed8b       ?SetOccDialogInfo@CDialog@@MAEHPAU_AFX_OCC_DIALOG_INFO@@@Z 0041fd8b f   nafxcw:dlgcore.obj
 0001:0001eda0       ??0CDialog@@QAE@IPAVCWnd@@@Z 0041fda0 f   nafxcw:dlgcore.obj
 0001:0001edd6       ?EndDialog@CDialog@@QAEXH@Z 0041fdd6 f   nafxcw:dlgcore.obj
 0001:0001ee00       ?OnOK@CDialog@@MAEXXZ      0041fe00 f   nafxcw:dlgcore.obj
 0001:0001ee1b       ?OnCancel@CDialog@@MAEXXZ  0041fe1b f   nafxcw:dlgcore.obj
 0001:0001ee23       ?OnHelpHitTest@CDialog@@IAEJIJ@Z 0041fe23 f   nafxcw:dlgcore.obj
 0001:0001ee36       ?GetRuntimeClass@CDialog@@UBEPAUCRuntimeClass@@XZ 0041fe36 f   nafxcw:dlgcore.obj
 0001:0001ee3c       ??_9CDialog@@$BBHM@AE      0041fe3c f i nafxcw:dlgcore.obj
 0001:0001ee44       ?GetNextDlgTabItem@CWnd@@QBEPAV1@PAV1@H@Z 0041fe44 f i nafxcw:dlgcore.obj
 0001:0001ee6a       ?PreTranslateMessage@CDialog@@UAEHPAUtagMSG@@@Z 0041fe6a f   nafxcw:dlgcore.obj
 0001:0001ef13       ?OnCmdMsg@CPropertySheet@@UAEHIHPAXPAUAFX_CMDHANDLERINFO@@@Z 0041ff13 f   nafxcw:dlgprop.obj
 0001:0001ef13       ?OnCmdMsg@CDialog@@UAEHIHPAXPAUAFX_CMDHANDLERINFO@@@Z 0041ff13 f   nafxcw:dlgcore.obj
 0001:0001ef9d       ??0CDialog@@QAE@XZ         0041ff9d f   nafxcw:dlgcore.obj
 0001:0001efb8       ??_ECDialog@@UAEPAXI@Z     0041ffb8 f i nafxcw:dlgcore.obj
 0001:0001efb8       ??_GCDialog@@UAEPAXI@Z     0041ffb8 f i nafxcw:dlgcore.obj
 0001:0001efd9       ?OnQueryEndSession@CDialog@@IAEHXZ 0041ffd9 f   nafxcw:dlgcore.obj
 0001:0001f00d       ?OnEndSession@CDialog@@IAEXH@Z 0042000d f   nafxcw:dlgcore.obj
 0001:0001f055       ?PreModal@CDialog@@IAEPAUHWND__@@XZ 00420055 f   nafxcw:dlgcore.obj
 0001:0001f097       ?PostModal@CDialog@@IAEXXZ 00420097 f   nafxcw:dlgcore.obj
 0001:0001f0e4       ?HandleSetFont@CDialog@@IAEJIJ@Z 004200e4 f   nafxcw:dlgcore.obj
 0001:0001f10b       ?HandleInitDialog@CDialog@@IAEJIJ@Z 0042010b f   nafxcw:dlgcore.obj
 0001:0001f1a5       ?AfxHelpEnabled@@YGHXZ     004201a5 f   nafxcw:dlgcore.obj
 0001:0001f1fd       ?OnInitDialog@CDialog@@UAEHXZ 004201fd f   nafxcw:dlgcore.obj
 0001:0001f263       ?CheckAutoCenter@CDialog@@UAEHXZ 00420263 f   nafxcw:dlgcore.obj
 0001:0001f303       ?OnCommandHelp@CDialog@@IAEJIJ@Z 00420303 f   nafxcw:dlgcore.obj
 0001:0001f346       ?GetThisMessageMap@CDialog@@KGPBUAFX_MSGMAP@@XZ 00420346 f   nafxcw:dlgcore.obj
 0001:0001f346       ?GetMessageMap@CDialog@@MBEPBUAFX_MSGMAP@@XZ 00420346 f   nafxcw:dlgcore.obj
 0001:0001f34c       ?CreateDlgIndirect@CWnd@@IAEHPBUDLGTEMPLATE@@PAV1@PAUHINSTANCE__@@@Z 0042034c f   nafxcw:dlgcore.obj
 0001:0001f50b       ?DoModal@CDialog@@UAEHXZ   0042050b f   nafxcw:dlgcore.obj
 0001:0001f6da       ?CreateIndirect@CDialog@@IAEHPBUDLGTEMPLATE@@PAVCWnd@@PAXPAUHINSTANCE__@@@Z 004206da f   nafxcw:dlgcore.obj
 0001:0001f70a       ?CreateDlg@CWnd@@IAEHPBDPAV1@@Z 0042070a f   nafxcw:dlgcore.obj
 0001:0001f762       ?CreateIndirect@CDialog@@IAEHPAXPAVCWnd@@PAUHINSTANCE__@@@Z 00420762 f   nafxcw:dlgcore.obj
 0001:0001f788       ?CreateIndirect@CDialog@@UAEHPBUDLGTEMPLATE@@PAVCWnd@@PAX@Z 00420788 f   nafxcw:dlgcore.obj
 0001:0001f7a1       ?Create@CDialog@@UAEHPBDPAVCWnd@@@Z 004207a1 f   nafxcw:dlgcore.obj
 0001:0001f7ff       ?CreateIndirect@CDialog@@UAEHPAXPAVCWnd@@@Z 004207ff f   nafxcw:dlgcore.obj
 0001:0001f815       ?OnOK@CCommonDialog@@MAEXXZ 00420815 f   nafxcw:dlgcomm.obj
 0001:0001f82f       ?OnHelpInfo@CCommonDialog@@IAEHPAUtagHELPINFO@@@Z 0042082f f   nafxcw:dlgcomm.obj
 0001:0001f83d       ?GetRuntimeClass@CCommonDialog@@UBEPAUCRuntimeClass@@XZ 0042083d f   nafxcw:dlgcomm.obj
 0001:0001f843       ?GetMessageMap@CCommonDialog@@MBEPBUAFX_MSGMAP@@XZ 00420843 f   nafxcw:dlgcomm.obj
 0001:0001f843       ?GetThisMessageMap@CCommonDialog@@KGPBUAFX_MSGMAP@@XZ 00420843 f   nafxcw:dlgcomm.obj
 0001:0001f849       ?_AfxCommDlgProc@@YGIPAUHWND__@@IIJ@Z 00420849 f   nafxcw:dlgcomm.obj
 0001:0001f9f3       ?OsErrorToException@CFileException@@SGHJ@Z 004209f3 f   nafxcw:filex.obj
 0001:0001fc8b       ?GetRuntimeClass@CFileException@@UBEPAUCRuntimeClass@@XZ 00420c8b f   nafxcw:filex.obj
 0001:0001fc91       ?GetErrorMessage@CFileException@@UBEHPADIPAI@Z 00420c91 f   nafxcw:filex.obj
 0001:0001fd5e       ?AfxThrowFileException@@YGXHJPBD@Z 00420d5e f   nafxcw:filex.obj
 0001:0001fda4       ?ThrowOsError@CFileException@@SGXJPBD@Z 00420da4 f   nafxcw:filex.obj
 0001:0001fdc7       ??1CListCtrl@@UAE@XZ       00420dc7 f   nafxcw:winctrl2.obj
 0001:0001fdf8       ?GetItemRect@CListCtrl@@QBEHHPAUtagRECT@@I@Z 00420df8 f   nafxcw:winctrl2.obj
 0001:0001fe1b       ?HitTest@CListCtrl@@QBEHVCPoint@@PAI@Z 00420e1b f   nafxcw:winctrl2.obj
 0001:0001fe6b       ?SetItem@CListCtrl@@QAEHHHIPBDHIIJH@Z 00420e6b f   nafxcw:winctrl2.obj
 0001:0001fec1       ?SetItemState@CListCtrl@@QAEHHII@Z 00420ec1 f   nafxcw:winctrl2.obj
 0001:0001feee       ?SetItemText@CListCtrl@@QAEHHHPBD@Z 00420eee f   nafxcw:winctrl2.obj
 0001:0001ff1b       ?GetItemData@CListCtrl@@QBEKH@Z 00420f1b f   nafxcw:winctrl2.obj
 0001:0001ff5f       ?OnChildNotify@CListCtrl@@MAEHIIJPAJ@Z 00420f5f f   nafxcw:winctrl2.obj
 0001:0001ff82       ??1CTreeCtrl@@UAE@XZ       00420f82 f   nafxcw:winctrl2.obj
 0001:0001ffb3       ?GetItemRect@CTreeCtrl@@QBEHPAU_TREEITEM@@PAUtagRECT@@H@Z 00420fb3 f   nafxcw:winctrl2.obj
 0001:0001ffd6       ?GetItemData@CTreeCtrl@@QBEKPAU_TREEITEM@@@Z 00420fd6 f   nafxcw:winctrl2.obj
 0001:00020020       ?HitTest@CTreeCtrl@@QBEPAU_TREEITEM@@VCPoint@@PAI@Z 00421020 f   nafxcw:winctrl2.obj
 0001:00020058       ?Create@CSpinButtonCtrl@@UAEHKABUtagRECT@@PAVCWnd@@I@Z 00421058 f   nafxcw:winctrl2.obj
 0001:00020088       ??1CSpinButtonCtrl@@UAE@XZ 00421088 f   nafxcw:winctrl2.obj
 0001:000200b9       ?Create@CHeaderCtrl@@UAEHKABUtagRECT@@PAVCWnd@@I@Z 004210b9 f   nafxcw:winctrl2.obj
 0001:000200ec       ?CreateEx@CHeaderCtrl@@UAEHKKABUtagRECT@@PAVCWnd@@I@Z 004210ec f   nafxcw:winctrl2.obj
 0001:000200ec       ?CreateEx@CSpinButtonCtrl@@UAEHKKABUtagRECT@@PAVCWnd@@I@Z 004210ec f   nafxcw:winctrl2.obj
 0001:000200ec       ?CreateEx@CTabCtrl@@UAEHKKABUtagRECT@@PAVCWnd@@I@Z 004210ec f   nafxcw:winctrl2.obj
 0001:00020124       ??1CHeaderCtrl@@UAE@XZ     00421124 f   nafxcw:winctrl2.obj
 0001:00020155       ?OnChildNotify@CHeaderCtrl@@MAEHIIJPAJ@Z 00421155 f   nafxcw:winctrl2.obj
 0001:00020155       ?OnChildNotify@CTabCtrl@@MAEHIIJPAJ@Z 00421155 f   nafxcw:winctrl2.obj
 0001:00020178       ?Create@CTabCtrl@@UAEHKABUtagRECT@@PAVCWnd@@I@Z 00421178 f   nafxcw:winctrl2.obj
 0001:000201ab       ??1CTabCtrl@@UAE@XZ        004211ab f   nafxcw:winctrl2.obj
 0001:000201dc       ?InsertItem@CTabCtrl@@QAEJIHPBDHJ@Z 004211dc f   nafxcw:winctrl2.obj
 0001:00020215       ??1CRichEditCtrl@@UAE@XZ   00421215 f   nafxcw:winctrl2.obj
 0001:00020246       ?GetRuntimeClass@CSpinButtonCtrl@@UBEPAUCRuntimeClass@@XZ 00421246 f   nafxcw:winctrl2.obj
 0001:0002024c       ?GetRuntimeClass@CHeaderCtrl@@UBEPAUCRuntimeClass@@XZ 0042124c f   nafxcw:winctrl2.obj
 0001:00020252       ?GetRuntimeClass@CTabCtrl@@UBEPAUCRuntimeClass@@XZ 00421252 f   nafxcw:winctrl2.obj
 0001:00020258       ?GetRuntimeClass@CTreeCtrl@@UBEPAUCRuntimeClass@@XZ 00421258 f   nafxcw:winctrl2.obj
 0001:0002025e       ?GetRuntimeClass@CListCtrl@@UBEPAUCRuntimeClass@@XZ 0042125e f   nafxcw:winctrl2.obj
 0001:00020264       ?GetRuntimeClass@CImageList@@UBEPAUCRuntimeClass@@XZ 00421264 f   nafxcw:winctrl2.obj
 0001:0002026a       ?GetRuntimeClass@CRichEditCtrl@@UBEPAUCRuntimeClass@@XZ 0042126a f   nafxcw:winctrl2.obj
 0001:00020270       ??_ECListCtrl@@UAEPAXI@Z   00421270 f i nafxcw:winctrl2.obj
 0001:00020270       ??_GCListCtrl@@UAEPAXI@Z   00421270 f i nafxcw:winctrl2.obj
 0001:00020291       ??_ECTreeCtrl@@UAEPAXI@Z   00421291 f i nafxcw:winctrl2.obj
 0001:00020291       ??_GCTreeCtrl@@UAEPAXI@Z   00421291 f i nafxcw:winctrl2.obj
 0001:000202b2       ??_ECSpinButtonCtrl@@UAEPAXI@Z 004212b2 f i nafxcw:winctrl2.obj
 0001:000202b2       ??_GCSpinButtonCtrl@@UAEPAXI@Z 004212b2 f i nafxcw:winctrl2.obj
 0001:000202d3       ??_GCHeaderCtrl@@UAEPAXI@Z 004212d3 f i nafxcw:winctrl2.obj
 0001:000202d3       ??_ECHeaderCtrl@@UAEPAXI@Z 004212d3 f i nafxcw:winctrl2.obj
 0001:000202f4       ??_ECTabCtrl@@UAEPAXI@Z    004212f4 f i nafxcw:winctrl2.obj
 0001:000202f4       ??_GCTabCtrl@@UAEPAXI@Z    004212f4 f i nafxcw:winctrl2.obj
 0001:00020315       ??_GCRichEditCtrl@@UAEPAXI@Z 00421315 f i nafxcw:winctrl2.obj
 0001:00020315       ??_ECRichEditCtrl@@UAEPAXI@Z 00421315 f i nafxcw:winctrl2.obj
 0001:00020336       ?InsertColumn@CListCtrl@@QAEHHPBDHHH@Z 00421336 f   nafxcw:winctrl2.obj
 0001:0002038b       ?InsertItem@CListCtrl@@QAEHIHPBDIIHJ@Z 0042138b f   nafxcw:winctrl2.obj
 0001:000203d9       ?SetItem@CListCtrl@@QAEHHHIPBDHIIJ@Z 004213d9 f   nafxcw:winctrl2.obj
 0001:00020401       ??0CImageList@@QAE@XZ      00421401 f   nafxcw:winctrl2.obj
 0001:0002040e       ?CreateObject@CImageList@@SGPAVCObject@@XZ 0042140e f   nafxcw:winctrl2.obj
 0001:00020428       ?Construct@?$ConstructDestruct@VCImageList@@@@SGXPAVCObject@@@Z 00421428 f i nafxcw:winctrl2.obj
 0001:00020442       ?GetProcAddress_ImageList_Create@CComCtlWrapper@@QAE?AUImageList_Create_Type@1@XZ 00421442 f i nafxcw:winctrl2.obj
 0001:00020471       ?_ImageList_Create@CComCtlWrapper@@QAEPAU_IMAGELIST@@HHIHH@Z 00421471 f i nafxcw:winctrl2.obj
 0001:00020521       ?GetProcAddress_ImageList_Destroy@CComCtlWrapper@@QAE?AUImageList_Destroy_Type@1@XZ 00421521 f i nafxcw:winctrl2.obj
 0001:00020550       ?_ImageList_Destroy@CComCtlWrapper@@QAEHPAU_IMAGELIST@@@Z 00421550 f i nafxcw:winctrl2.obj
 0001:000205f4       ?GetProcAddress_ImageList_LoadImageA@CComCtlWrapper@@QAE?AUImageList_LoadImageA_Type@1@XZ 004215f4 f i nafxcw:winctrl2.obj
 0001:00020623       ?_ImageList_LoadImageA@CComCtlWrapper@@QAEPAU_IMAGELIST@@PAUHINSTANCE__@@PBDHHKII@Z 00421623 f i nafxcw:winctrl2.obj
 0001:000206d9       ?AfxImageList_Create@@YGPAU_IMAGELIST@@HHIHH@Z 004216d9 f i nafxcw:winctrl2.obj
 0001:00020700       ?afxMapHIMAGELIST@@YGPAVCHandleMap@@H@Z 00421700 f   nafxcw:winctrl2.obj
 0001:00020774       ?Detach@CImageList@@QAEPAU_IMAGELIST@@XZ 00421774 f   nafxcw:winctrl2.obj
 0001:000207a0       ?DeleteImageList@CImageList@@QAEHXZ 004217a0 f   nafxcw:winctrl2.obj
 0001:000207bf       ?FromHandle@CImageList@@SGPAV1@PAU_IMAGELIST@@@Z 004217bf f   nafxcw:winctrl2.obj
 0001:000207d3       ?FromHandlePermanent@CImageList@@SGPAV1@PAU_IMAGELIST@@@Z 004217d3 f   nafxcw:winctrl2.obj
 0001:000207f4       ?Attach@CImageList@@QAEHPAU_IMAGELIST@@@Z 004217f4 f   nafxcw:winctrl2.obj
 0001:00020826       ?RemoveImageList@CListCtrl@@IAEXH@Z 00421826 f   nafxcw:winctrl2.obj
 0001:00020863       ?OnNcDestroy@CListCtrl@@IAEXXZ 00421863 f   nafxcw:winctrl2.obj
 0001:00020889       ?RemoveImageList@CTreeCtrl@@IAEXH@Z 00421889 f   nafxcw:winctrl2.obj
 0001:000208c6       ?OnDestroy@CTreeCtrl@@QAEXXZ 004218c6 f   nafxcw:winctrl2.obj
 0001:000208e3       ?OnDestroy@CTabCtrl@@IAEXXZ 004218e3 f   nafxcw:winctrl2.obj
 0001:0002091e       ?Create@CImageList@@QAEHHHIHH@Z 0042191e f   nafxcw:winctrl2.obj
 0001:00020947       ?Create@CImageList@@QAEHIHHK@Z 00421947 f   nafxcw:winctrl2.obj
 0001:00020984       ?GetMessageMap@CListCtrl@@MBEPBUAFX_MSGMAP@@XZ 00421984 f   nafxcw:winctrl2.obj
 0001:00020984       ?GetThisMessageMap@CListCtrl@@KGPBUAFX_MSGMAP@@XZ 00421984 f   nafxcw:winctrl2.obj
 0001:0002098a       ?GetItemText@CListCtrl@@QBE?AV?$CStringT@DV?$StrTraitMFC@DV?$ChTraitsCRT@D@ATL@@@@@ATL@@HH@Z 0042198a f   nafxcw:winctrl2.obj
 0001:00020a13       ?GetMessageMap@CTreeCtrl@@MBEPBUAFX_MSGMAP@@XZ 00421a13 f   nafxcw:winctrl2.obj
 0001:00020a13       ?GetThisMessageMap@CTreeCtrl@@KGPBUAFX_MSGMAP@@XZ 00421a13 f   nafxcw:winctrl2.obj
 0001:00020a19       ?GetMessageMap@CTabCtrl@@MBEPBUAFX_MSGMAP@@XZ 00421a19 f   nafxcw:winctrl2.obj
 0001:00020a19       ?GetThisMessageMap@CTabCtrl@@KGPBUAFX_MSGMAP@@XZ 00421a19 f   nafxcw:winctrl2.obj
 0001:00020a1f       ??1CImageList@@UAE@XZ      00421a1f f   nafxcw:winctrl2.obj
 0001:00020af0       ??_ECImageList@@UAEPAXI@Z  00421af0 f i nafxcw:winctrl2.obj
 0001:00020af0       ??_GCImageList@@UAEPAXI@Z  00421af0 f i nafxcw:winctrl2.obj
 0001:00020b11       ?Create@CPlex@@SGPAU1@AAPAU1@II@Z 00421b11 f   nafxcw:plex.obj
 0001:00020b44       ?FreeDataChain@CPlex@@QAEXXZ 00421b44 f   nafxcw:plex.obj
 0001:00020b5a       ?Abort@CArchive@@QAEXXZ    00421b5a f   nafxcw:arccore.obj
 0001:00020bc7       ?Read@CArchive@@QAEIPAXI@Z 00421bc7 f   nafxcw:arccore.obj
 0001:00020cf8       ?Flush@CArchive@@QAEXXZ    00421cf8 f   nafxcw:arccore.obj
 0001:00020d70       ?FillBuffer@CArchive@@QAEXI@Z 00421d70 f   nafxcw:arccore.obj
 0001:00020e74       ??6CArchive@@QAEAAV0@E@Z   00421e74 f i nafxcw:arccore.obj
 0001:00020eaf       ??6CArchive@@QAEAAV0@G@Z   00421eaf f i nafxcw:arccore.obj
 0001:00020eef       ??6CArchive@@QAEAAV0@K@Z   00421eef f i nafxcw:arccore.obj
 0001:00020eef       ??6CArchive@@QAEAAV0@J@Z   00421eef f i nafxcw:olevar.obj
 0001:00020f2d       ??5CArchive@@QAEAAV0@AAE@Z 00421f2d f i nafxcw:arccore.obj
 0001:00020f71       ??5CArchive@@QAEAAV0@AAG@Z 00421f71 f i nafxcw:arccore.obj
 0001:00020fba       ??5CArchive@@QAEAAV0@AAK@Z 00421fba f i nafxcw:arccore.obj
 0001:00020fba       ??5CArchive@@QAEAAV0@AAJ@Z 00421fba f i nafxcw:olevar.obj
 0001:00021001       ?AfxReadStringLength@@YGIAAVCArchive@@AAH@Z 00422001 f   nafxcw:arccore.obj
 0001:000210b2       ?AfxWriteStringLength@@YGXAAVCArchive@@IH@Z 004220b2 f   nafxcw:arccore.obj
 0001:00021136       ?FromName@CRuntimeClass@@SGPAU1@PBD@Z 00422136 f   nafxcw:arccore.obj
 0001:00021188       ?Load@CRuntimeClass@@SGPAU1@AAVCArchive@@PAI@Z 00422188 f   nafxcw:arccore.obj
 0001:000211ff       ?Close@CArchive@@QAEXXZ    004221ff f   nafxcw:arccore.obj
 0001:0002120f       ?Write@CArchive@@QAEXPBXI@Z 0042220f f   nafxcw:arccore.obj
 0001:000212d6       ?WriteCount@CArchive@@QAEXK@Z 004222d6 f   nafxcw:arccore.obj
 0001:00021307       ?ReadCount@CArchive@@QAEKXZ 00422307 f   nafxcw:arccore.obj
 0001:0002133b       ?Store@CRuntimeClass@@QBEXAAVCArchive@@@Z 0042233b f   nafxcw:arccore.obj
 0001:00021375       ??1CArchive@@QAE@XZ        00422375 f   nafxcw:arccore.obj
 0001:000213b7       ??0CArchive@@QAE@PAVCFile@@IHPAX@Z 004223b7 f   nafxcw:arccore.obj
 0001:000214c6       ?GetRuntimeClass@CArchiveException@@UBEPAUCRuntimeClass@@XZ 004224c6 f   nafxcw:arcex.obj
 0001:000214cc       ?GetErrorMessage@CArchiveException@@UBEHPADIPAI@Z 004224cc f   nafxcw:arcex.obj
 0001:00021598       ??0CArchiveException@@QAE@HPBD@Z 00422598 f i nafxcw:arcex.obj
 0001:000215e1       ??_GCArchiveException@@UAEPAXI@Z 004225e1 f i nafxcw:arcex.obj
 0001:000215e1       ??_ECArchiveException@@UAEPAXI@Z 004225e1 f i nafxcw:arcex.obj
 0001:0002160e       ?AfxThrowArchiveException@@YGXHPBD@Z 0042260e f   nafxcw:arcex.obj
 0001:00021651       ?Register@COleDropTarget@@QAEHPAVCWnd@@@Z 00422651 f   nafxcw:oledrop2.obj
 0001:000216bb       ?Revoke@COleDropTarget@@UAEXXZ 004226bb f   nafxcw:oledrop2.obj
 0001:000216f7       ?OnDragEnter@COleDropTarget@@UAEKPAVCWnd@@PAVCOleDataObject@@KVCPoint@@@Z 004226f7 f   nafxcw:oledrop2.obj
 0001:0002172b       ?OnDragOver@COleDropTarget@@UAEKPAVCWnd@@PAVCOleDataObject@@KVCPoint@@@Z 0042272b f   nafxcw:oledrop2.obj
 0001:0002175f       ?OnDrop@COleDropTarget@@UAEHPAVCWnd@@PAVCOleDataObject@@KVCPoint@@@Z 0042275f f   nafxcw:oledrop2.obj
 0001:00021793       ?OnDropEx@COleDropTarget@@UAEKPAVCWnd@@PAVCOleDataObject@@KKVCPoint@@@Z 00422793 f   nafxcw:oledrop2.obj
 0001:000217cf       ?OnDragLeave@COleDropTarget@@UAEXPAVCWnd@@@Z 004227cf f   nafxcw:oledrop2.obj
 0001:000217f7       ?GetInterfaceMap@COleDropTarget@@MBEPBUAFX_INTERFACEMAP@@XZ 004227f7 f   nafxcw:oledrop2.obj
 0001:000217fd       ?AddRef@XDropTarget@COleDropTarget@@UAGKXZ 004227fd f   nafxcw:oledrop2.obj
 0001:00021811       ?Release@XDropTarget@COleDropTarget@@UAGKXZ 00422811 f   nafxcw:oledrop2.obj
 0001:00021825       ?QueryInterface@XDropTarget@COleDropTarget@@UAGJABU_GUID@@PAPAX@Z 00422825 f   nafxcw:oledrop2.obj
 0001:0002183f       ?_AfxFilterDropEffect@@YGKKK@Z 0042283f f   nafxcw:oledrop2.obj
 0001:00021878       ?OnDragScroll@COleDropTarget@@UAEKPAVCWnd@@KVCPoint@@@Z 00422878 f   nafxcw:oledrop2.obj
 0001:00021a85       ?DragEnter@XDropTarget@COleDropTarget@@UAGJPAUIDataObject@@KU_POINTL@@PAK@Z 00422a85 f   nafxcw:oledrop2.obj
 0001:00021b99       ?DragOver@XDropTarget@COleDropTarget@@UAGJKU_POINTL@@PAK@Z 00422b99 f   nafxcw:oledrop2.obj
 0001:00021c84       ?DragLeave@XDropTarget@COleDropTarget@@UAGJXZ 00422c84 f   nafxcw:oledrop2.obj
 0001:00021cee       ?Drop@XDropTarget@COleDropTarget@@UAGJPAUIDataObject@@KU_POINTL@@PAK@Z 00422cee f   nafxcw:oledrop2.obj
 0001:00021e2a       ??0COleDropTarget@@QAE@XZ  00422e2a f   nafxcw:oledrop2.obj
 0001:00021ebf       ??1COleDropTarget@@UAE@XZ  00422ebf f   nafxcw:oledrop2.obj
 0001:00021fb6       ?AfxGetThread@@YGPAVCWinThread@@XZ 00422fb6 f   nafxcw:thrdcore.obj
 0001:00021fbf       ?AfxGetCurrentMessage@@YGPAUtagMSG@@XZ 00422fbf f   nafxcw:thrdcore.obj
 0001:00021fc8       ?AfxInternalProcessWndProcException@@YGJPAVCException@@PBUtagMSG@@@Z 00422fc8 f   nafxcw:thrdcore.obj
 0001:00021ff2       ?AfxProcessWndProcException@@YGJPAVCException@@PBUtagMSG@@@Z 00422ff2 f   nafxcw:thrdcore.obj
 0001:0002200f       ?AfxTermThread@@YGXPAUHINSTANCE__@@@Z 0042300f f   nafxcw:thrdcore.obj
 0001:000220ae       ?CommonConstruct@CWinThread@@QAEXXZ 004230ae f   nafxcw:thrdcore.obj
 0001:000220e7       ??1CWinThread@@UAE@XZ      004230e7 f   nafxcw:thrdcore.obj
 0001:0002212f       ?Delete@CWinThread@@UAEXXZ 0042312f f   nafxcw:thrdcore.obj
 0001:0002213d       ?Run@CWinThread@@UAEHXZ    0042313d f   nafxcw:thrdcore.obj
 0001:000221d1       ?ExitInstance@CWinThread@@UAEHXZ 004231d1 f   nafxcw:thrdcore.obj
 0001:000221da       ?DispatchThreadMessageEx@CWinThread@@IAEHPAUtagMSG@@@Z 004231da f   nafxcw:thrdcore.obj
 0001:00022258       ?ProcessWndProcException@CWinThread@@UAEJPAVCException@@PBUtagMSG@@@Z 00423258 f   nafxcw:thrdcore.obj
 0001:00022263       ?IsEnterKey@@YAHPAUtagMSG@@@Z 00423263 f i nafxcw:thrdcore.obj
 0001:00022283       ?GetRuntimeClass@CWinThread@@UBEPAUCRuntimeClass@@XZ 00423283 f   nafxcw:thrdcore.obj
 0001:00022289       ?AfxInternalPreTranslateMessage@@YAHPAUtagMSG@@@Z 00423289 f   nafxcw:thrdcore.obj
 0001:000222fc       ?AfxPreTranslateMessage@@YAHPAUtagMSG@@@Z 004232fc f   nafxcw:thrdcore.obj
 0001:0002231d       ?AfxInternalIsIdleMessage@@YAHPAUtagMSG@@@Z 0042331d f   nafxcw:thrdcore.obj
 0001:0002238d       ?AfxIsIdleMessage@@YAHPAUtagMSG@@@Z 0042338d f   nafxcw:thrdcore.obj
 0001:000223ae       ?AfxEndThread@@YGXIH@Z     004233ae f   nafxcw:thrdcore.obj
 0001:000223f7       ??0CWinThread@@QAE@P6AIPAX@Z0@Z 004233f7 f   nafxcw:thrdcore.obj
 0001:00022434       ??_GCWinThread@@UAEPAXI@Z  00423434 f i nafxcw:thrdcore.obj
 0001:00022434       ??_ECWinThread@@UAEPAXI@Z  00423434 f i nafxcw:thrdcore.obj
 0001:00022455       ??0CWinThread@@QAE@XZ      00423455 f   nafxcw:thrdcore.obj
 0001:0002248b       ?IsIdleMessage@CWinThread@@UAEHPAUtagMSG@@@Z 0042348b f   nafxcw:thrdcore.obj
 0001:0002249d       ?PreTranslateMessage@CWinThread@@UAEHPAUtagMSG@@@Z 0042349d f   nafxcw:thrdcore.obj
 0001:000224af       ?GetMainWnd@CWinThread@@UAEPAVCWnd@@XZ 004234af f   nafxcw:thrdcore.obj
 0001:000224ca       ?AfxInternalPumpMessage@@YGHXZ 004234ca f   nafxcw:thrdcore.obj
 0001:00022510       ?AfxPumpMessage@@YGHXZ     00423510 f   nafxcw:thrdcore.obj
 0001:00022526       ?_AfxMsgFilterHook@@YGJHIJ@Z 00423526 f   nafxcw:thrdcore.obj
 0001:0002258a       ?ProcessMessageFilter@CWinThread@@UAEHHPAUtagMSG@@@Z 0042358a f   nafxcw:thrdcore.obj
 0001:000226bc       ?PumpMessage@CWinThread@@UAEHXZ 004236bc f   nafxcw:thrdcore.obj
 0001:000226c1       ?AfxInitThread@@YGXXZ      004236c1 f   nafxcw:thrdcore.obj
 0001:000226ef       ?OnIdle@CWinThread@@UAEHJ@Z 004236ef f   nafxcw:thrdcore.obj
 0001:000227f0       ?_AfxThreadEntry@@YGIPAX@Z 004237f0 f   nafxcw:thrdcore.obj
 0001:00022921       ?CreateThread@CWinThread@@QAEHKIPAU_SECURITY_ATTRIBUTES@@@Z 00423921 f   nafxcw:thrdcore.obj
 0001:00022a2c       ?HashKey@CMapStringToPtr@@QBEIPBD@Z 00423a2c f i nafxcw:map_sp.obj
 0001:00022a80       ?InitHashTable@CMapStringToPtr@@QAEXIH@Z 00423a80 f   nafxcw:map_sp.obj
 0001:00022a80       ?InitHashTable@CMapWordToOb@@QAEXIH@Z 00423a80 f   nafxcw:map_wo.obj
 0001:00022a80       ?InitHashTable@CMapPtrToPtr@@QAEXIH@Z 00423a80 f   nafxcw:map_pp.obj
 0001:00022ade       ?GetRuntimeClass@CMapStringToPtr@@UBEPAUCRuntimeClass@@XZ 00423ade f   nafxcw:map_sp.obj
 0001:00022ae4       ??0CMapStringToPtr@@QAE@H@Z 00423ae4 f   nafxcw:map_sp.obj
 0001:00022b17       ?NewAssoc@CMapStringToPtr@@IAEPAUCAssoc@1@XZ 00423b17 f   nafxcw:map_sp.obj
 0001:00022b75       ?GetAssocAt@CMapStringToPtr@@IBEPAUCAssoc@1@PBDAAI1@Z 00423b75 f   nafxcw:map_sp.obj
 0001:00022bc9       ?Lookup@CMapStringToPtr@@QBEHPBDAAPAX@Z 00423bc9 f   nafxcw:map_sp.obj
 0001:00022bf2       ?LookupKey@CMapStringToPtr@@QBEHPBDAAPBD@Z 00423bf2 f   nafxcw:map_sp.obj
 0001:00022c1b       ?RemoveAll@CMapStringToPtr@@QAEXXZ 00423c1b f   nafxcw:map_sp.obj
 0001:00022c7c       ??1CMapStringToPtr@@UAE@XZ 00423c7c f   nafxcw:map_sp.obj
 0001:00022c87       ?FreeAssoc@CMapStringToPtr@@IAEXPAUCAssoc@1@@Z 00423c87 f   nafxcw:map_sp.obj
 0001:00022cc3       ?RemoveKey@CMapStringToPtr@@QAEHPBD@Z 00423cc3 f   nafxcw:map_sp.obj
 0001:00022d2b       ??_GCMapStringToPtr@@UAEPAXI@Z 00423d2b f i nafxcw:map_sp.obj
 0001:00022d2b       ??_ECMapStringToPtr@@UAEPAXI@Z 00423d2b f i nafxcw:map_sp.obj
 0001:00022d52       ?GetNextAssoc@CMapStringToPtr@@QBEXAAPAU__POSITION@@AAV?$CStringT@DV?$StrTraitMFC@DV?$ChTraitsCRT@D@ATL@@@@@ATL@@AAPAX@Z 00423d52 f   nafxcw:map_sp.obj
 0001:00022dd0       ??ACMapStringToPtr@@QAEAAPAXPBD@Z 00423dd0 f   nafxcw:map_sp.obj
 0001:00022e36       ?Close@CFileFind@@QAEXXZ   00423e36 f   nafxcw:filefind.obj
 0001:00022e78       ?CloseContext@CFileFind@@MAEXXZ 00423e78 f   nafxcw:filefind.obj
 0001:00022e82       ?MatchesMask@CFileFind@@UBEHK@Z 00423e82 f   nafxcw:filefind.obj
 0001:00022ea1       ?GetLastAccessTime@CFileFind@@UBEHPAU_FILETIME@@@Z 00423ea1 f   nafxcw:filefind.obj
 0001:00022eca       ?GetLastWriteTime@CFileFind@@UBEHPAU_FILETIME@@@Z 00423eca f   nafxcw:filefind.obj
 0001:00022ef3       ?GetCreationTime@CFileFind@@UBEHPAU_FILETIME@@@Z 00423ef3 f   nafxcw:filefind.obj
 0001:00022f1c       ?FindNextFileA@CFileFind@@UAEHXZ 00423f1c f   nafxcw:filefind.obj
 0001:00022f59       ?GetRuntimeClass@CFileFind@@UBEPAUCRuntimeClass@@XZ 00423f59 f   nafxcw:filefind.obj
 0001:00022f5f       ?tcscpy_s@Checked@ATL@@YAXPADIPBD@Z 00423f5f f i nafxcw:filefind.obj
 0001:00022f7d       ?FindFirstFileA@CAtlTransactionManager@ATL@@QAEPAXPBDPAU_WIN32_FIND_DATAA@@@Z 00423f7d f i nafxcw:filefind.obj
 0001:00022fd2       ?IsValidFILETIME@CTime@ATL@@SGHABU_FILETIME@@@Z 00423fd2 f i nafxcw:filefind.obj
 0001:00023018       ??0CTime@ATL@@QAE@HHHHHHH@Z 00424018 f i nafxcw:filefind.obj
 0001:000230c1       ??0CTime@ATL@@QAE@ABU_SYSTEMTIME@@H@Z 004240c1 f i nafxcw:filefind.obj
 0001:0002311b       ??0CTime@ATL@@QAE@ABU_FILETIME@@H@Z 0042411b f i nafxcw:filefind.obj
 0001:00023190       ?GetLastAccessTime@CFileFind@@UBEHAAVCTime@ATL@@@Z 00424190 f   nafxcw:filefind.obj
 0001:000231e4       ?GetLastWriteTime@CFileFind@@UBEHAAVCTime@ATL@@@Z 004241e4 f   nafxcw:filefind.obj
 0001:00023238       ?GetCreationTime@CFileFind@@UBEHAAVCTime@ATL@@@Z 00424238 f   nafxcw:filefind.obj
 0001:0002328c       ?IsDots@CFileFind@@UBEHXZ  0042428c f   nafxcw:filefind.obj
 0001:000232c7       ??0CFileFind@@QAE@XZ       004242c7 f   nafxcw:filefind.obj
 0001:000232f6       ??1CFileFind@@UAE@XZ       004242f6 f   nafxcw:filefind.obj
 0001:00023327       ?GetRoot@CFileFind@@UBE?AV?$CStringT@DV?$StrTraitMFC@DV?$ChTraitsCRT@D@ATL@@@@@ATL@@XZ 00424327 f   nafxcw:filefind.obj
 0001:0002334a       ??_GCFileFind@@UAEPAXI@Z   0042434a f i nafxcw:filefind.obj
 0001:0002334a       ??_ECFileFind@@UAEPAXI@Z   0042434a f i nafxcw:filefind.obj
 0001:0002336b       ?FindFile@CFileFind@@UAEHPBDK@Z 0042436b f   nafxcw:filefind.obj
 0001:000234e8       ?GetFileTitle@CFileFind@@UBE?AV?$CStringT@DV?$StrTraitMFC@DV?$ChTraitsCRT@D@ATL@@@@@ATL@@XZ 004244e8 f   nafxcw:filefind.obj
 0001:00023562       ?GetFilePath@CFileFind@@UBE?AV?$CStringT@DV?$StrTraitMFC@DV?$ChTraitsCRT@D@ATL@@@@@ATL@@XZ 00424562 f   nafxcw:filefind.obj
 0001:000235fc       ?GetFileName@CFileFind@@UBE?AV?$CStringT@DV?$StrTraitMFC@DV?$ChTraitsCRT@D@ATL@@@@@ATL@@XZ 004245fc f   nafxcw:filefind.obj
 0001:00023649       ?GetFileURL@CFileFind@@UBE?AV?$CStringT@DV?$StrTraitMFC@DV?$ChTraitsCRT@D@ATL@@@@@ATL@@XZ 00424649 f   nafxcw:filefind.obj
 0001:000236a5       ?OnHelp@CWinApp@@IAEXXZ    004246a5 f   nafxcw:apphelpx.obj
 0001:000236eb       ?_LoadSysPolicies@CWinApp@@IAEHXZ 004246eb f   nafxcw:appcore.obj
 0001:000237b0       ?InitApplication@CWinApp@@UAEHXZ 004247b0 f   nafxcw:appcore.obj
 0001:000237f0       ?RestartInstance@CWinApp@@UAEHXZ 004247f0 f   nafxcw:appcore.obj
 0001:00023822       ?SaveStdProfileSettings@CWinApp@@IAEXXZ 00424822 f   nafxcw:appcore.obj
 0001:0002385e       ?ExitInstance@CWinApp@@UAEHXZ 0042485e f   nafxcw:appcore.obj
 0001:000238cc       ?AfxPostQuitMessage@@YGXH@Z 004248cc f   nafxcw:appcore.obj
 0001:000238ee       ?RegisterWithRestartManager@CWinApp@@UAEJPB_WKP6GKPAX@Z1KK@Z 004248ee f   nafxcw:appcore.obj
 0001:0002395a       ?ApplicationRecoveryCallback@CWinApp@@UAEKPAX@Z 0042495a f   nafxcw:appcore.obj
 0001:000239d6       ?ProcessWndProcException@CWinApp@@UAEJPAVCException@@PBUtagMSG@@@Z 004249d6 f   nafxcw:appcore.obj
 0001:00023a59       ?OnIdle@CWinApp@@UAEHJ@Z   00424a59 f   nafxcw:appcore.obj
 0001:00023ad6       ?DevModeChange@CWinApp@@QAEXPAD@Z 00424ad6 f   nafxcw:appcore.obj
 0001:00023b76       ?GetRuntimeClass@CWinApp@@UBEPAUCRuntimeClass@@XZ 00424b76 f   nafxcw:appcore.obj
 0001:00023b7c       ?A2WBSTR@@YAPA_WPBDH@Z     00424b7c f i nafxcw:appcore.obj
 0001:00023be4       ?GetMessageMap@CWinApp@@MBEPBUAFX_MSGMAP@@XZ 00424be4 f   nafxcw:appcore.obj
 0001:00023be4       ?GetThisMessageMap@CWinApp@@KGPBUAFX_MSGMAP@@XZ 00424be4 f   nafxcw:appcore.obj
 0001:00023cda       ?AfxLoadLangResourceDLL@@YGPAUHINSTANCE__@@PBD0@Z 00424cda f   nafxcw:appcore.obj
 0001:00023e8b       ?LoadSysPolicies@CWinApp@@UAEHXZ 00424e8b f   nafxcw:appcore.obj
 0001:00023e90       ?LoadAppLangResourceDLL@CWinApp@@UAEPAUHINSTANCE__@@XZ 00424e90 f   nafxcw:appcore.obj
 0001:00023f04       ?Run@CWinApp@@UAEHXZ       00424f04 f   nafxcw:appcore.obj
 0001:00023f27       ?WinHelpA@CWinApp@@UAEXKI@Z 00424f27 f   nafxcw:appcore.obj
 0001:00023f68       ?HtmlHelpA@CWinApp@@UAEXKI@Z 00424f68 f   nafxcw:appcore.obj
 0001:00023fac       ?WinHelpInternal@CWinApp@@UAEXKI@Z 00424fac f   nafxcw:appcore.obj
 0001:00023ff0       ?AfxApplicationRecoveryWrapper@@YGKPAX@Z 00424ff0 f   nafxcw:appcore.obj
 0001:0002401a       ?GetDataRecoveryHandler@CWinApp@@UAEPAVCDataRecoveryHandler@@XZ 0042501a f   nafxcw:appcore.obj
 0001:000240ce       ??0CComBSTR@ATL@@QAE@PBD@Z 004250ce f i nafxcw:appcore.obj
 0001:00024102       ??0CWinApp@@QAE@PBD@Z      00425102 f   nafxcw:appcore.obj
 0001:000241fc       ?Right@?$CStringT@DV?$StrTraitMFC@DV?$ChTraitsCRT@D@ATL@@@@@ATL@@QBE?AV12@H@Z 004251fc f i nafxcw:appcore.obj
 0001:0002424d       ??1CWinApp@@UAE@XZ         0042524d f   nafxcw:appcore.obj
 0001:0002443b       ??_ECWinApp@@UAEPAXI@Z     0042543b f i nafxcw:appcore.obj
 0001:0002443b       ??_GCWinApp@@UAEPAXI@Z     0042543b f i nafxcw:appcore.obj
 0001:0002445c       ?InitInstance@CWinApp@@UAEHXZ 0042545c f   nafxcw:appcore.obj
 0001:000244eb       ?RegisterWithRestartManager@CWinApp@@UAEJHABV?$CStringT@DV?$StrTraitMFC@DV?$ChTraitsCRT@D@ATL@@@@@ATL@@@Z 004254eb f   nafxcw:appcore.obj
 0001:00024701       ??1_AFX_SOCK_STATE@@UAE@XZ 00425701 f   nafxcw:sockcore.obj
 0001:00024711       ??_G_AFX_SOCK_STATE@@UAEPAXI@Z 00425711 f i nafxcw:sockcore.obj
 0001:00024711       ??_E_AFX_SOCK_STATE@@UAEPAXI@Z 00425711 f i nafxcw:sockcore.obj
 0001:00024731       ?CreateObject@?$CProcessLocal@V_AFX_SOCK_STATE@@@@SGPAVCNoTrackObject@@XZ 00425731 f i nafxcw:sockcore.obj
 0001:00024746       ?AfxSocketTerm@@YGXXZ      00425746 f   nafxcw:sockcore.obj
 0001:00024784       ?AfxSocketInit@@YGHPAUWSAData@@@Z 00425784 f   nafxcw:sockcore.obj
 0001:000248be       ?_AfxFindFirstDlgItem@@YGPAUDLGITEMTEMPLATE@@PBUDLGTEMPLATE@@@Z 004258be f   nafxcw:occmgr.obj
 0001:00024945       ?_AfxFindNextDlgItem@@YGPAUDLGITEMTEMPLATE@@PAU1@H@Z 00425945 f   nafxcw:occmgr.obj
 0001:000249ac       ?OnEvent@COccManager@@UAEHPAVCCmdTarget@@IPAUAFX_EVENT@@PAUAFX_CMDHANDLERINFO@@@Z 004259ac f   nafxcw:occmgr.obj
 0001:000249c6       ?PreCreateDialog@COccManager@@UAEPBUDLGTEMPLATE@@PAU_AFX_OCC_DIALOG_INFO@@PBU2@@Z 004259c6 f   nafxcw:occmgr.obj
 0001:00024aed       ?PostCreateDialog@COccManager@@UAEXPAU_AFX_OCC_DIALOG_INFO@@@Z 00425aed f   nafxcw:occmgr.obj
 0001:00024b1f       ?SplitDialogTemplate@COccManager@@UAEPAUDLGTEMPLATE@@PBU2@PAPAUDLGITEMTEMPLATE@@@Z 00425b1f f   nafxcw:occmgr.obj
 0001:00024c73       ??_GCOleControlSiteFactory@@UAEPAXI@Z 00425c73 f i nafxcw:occmgr.obj
 0001:00024c73       ??_ECOleControlSiteFactory@@UAEPAXI@Z 00425c73 f i nafxcw:occmgr.obj
 0001:00024c73       ??_EIControlSiteFactory@@UAEPAXI@Z 00425c73 f i nafxcw:occmgr.obj
 0001:00024c73       ??_GIControlSiteFactory@@UAEPAXI@Z 00425c73 f i nafxcw:occmgr.obj
 0001:00024c95       ?CreateContainer@COccManager@@UAEPAVCOleControlContainer@@PAVCWnd@@@Z 00425c95 f   nafxcw:occmgr.obj
 0001:00024cca       ?CreateDlgControls@COccManager@@UAEHPAVCWnd@@PBDPAU_AFX_OCC_DIALOG_INFO@@@Z 00425cca f   nafxcw:occmgr.obj
 0001:00024d5c       ?CreateSite@COleControlSiteFactory@@UAEPAVCOleControlSite@@PAVCOleControlContainer@@ABVCControlCreationInfo@@@Z 00425d5c f i nafxcw:occmgr.obj
 0001:00024d91       ?CreateSite@CControlSiteFactoryMgr@@QAEPAVCOleControlSite@@PAVCOleControlContainer@@ABVCControlCreationInfo@@@Z 00425d91 f   nafxcw:occmgr.obj
 0001:00024dbf       ??0?$CList@PAVIControlSiteFactory@@PAV1@@@QAE@H@Z 00425dbf f i nafxcw:occmgr.obj
 0001:00024de7       ??1?$CList@PAVIControlSiteFactory@@PAV1@@@UAE@XZ 00425de7 f i nafxcw:occmgr.obj
 0001:00024df2       ??_E?$CList@PAVIControlSiteFactory@@PAV1@@@UAEPAXI@Z 00425df2 f i nafxcw:occmgr.obj
 0001:00024df2       ??_G?$CList@PAVIControlSiteFactory@@PAV1@@@UAEPAXI@Z 00425df2 f i nafxcw:occmgr.obj
 0001:00024e19       ?BindControls@COccManager@@IAEXPAVCWnd@@@Z 00425e19 f   nafxcw:occmgr.obj
 0001:00024f18       ??1CControlSiteFactoryMgr@@UAE@XZ 00425f18 f   nafxcw:occmgr.obj
 0001:00024f61       ?RegisterSiteFactory@CControlSiteFactoryMgr@@QAEHPAVIControlSiteFactory@@@Z 00425f61 f   nafxcw:occmgr.obj
 0001:00024f96       ?CreateObject@?$CProcessLocal@VCOccManager@@@@SGPAVCNoTrackObject@@XZ 00425f96 f i nafxcw:occmgr.obj
 0001:00024fab       ??_GCOccManager@@UAEPAXI@Z 00425fab f i nafxcw:occmgr.obj
 0001:00024fab       ??_E_AFX_COLOR_STATE@@UAEPAXI@Z 00425fab f i nafxcw:dlgclr.obj
 0001:00024fab       ??_G_AFX_COLOR_STATE@@UAEPAXI@Z 00425fab f i nafxcw:dlgclr.obj
 0001:00024fab       ??_GCThreadData@@UAEPAXI@Z 00425fab f i nafxcw:afxtls.obj
 0001:00024fab       ??_ECOccManager@@UAEPAXI@Z 00425fab f i nafxcw:occmgr.obj
 0001:00024fab       ??_ECThreadData@@UAEPAXI@Z 00425fab f i nafxcw:afxtls.obj
 0001:00024fc6       ??0CControlSiteFactoryMgr@@QAE@XZ 00425fc6 f   nafxcw:occmgr.obj
 0001:00025037       ??_GCControlSiteFactoryMgr@@UAEPAXI@Z 00426037 f i nafxcw:occmgr.obj
 0001:00025037       ??_ECControlSiteFactoryMgr@@UAEPAXI@Z 00426037 f i nafxcw:occmgr.obj
 0001:00025057       ?CreateObject@?$CProcessLocal@VCControlSiteFactoryMgr@@@@SGPAVCNoTrackObject@@XZ 00426057 f i nafxcw:occmgr.obj
 0001:00025083       ?AfxEnableControlContainer@@YAXPAVCOccManager@@@Z 00426083 f   nafxcw:occmgr.obj
 0001:000250b5       ?CreateSite@COccManager@@UAEPAVCOleControlSite@@PAVCOleControlContainer@@ABVCControlCreationInfo@@@Z 004260b5 f   nafxcw:occmgr.obj
 0001:0002510b       ?CreateDlgControl@COccManager@@IAEHPAVCWnd@@PAUHWND__@@HPAUDLGITEMTEMPLATE@@GPAEKPAPAU3@@Z 0042610b f   nafxcw:occmgr.obj
 0001:00025415       ?CreateDlgControls@COccManager@@UAEHPAVCWnd@@PAXPAU_AFX_OCC_DIALOG_INFO@@@Z 00426415 f   nafxcw:occmgr.obj
 0001:00025571       ?BrowseCallbackProc@CShellManager@@KGHPAUHWND__@@IJJ@Z 00426571 f   nafxcw:afxshellmanager.obj
 0001:0002559d       ?GetNextItem@CShellManager@@QAEPAU_ITEMIDLIST@@PBU2@@Z 0042659d f   nafxcw:afxshellmanager.obj
 0001:000255b6       ?CreateItem@CShellManager@@QAEPAU_ITEMIDLIST@@I@Z 004265b6 f   nafxcw:afxshellmanager.obj
 0001:000255ee       ?GetItemCount@CShellManager@@QAEIPBU_ITEMIDLIST@@@Z 004265ee f   nafxcw:afxshellmanager.obj
 0001:0002561a       ?GetItemSize@CShellManager@@QAEIPBU_ITEMIDLIST@@@Z 0042661a f   nafxcw:afxshellmanager.obj
 0001:0002564c       ?ConcatenateItem@CShellManager@@QAEPAU_ITEMIDLIST@@PBU2@0@Z 0042664c f   nafxcw:afxshellmanager.obj
 0001:000256b1       ?CopyItem@CShellManager@@QAEPAU_ITEMIDLIST@@PBU2@@Z 004266b1 f   nafxcw:afxshellmanager.obj
 0001:000256fe       ?FreeItem@CShellManager@@QAEXPAU_ITEMIDLIST@@@Z 004266fe f   nafxcw:afxshellmanager.obj
 0001:00025724       ?ItemFromPath@CShellManager@@QAEJPBDAAPAU_ITEMIDLIST@@@Z 00426724 f   nafxcw:afxshellmanager.obj
 0001:000257bb       ?GetParentItem@CShellManager@@QAEHPBU_ITEMIDLIST@@AAPAU2@@Z 004267bb f   nafxcw:afxshellmanager.obj
 0001:0002583e       ??0CShellManager@@QAE@XZ   0042683e f   nafxcw:afxshellmanager.obj
 0001:00025873       ??1CShellManager@@UAE@XZ   00426873 f   nafxcw:afxshellmanager.obj
 0001:00025898       ??_ECShellManager@@UAEPAXI@Z 00426898 f i nafxcw:afxshellmanager.obj
 0001:00025898       ??_GCShellManager@@UAEPAXI@Z 00426898 f i nafxcw:afxshellmanager.obj
 0001:000258b9       ?BrowseForFolder@CShellManager@@QAEHAAV?$CStringT@DV?$StrTraitMFC@DV?$ChTraitsCRT@D@ATL@@@@@ATL@@PAVCWnd@@PBD2IPAH@Z 004268b9 f   nafxcw:afxshellmanager.obj
 0001:000259cd       ?_AfxGetDropDownWidth@@YGHXZ 004269cd f   nafxcw:bartool.obj
 0001:00025a67       ??1CToolBar@@UAE@XZ        00426a67 f   nafxcw:bartool.obj
 0001:00025ab7       ?AddReplaceBitmap@CToolBar@@QAEHPAUHBITMAP__@@@Z 00426ab7 f   nafxcw:bartool.obj
 0001:00025b53       ?SetButtons@CToolBar@@QAEHPBIH@Z 00426b53 f   nafxcw:bartool.obj
 0001:00025c9a       ?_GetButton@CToolBar@@IBEXHPAU_TBBUTTON@@@Z 00426c9a f   nafxcw:bartool.obj
 0001:00025cbd       ?Layout@CToolBar@@IAEXXZ   00426cbd f   nafxcw:bartool.obj
 0001:00025d06       ?GetButtonStyle@CToolBar@@QBEIH@Z 00426d06 f   nafxcw:bartool.obj
 0001:00025d3f       ?WrapToolBar@CToolBar@@IAEHPAU_TBBUTTON@@HH@Z 00426d3f f   nafxcw:bartool.obj
 0001:00025e0a       ?GetButtonInfo@CToolBar@@QBEXHAAI0AAH@Z 00426e0a f   nafxcw:bartool.obj
 0001:00025e5e       ?OnBarStyleChange@CToolBar@@UAEXKK@Z 00426e5e f   nafxcw:bartool.obj
 0001:00025e98       ?OnPaint@CToolBar@@IAEXXZ  00426e98 f   nafxcw:bartool.obj
 0001:00025eb3       ?GetRuntimeClass@CToolBar@@UBEPAUCRuntimeClass@@XZ 00426eb3 f   nafxcw:bartool.obj
 0001:00025eb9       ??8CPoint@@QBEHUtagPOINT@@@Z 00426eb9 f i nafxcw:thrdcore.obj
 0001:00025eb9       ??8CSize@@QBEHUtagSIZE@@@Z 00426eb9 f i nafxcw:bartool.obj
 0001:00025ed8       ?SetOwner@CWnd@@QAEXPAV1@@Z 00426ed8 f i nafxcw:bartool.obj
 0001:00025ef2       ?AfxLoadSysColorBitmap@@YGPAUHBITMAP__@@PAUHINSTANCE__@@PAUHRSRC__@@H@Z 00426ef2 f   nafxcw:bartool.obj
 0001:00026086       ??0CToolBar@@QAE@XZ        00427086 f   nafxcw:bartool.obj
 0001:000260f9       ??_GCToolBar@@UAEPAXI@Z    004270f9 f i nafxcw:bartool.obj
 0001:000260f9       ??_ECToolBar@@UAEPAXI@Z    004270f9 f i nafxcw:bartool.obj
 0001:0002611a       ?Create@CToolBar@@UAEHPAVCWnd@@KI@Z 0042711a f   nafxcw:bartool.obj
 0001:0002616a       ?OnNcCreate@CToolBar@@IAEHPAUtagCREATESTRUCTA@@@Z 0042716a f   nafxcw:bartool.obj
 0001:000261ab       ?SetSizes@CToolBar@@QAEXUtagSIZE@@0@Z 004271ab f   nafxcw:bartool.obj
 0001:0002625f       ?LoadBitmapA@CToolBar@@QAEHPBD@Z 0042725f f   nafxcw:bartool.obj
 0001:000262b2       ?_SetButton@CToolBar@@IAEXHPAU_TBBUTTON@@@Z 004272b2 f   nafxcw:bartool.obj
 0001:00026418       ?GetItemRect@CToolBar@@UBEXHPAUtagRECT@@@Z 00427418 f   nafxcw:bartool.obj
 0001:00026455       ?SetButtonStyle@CToolBar@@QAEXHI@Z 00427455 f   nafxcw:bartool.obj
 0001:000264b8       ?CalcSize@CToolBar@@IAE?AVCSize@@PAU_TBBUTTON@@H@Z 004274b8 f   nafxcw:bartool.obj
 0001:000265e6       ?SizeToolBar@CToolBar@@IAEXPAU_TBBUTTON@@HHH@Z 004275e6 f   nafxcw:bartool.obj
 0001:0002674f       ?SetButtonInfo@CToolBar@@QAEXHIIH@Z 0042774f f   nafxcw:bartool.obj
 0001:000267dc       ?OnToolHitTest@CToolBar@@UBEHVCPoint@@PAUtagTOOLINFOA@@@Z 004277dc f   nafxcw:bartool.obj
 0001:000268d6       ?OnNcCalcSize@CToolBar@@IAEXHPAUtagNCCALCSIZE_PARAMS@@@Z 004278d6 f   nafxcw:bartool.obj
 0001:00026960       ?OnWindowPosChanging@CToolBar@@IAEXPAUtagWINDOWPOS@@@Z 00427960 f   nafxcw:bartool.obj
 0001:000269ad       ?OnSetSizeHelper@CToolBar@@IAEJAAVCSize@@J@Z 004279ad f   nafxcw:bartool.obj
 0001:00026a80       ?OnPreserveZeroBorderHelper@CToolBar@@IAEJIJ@Z 00427a80 f   nafxcw:bartool.obj
 0001:00026b42       ?OnPreserveSizingPolicyHelper@CToolBar@@IAEJIJ@Z 00427b42 f   nafxcw:bartool.obj
 0001:00026be4       ?OnSysColorChange@CToolBar@@IAEXXZ 00427be4 f   nafxcw:bartool.obj
 0001:00026c18       ?Enable@CToolCmdUI@@UAEXH@Z 00427c18 f   nafxcw:bartool.obj
 0001:00026c5b       ?SetCheck@CToolCmdUI@@UAEXH@Z 00427c5b f   nafxcw:bartool.obj
 0001:00026ca2       ?OnUpdateCmdUI@CToolBar@@UAEXPAVCFrameWnd@@H@Z 00427ca2 f   nafxcw:bartool.obj
 0001:00026d63       ?_AfxGetComCtlVersion@@YGKXZ 00427d63 f   nafxcw:bartool.obj
 0001:00026deb       ?CreateEx@CToolBar@@UAEHPAVCWnd@@KKVCRect@@I@Z 00427deb f   nafxcw:bartool.obj
 0001:00026ec3       ?LoadToolBar@CToolBar@@QAEHPBD@Z 00427ec3 f   nafxcw:bartool.obj
 0001:00026f9c       ?CalcLayout@CToolBar@@IAE?AVCSize@@KH@Z 00427f9c f   nafxcw:bartool.obj
 0001:00027373       ?CalcFixedLayout@CToolBar@@UAE?AVCSize@@HH@Z 00428373 f   nafxcw:bartool.obj
 0001:0002739e       ?CalcDynamicLayout@CToolBar@@UAE?AVCSize@@HK@Z 0042839e f   nafxcw:bartool.obj
 0001:000273e2       ?OnSetButtonSize@CToolBar@@IAEJIJ@Z 004283e2 f   nafxcw:bartool.obj
 0001:000273fa       ?OnSetBitmapSize@CToolBar@@IAEJIJ@Z 004283fa f   nafxcw:bartool.obj
 0001:00027412       ?SetButtonText@CToolBar@@QAEHHPBD@Z 00428412 f   nafxcw:bartool.obj
 0001:00027512       ?GetMessageMap@CToolBar@@MBEPBUAFX_MSGMAP@@XZ 00428512 f   nafxcw:bartool.obj
 0001:00027518       ?get_accName@CToolBar@@UAEJUtagVARIANT@@PAPA_W@Z 00428518 f   nafxcw:bartool.obj
 0001:0002762a       ??0CDialogImpl@@IAE@AAVCWnd@@@Z 0042862a f   nafxcw:afxdialogimpl.obj
 0001:00027641       ??1CDialogImpl@@MAE@XZ     00428641 f   nafxcw:afxdialogimpl.obj
 0001:00027648       ?OnNcActivate@CDialogImpl@@IAEXAAH@Z 00428648 f   nafxcw:afxdialogimpl.obj
 0001:00027673       ??_ECDialogImpl@@MAEPAXI@Z 00428673 f i nafxcw:afxdialogimpl.obj
 0001:00027673       ??_GCDialogImpl@@MAEPAXI@Z 00428673 f i nafxcw:afxdialogimpl.obj
 0001:00027695       ?ProcessMouseClick@CDialogImpl@@IAEHUtagPOINT@@@Z 00428695 f   nafxcw:afxdialogimpl.obj
 0001:00027873       ?ProcessMouseMove@CDialogImpl@@IAEHUtagPOINT@@@Z 00428873 f   nafxcw:afxdialogimpl.obj
 0001:00027904       ?PreTranslateMessage@CDialogImpl@@IAEHPAUtagMSG@@@Z 00428904 f   nafxcw:afxdialogimpl.obj
 0001:00027af5       ?DialogMouseHookProc@CDialogImpl@@KGJHIJ@Z 00428af5 f   nafxcw:afxdialogimpl.obj
 0001:00027bb3       ?SetActiveMenu@CDialogImpl@@IAEXPAVCMFCPopupMenu@@@Z 00428bb3 f   nafxcw:afxdialogimpl.obj
 0001:00027c16       ?OnDestroy@CDialogImpl@@IAEXXZ 00428c16 f   nafxcw:afxdialogimpl.obj
 0001:00027c43       ?OnCommand@CDialogImpl@@IAEHIJ@Z 00428c43 f   nafxcw:afxdialogimpl.obj
 0001:00027cac       ?OnActivate@CDialogImpl@@IAEXIPAVCWnd@@@Z 00428cac f   nafxcw:afxdialogimpl.obj
 0001:00027d16       ?IsTaskbarInteractionEnabled@CWinApp@@UAEHXZ 00428d16 f   nafxcw:appui3.obj
 0001:00027d2a       ?RegOpenKeyExA@CAtlTransactionManager@ATL@@QAEJPAUHKEY__@@PBDKKPAPAU3@@Z 00428d2a f i nafxcw:appui3.obj
 0001:00027d83       ?RegCreateKeyExA@CAtlTransactionManager@ATL@@QAEJPAUHKEY__@@PBDKPADKKQAU_SECURITY_ATTRIBUTES@@PAPAU3@PAK@Z 00428d83 f i nafxcw:appui3.obj
 0001:00027de8       ?Close@CRegKey@ATL@@QAEJXZ 00428de8 f i nafxcw:appui3.obj
 0001:00027e05       ?GetAppRegistryKey@CWinApp@@QAEPAUHKEY__@@PAVCAtlTransactionManager@ATL@@@Z 00428e05 f   nafxcw:appui3.obj
 0001:00027ec0       ?GetSectionKey@CWinApp@@QAEPAUHKEY__@@PBDPAVCAtlTransactionManager@ATL@@@Z 00428ec0 f   nafxcw:appui3.obj
 0001:00027f1a       ?GetProfileIntA@CWinApp@@UAEIPBD0H@Z 00428f1a f   nafxcw:appui3.obj
 0001:00027f8a       ?WriteProfileInt@CWinApp@@UAEHPBD0H@Z 00428f8a f   nafxcw:appui3.obj
 0001:00028015       ?WriteProfileStringA@CWinApp@@UAEHPBD00@Z 00429015 f   nafxcw:appui3.obj
 0001:000280ae       ?WriteProfileBinary@CWinApp@@UAEHPBD0PAEI@Z 004290ae f   nafxcw:appui3.obj
 0001:00028155       ??1CRegKey@ATL@@QAE@XZ     00429155 f i nafxcw:appui3.obj
 0001:0002815a       ?GetProfileBinary@CWinApp@@UAEHPBD0PAPAEPAI@Z 0042915a f   nafxcw:appui3.obj
 0001:000282a6       ?GetProfileStringA@CWinApp@@UAE?AV?$CStringT@DV?$StrTraitMFC@DV?$ChTraitsCRT@D@ATL@@@@@ATL@@PBD00@Z 004292a6 f   nafxcw:appui3.obj
 0001:0002844b       ?GetFirstDocTemplatePosition@CWinApp@@QBEPAU__POSITION@@XZ 0042944b f   nafxcw:appui2.obj
 0001:0002845c       ?GetNextDocTemplate@CWinApp@@QBEPAVCDocTemplate@@AAPAU__POSITION@@@Z 0042945c f   nafxcw:appui2.obj
 0001:00028475       ?RegDeleteKeyA@CAtlTransactionManager@ATL@@QAEJPAUHKEY__@@PBD@Z 00429475 f i nafxcw:appui2.obj
 0001:000284c9       ??HATL@@YA?AV?$CStringT@DV?$StrTraitMFC@DV?$ChTraitsCRT@D@ATL@@@@@0@ABV10@PBD@Z 004294c9 f i nafxcw:appui2.obj
 0001:0002852d       ?AfxDelRegTreeHelper@@YGJPAUHKEY__@@ABV?$CStringT@DV?$StrTraitMFC@DV?$ChTraitsCRT@D@ATL@@@@@ATL@@PAVCAtlTransactionManager@3@@Z 0042952d f   nafxcw:appui2.obj
 0001:000286f9       ?Unregister@CWinApp@@UAEHXZ 004296f9 f   nafxcw:appui2.obj
 0001:00028871       ?DoWaitCursor@CWinApp@@UAEXH@Z 00429871 f   nafxcw:appui.obj
 0001:000288f0       ?SaveAllModified@CWinApp@@UAEHXZ 004298f0 f   nafxcw:appui.obj
 0001:00028902       ?AddToRecentFileList@CWinApp@@UAEXPBD@Z 00429902 f   nafxcw:appui.obj
 0001:00028932       ?OpenDocumentFile@CWinApp@@UAEPAVCDocument@@PBD@Z 00429932 f   nafxcw:appui.obj
 0001:0002894b       ?OpenDocumentFile@CWinApp@@UAEPAVCDocument@@PBDH@Z 0042994b f   nafxcw:appui.obj
 0001:00028964       ?CloseAllDocuments@CWinApp@@QAEXH@Z 00429964 f   nafxcw:appui.obj
 0001:0002897c       ?OnUpdateRecentFileMenu@CWinApp@@IAEXPAVCCmdUI@@@Z 0042997c f   nafxcw:appui.obj
 0001:000289b2       ?OnDDECommand@CWinApp@@UAEHPAD@Z 004299b2 f   nafxcw:appui.obj
 0001:000289cc       ??ACRecentFileList@@QAEAAV?$CStringT@DV?$StrTraitMFC@DV?$ChTraitsCRT@D@ATL@@@@@ATL@@H@Z 004299cc f i nafxcw:appui.obj
 0001:000289ec       ?OnAppExit@CWinApp@@IAEXXZ 004299ec f   nafxcw:appui.obj
 0001:000289ff       ?HideApplication@CWinApp@@QAEXXZ 004299ff f   nafxcw:appui.obj
 0001:00028a33       ?OnOpenRecentFile@CWinApp@@IAEHI@Z 00429a33 f   nafxcw:appui.obj
 0001:00028aaf       ?GetRuntimeClass@CDialogEx@@UBEPAUCRuntimeClass@@XZ 00429aaf f   nafxcw:afxdialogex.obj
 0001:00028ab5       ?CommonConstruct@CDialogEx@@IAEXXZ 00429ab5 f   nafxcw:afxdialogex.obj
 0001:00028ad9       ?OnActivate@CDialogEx@@IAEXIPAVCWnd@@H@Z 00429ad9 f   nafxcw:afxdialogex.obj
 0001:00028af3       ?OnNcActivate@CDialogEx@@IAEHH@Z 00429af3 f   nafxcw:afxdialogex.obj
 0001:00028b23       ?OnDestroy@CDialogEx@@IAEXXZ 00429b23 f   nafxcw:afxdialogex.obj
 0001:00028b5e       ?PreTranslateMessage@CDialogEx@@UAEHPAUtagMSG@@@Z 00429b5e f   nafxcw:afxdialogex.obj
 0001:00028b8c       ?SetActiveMenu@CDialogEx@@IAEXPAVCMFCPopupMenu@@@Z 00429b8c f   nafxcw:afxdialogex.obj
 0001:00028b9d       ?OnCommand@CDialogEx@@MAEHIJ@Z 00429b9d f   nafxcw:afxdialogex.obj
 0001:00028bd1       ?DrawState@CDC@@QAEHVCPoint@@VCSize@@PAUHBITMAP__@@IPAUHBRUSH__@@@Z 00429bd1 f i nafxcw:afxdialogex.obj
 0001:00028c01       ?OnNcActivate@CMDIChildWnd@@IAEHH@Z 00429c01 f i nafxcw:winmdi.obj
 0001:00028c01       ?OnWindowPosChanged@CWnd@@IAEXPAUtagWINDOWPOS@@@Z 00429c01 f i nafxcw:afxtoolbar.obj
 0001:00028c01       ?OnEraseBkgnd@CToolBar@@IAEHPAVCDC@@@Z 00429c01 f i nafxcw:bartool.obj
 0001:00028c01       ?OnEraseBkgnd@CWnd@@IAEHPAVCDC@@@Z 00429c01 f i nafxcw:afxdialogex.obj
 0001:00028c09       ?OnEraseBkgnd@CDialogEx@@IAEHPAVCDC@@@Z 00429c09 f   nafxcw:afxdialogex.obj
 0001:00028d64       ?OnSysColorChange@CDialogEx@@IAEXXZ 00429d64 f   nafxcw:afxdialogex.obj
 0001:00028d83       ?OnSettingChange@CDialogEx@@IAEXIPBD@Z 00429d83 f   nafxcw:afxdialogex.obj
 0001:00028dae       ??0CDialogEx@@QAE@IPAVCWnd@@@Z 00429dae f   nafxcw:afxdialogex.obj
 0001:00028e12       ??_ECDialogEx@@UAEPAXI@Z   00429e12 f i nafxcw:afxdialogex.obj
 0001:00028e12       ??_GCDialogEx@@UAEPAXI@Z   00429e12 f i nafxcw:afxdialogex.obj
 0001:00028e33       ?OnCtlColor@CDialogEx@@IAEPAUHBRUSH__@@PAVCDC@@PAVCWnd@@I@Z 00429e33 f   nafxcw:afxdialogex.obj
 0001:00028f3e       ?GetMessageMap@CDialogEx@@MBEPBUAFX_MSGMAP@@XZ 00429f3e f   nafxcw:afxdialogex.obj
 0001:00028f3e       ?GetThisMessageMap@CDialogEx@@KGPBUAFX_MSGMAP@@XZ 00429f3e f   nafxcw:afxdialogex.obj
 0001:00028f44       ?PrepareCtrl@CDataExchange@@QAEPAUHWND__@@H@Z 00429f44 f   nafxcw:dlgdata.obj
 0001:00028f85       ?Fail@CDataExchange@@QAEXXZ 00429f85 f   nafxcw:dlgdata.obj
 0001:00028fd6       ?DDX_Check@@YGXPAVCDataExchange@@HAAH@Z 00429fd6 f   nafxcw:dlgdata.obj
 0001:0002903b       ?DDX_CBIndex@@YGXPAVCDataExchange@@HAAH@Z 0042a03b f   nafxcw:dlgdata.obj
 0001:00029092       ?_Afx_DDX_TextWithFormat@@YAXPAVCDataExchange@@HPBDIZZ 0042a092 f   nafxcw:dlgdata.obj
 0001:00029163       ?DDX_Text@@YGXPAVCDataExchange@@HAAH@Z 0042a163 f   nafxcw:dlgdata.obj
 0001:00029194       ?DDX_Text@@YGXPAVCDataExchange@@HAAI@Z 0042a194 f   nafxcw:dlgdata.obj
 0001:000291c5       ?DDX_Control@@YGXPAVCDataExchange@@HAAVCWnd@@@Z 0042a1c5 f   nafxcw:dlgdata.obj
 0001:00029285       ?DDX_Text@@YGXPAVCDataExchange@@HAAV?$CStringT@DV?$StrTraitMFC@DV?$ChTraitsCRT@D@ATL@@@@@ATL@@@Z 0042a285 f   nafxcw:dlgdata.obj
 0001:000292e0       ?DDX_CBString@@YGXPAVCDataExchange@@HAAV?$CStringT@DV?$StrTraitMFC@DV?$ChTraitsCRT@D@ATL@@@@@ATL@@@Z 0042a2e0 f   nafxcw:dlgdata.obj
 0001:00029394       ?GetRuntimeClass@CMenu@@UBEPAUCRuntimeClass@@XZ 0042a394 f   nafxcw:winmenu.obj
 0001:0002939a       ?CreateObject@CMenu@@SGPAVCObject@@XZ 0042a39a f   nafxcw:winmenu.obj
 0001:000293b4       ?Construct@?$ConstructDestruct@VCMenu@@@@SGXPAVCObject@@@Z 0042a3b4 f i nafxcw:winmenu.obj
 0001:000293ce       ?afxMapHMENU@@YGPAVCHandleMap@@H@Z 0042a3ce f   nafxcw:winmenu.obj
 0001:00029442       ?FromHandle@CMenu@@SGPAV1@PAUHMENU__@@@Z 0042a442 f   nafxcw:winmenu.obj
 0001:00029456       ?FromHandlePermanent@CMenu@@SGPAV1@PAUHMENU__@@@Z 0042a456 f   nafxcw:winmenu.obj
 0001:00029477       ?Attach@CMenu@@QAEHPAUHMENU__@@@Z 0042a477 f   nafxcw:winmenu.obj
 0001:000294a5       ?Detach@CMenu@@QAEPAUHMENU__@@XZ 0042a4a5 f   nafxcw:winmenu.obj
 0001:000294d1       ?DestroyMenu@CMenu@@QAEHXZ 0042a4d1 f   nafxcw:winmenu.obj
 0001:000294e7       ??1CMenu@@UAE@XZ           0042a4e7 f i nafxcw:winmenu.obj
 0001:000294f2       ??_ECMenu@@UAEPAXI@Z       0042a4f2 f i nafxcw:winmenu.obj
 0001:000294f2       ??_GCMenu@@UAEPAXI@Z       0042a4f2 f i nafxcw:winmenu.obj
 0001:00029519       ?GetMenuStringA@CMenu@@QBEHIAAV?$CStringT@DV?$StrTraitMFC@DV?$ChTraitsCRT@D@ATL@@@@@ATL@@I@Z 0042a519 f   nafxcw:winmenu.obj
 0001:00029574       ?MeasureItem@CChevronOwnerDrawMenu@@UAEXPAUtagMEASUREITEMSTRUCT@@@Z 0042a574 f   nafxcw:winmenu.obj
 0001:000296bd       ??0CChevronOwnerDrawMenu@@QAE@XZ 0042a6bd f   nafxcw:winmenu.obj
 0001:0002973b       ??1CChevronOwnerDrawMenu@@UAE@XZ 0042a73b f i nafxcw:winmenu.obj
 0001:00029775       ??_ECChevronOwnerDrawMenu@@UAEPAXI@Z 0042a775 f i nafxcw:winmenu.obj
 0001:00029775       ??_GCChevronOwnerDrawMenu@@UAEPAXI@Z 0042a775 f i nafxcw:winmenu.obj
 0001:00029796       ?DrawItem@CChevronOwnerDrawMenu@@UAEXPAUtagDRAWITEMSTRUCT@@@Z 0042a796 f   nafxcw:winmenu.obj
 0001:00029c4c       ?AfxBSTR2ABSTR@@YGPA_WPA_W@Z 0042ac4c f   nafxcw:olecnvrt.obj
 0001:00029cae       ?AfxBSTR2CString@@YGXPAV?$CStringT@DV?$StrTraitMFC@DV?$ChTraitsCRT@D@ATL@@@@@ATL@@PA_W@Z 0042acae f   nafxcw:olecnvrt.obj
 0001:00029d05       ?Create@CRegKey@ATL@@QAEJPAUHKEY__@@PBDPADKKPAU_SECURITY_ATTRIBUTES@@PAK@Z 0042ad05 f i nafxcw:ctlreg.obj
 0001:00029d6f       ?ReleaseBuffer@?$CSimpleStringT@_W$0A@@ATL@@QAEXH@Z 0042ad6f f i nafxcw:ctlreg.obj
 0001:00029d9e       ??0?$CStringT@_WV?$StrTraitMFC@_WV?$ChTraitsCRT@_W@ATL@@@@@ATL@@QAE@PBDPAUIAtlStringMgr@1@@Z 0042ad9e f i nafxcw:ctlreg.obj
 0001:00029ddd       ?_AfxQueryInterface@@YGPAUIUnknown@@PAU1@ABU_GUID@@@Z 0042addd f   nafxcw:oleunk.obj
 0001:00029e03       ?_AfxRelease@@YGKPAPAUIUnknown@@@Z 0042ae03 f   nafxcw:oleunk.obj
 0001:00029e24       ?_AfxReleaseManagedRefs@@YGXPAUIUnknown@@@Z 0042ae24 f   nafxcw:oleunk.obj
 0001:00029e7a       ?GetInterface@CCmdTarget@@QAEPAUIUnknown@@PBX@Z 0042ae7a f   nafxcw:oleunk.obj
 0001:00029f2d       ?QueryAggregates@CCmdTarget@@QAEPAUIUnknown@@PBX@Z 0042af2d f   nafxcw:oleunk.obj
 0001:00029f8f       ?ExternalDisconnect@CCmdTarget@@QAEXXZ 0042af8f f   nafxcw:oleunk.obj
 0001:00029fbd       ?ExternalAddRef@CCmdTarget@@QAEKXZ 0042afbd f   nafxcw:oleunk.obj
 0001:00029fd8       ?InternalRelease@CCmdTarget@@QAEKXZ 0042afd8 f   nafxcw:oleunk.obj
 0001:0002a028       ?ExternalRelease@CCmdTarget@@QAEKXZ 0042b028 f   nafxcw:oleunk.obj
 0001:0002a03d       ?InternalQueryInterface@CCmdTarget@@QAEKPBXPAPAX@Z 0042b03d f   nafxcw:oleunk.obj
 0001:0002a080       ?ExternalQueryInterface@CCmdTarget@@QAEKPBXPAPAX@Z 0042b080 f   nafxcw:oleunk.obj
 0001:0002a0a3       ?UpdateSysColors@AUX_DATA@@QAEXXZ 0042b0a3 f   nafxcw:auxdata.obj
 0001:0002a0e9       ?UpdateSysMetrics@AUX_DATA@@QAEXXZ 0042b0e9 f   nafxcw:auxdata.obj
 0001:0002a145       ??0AUX_DATA@@QAE@XZ        0042b145 f   nafxcw:auxdata.obj
 0001:0002a18e       ??1AUX_DATA@@QAE@XZ        0042b18e f   nafxcw:auxdata.obj
 0001:0002a259       ??2CNoTrackObject@@SGPAXI@Z 0042b259 f   nafxcw:afxtls.obj
 0001:0002a276       ??3CNoTrackObject@@SGXPAX@Z 0042b276 f   nafxcw:afxtls.obj
 0001:0002a28c       ?GetThreadValue@CThreadSlotData@@QAEPAXH@Z 0042b28c f i nafxcw:afxtls.obj
 0001:0002a2de       ?GetDataNA@CThreadLocalObject@@QAEPAVCNoTrackObject@@XZ 0042b2de f   nafxcw:afxtls.obj
 0001:0002a2f8       ?GetData@CProcessLocalObject@@QAEPAVCNoTrackObject@@P6GPAV2@XZ@Z 0042b2f8 f   nafxcw:afxtls.obj
 0001:0002a348       ??1CProcessLocalObject@@QAE@XZ 0042b348 f   nafxcw:afxtls.obj
 0001:0002a371       ?AddHead@CSimpleList@@QAEXPAX@Z 0042b371 f   nafxcw:afxtls.obj
 0001:0002a392       ?Remove@CSimpleList@@QAEHPAX@Z 0042b392 f   nafxcw:afxtls.obj
 0001:0002a3ea       ?AllocSlot@CThreadSlotData@@QAEHXZ 0042b3ea f   nafxcw:afxtls.obj
 0001:0002a502       ??0CThreadSlotData@@QAE@XZ 0042b502 f   nafxcw:afxtls.obj
 0001:0002a541       ?FreeSlot@CThreadSlotData@@QAEXH@Z 0042b541 f   nafxcw:afxtls.obj
 0001:0002a5a9       ?SetValue@CThreadSlotData@@QAEXHPAX@Z 0042b5a9 f   nafxcw:afxtls.obj
 0001:0002a6de       ?DeleteValues@CThreadSlotData@@QAEXPAUCThreadData@@PAUHINSTANCE__@@@Z 0042b6de f   nafxcw:afxtls.obj
 0001:0002a775       ?DeleteValues@CThreadSlotData@@QAEXPAUHINSTANCE__@@H@Z 0042b775 f   nafxcw:afxtls.obj
 0001:0002a7d1       ?GetData@CThreadLocalObject@@QAEPAVCNoTrackObject@@P6GPAV2@XZ@Z 0042b7d1 f   nafxcw:afxtls.obj
 0001:0002a85b       ??1CThreadLocalObject@@QAE@XZ 0042b85b f   nafxcw:afxtls.obj
 0001:0002a87b       ?AfxTermLocalData@@YGXPAUHINSTANCE__@@H@Z 0042b87b f   nafxcw:afxtls.obj
 0001:0002a894       ??1CThreadSlotData@@QAE@XZ 0042b894 f   nafxcw:afxtls.obj
 0001:0002a8ed       ?AfxTlsRelease@@YGXXZ      0042b8ed f   nafxcw:afxtls.obj
 0001:0002a915       ?AfxIsValidString@@YGHPBDH@Z 0042b915 f   nafxcw:validadd.obj
 0001:0002a915       ?AfxIsValidString@@YGHPB_WH@Z 0042b915 f   nafxcw:validadd.obj
 0001:0002a926       ?AfxIsValidAddress@@YGHPBXIH@Z 0042b926 f   nafxcw:validadd.obj
 0001:0002a937       ?AfxCheckError@@YGXJ@Z     0042b937 f   nafxcw:olevar.obj
 0001:0002a95c       ??0COleVariant@@QAE@FG@Z   0042b95c f   nafxcw:olevar.obj
 0001:0002a992       ??0COleVariant@@QAE@JG@Z   0042b992 f   nafxcw:olevar.obj
 0001:0002a9fe       ?ChangeType@COleVariant@@QAEXGPAUtagVARIANT@@@Z 0042b9fe f   nafxcw:olevar.obj
 0001:0002aa2d       ??4COleVariant@@QAEABV0@ABUtagVARIANT@@@Z 0042ba2d f   nafxcw:olevar.obj
 0001:0002aa2d       ??4COleVariant@@QAEABV0@ABV0@@Z 0042ba2d f   nafxcw:olevar.obj
 0001:0002aa51       ?AfxVariantInit@@YGXPAUtagVARIANT@@@Z 0042ba51 f   nafxcw:olevar.obj
 0001:0002aa69       ??0CFixedStringMgr@ATL@@QAE@PAUCStringData@1@HPAUIAtlStringMgr@1@@Z 0042ba69 f i nafxcw:olevar.obj
 0001:0002aaa8       ??1CFixedStringMgr@ATL@@UAE@XZ 0042baa8 f i nafxcw:olevar.obj
 0001:0002aaaf       ?Allocate@CFixedStringMgr@ATL@@UAEPAUCStringData@2@HH@Z 0042baaf f i nafxcw:olevar.obj
 0001:0002ab0c       ?Free@CFixedStringMgr@ATL@@UAEXPAUCStringData@2@@Z 0042bb0c f i nafxcw:olevar.obj
 0001:0002ab46       ?Reallocate@CFixedStringMgr@ATL@@UAEPAUCStringData@2@PAU32@HH@Z 0042bb46 f i nafxcw:olevar.obj
 0001:0002abe5       ?GetHeadPosition@CPtrList@@QBEPAU__POSITION@@XZ 0042bbe5 f i nafxcw:wincore.obj
 0001:0002abe5       ?Clone@CFixedStringMgr@ATL@@UAEPAUIAtlStringMgr@2@XZ 0042bbe5 f i nafxcw:olevar.obj
 0001:0002abe9       ??_GCFixedStringMgr@ATL@@UAEPAXI@Z 0042bbe9 f i nafxcw:olevar.obj
 0001:0002abe9       ??_ECFixedStringMgr@ATL@@UAEPAXI@Z 0042bbe9 f i nafxcw:olevar.obj
 0001:0002ac0b       ??1COleVariant@@QAE@XZ     0042bc0b f i nafxcw:olevar.obj
 0001:0002ac15       ??0COleVariant@@QAE@ABUtagVARIANT@@@Z 0042bc15 f   nafxcw:olevar.obj
 0001:0002ac15       ??0COleVariant@@QAE@ABV0@@Z 0042bc15 f   nafxcw:olevar.obj
 0001:0002ac15       ??0COleVariant@@QAE@PBUtagVARIANT@@@Z 0042bc15 f   nafxcw:olevar.obj
 0001:0002ac3a       ??4COleVariant@@QAEABV0@J@Z 0042bc3a f   nafxcw:olevar.obj
 0001:0002ac81       ??6CArchive@@QAEAAV0@_J@Z  0042bc81 f i nafxcw:olevar.obj
 0001:0002ac81       ??6CArchive@@QAEAAV0@_K@Z  0042bc81 f i nafxcw:arccore.obj
 0001:0002acc5       ??6CArchive@@QAEAAV0@M@Z   0042bcc5 f i nafxcw:olevar.obj
 0001:0002ad03       ??6CArchive@@QAEAAV0@N@Z   0042bd03 f i nafxcw:olevar.obj
 0001:0002ad41       ??5CArchive@@QAEAAV0@AA_J@Z 0042bd41 f i nafxcw:olevar.obj
 0001:0002ad41       ??5CArchive@@QAEAAV0@AA_K@Z 0042bd41 f i nafxcw:arccore.obj
 0001:0002ad8e       ??5CArchive@@QAEAAV0@AAM@Z 0042bd8e f i nafxcw:olevar.obj
 0001:0002add5       ??5CArchive@@QAEAAV0@AAN@Z 0042bdd5 f i nafxcw:olevar.obj
 0001:0002ae1c       ??6@YGAAVCArchive@@AAV0@VCOleDateTime@ATL@@@Z 0042be1c f   nafxcw:olevar.obj
 0001:0002ae40       ??5@YGAAVCArchive@@AAV0@AAVCOleDateTime@ATL@@@Z 0042be40 f   nafxcw:olevar.obj
 0001:0002ae63       ?AllocSysString@?$CStringT@_WV?$StrTraitMFC@_WV?$ChTraitsCRT@_W@ATL@@@@@ATL@@QBEPA_WXZ 0042be63 f i nafxcw:olevar.obj
 0001:0002ae79       ??6@YGAAVCArchive@@AAV0@VCOleVariant@@@Z 0042be79 f   nafxcw:olevar.obj
 0001:0002b079       ??5@YGAAVCArchive@@AAV0@AAVCOleVariant@@@Z 0042c079 f   nafxcw:olevar.obj
 0001:0002b2ed       ??1?$CFixedStringT@V?$CStringT@_WV?$StrTraitMFC@_WV?$ChTraitsCRT@_W@ATL@@@@@ATL@@$0BAA@@ATL@@UAE@XZ 0042c2ed f i nafxcw:olevar.obj
 0001:0002b315       ??_G?$CFixedStringT@V?$CStringT@_WV?$StrTraitMFC@_WV?$ChTraitsCRT@_W@ATL@@@@@ATL@@$0BAA@@ATL@@UAEPAXI@Z 0042c315 f i nafxcw:olevar.obj
 0001:0002b315       ??_E?$CFixedStringT@V?$CStringT@_WV?$StrTraitMFC@_WV?$ChTraitsCRT@_W@ATL@@@@@ATL@@$0BAA@@ATL@@UAEPAXI@Z 0042c315 f i nafxcw:olevar.obj
 0001:0002b336       ??0?$CFixedStringT@V?$CStringT@_WV?$StrTraitMFC@_WV?$ChTraitsCRT@_W@ATL@@@@@ATL@@$0BAA@@ATL@@QAE@PBD@Z 0042c336 f i nafxcw:olevar.obj
 0001:0002b37d       ?Format@COleDateTime@ATL@@QBE?AV?$CStringT@DV?$StrTraitMFC@DV?$ChTraitsCRT@D@ATL@@@@@2@KK@Z 0042c37d f i nafxcw:olevar.obj
 0001:0002b4ff       ??0COleVariant@@QAE@PBDG@Z 0042c4ff f   nafxcw:olevar.obj
 0001:0002b572       ??4COleVariant@@QAEABV0@QBD@Z 0042c572 f   nafxcw:olevar.obj
 0001:0002b5cc       ?FreeAssoc@CMapPtrToPtr@@IAEXPAUCAssoc@1@@Z 0042c5cc f   nafxcw:map_pp.obj
 0001:0002b5ea       ?GetRuntimeClass@CMapPtrToPtr@@UBEPAUCRuntimeClass@@XZ 0042c5ea f   nafxcw:map_pp.obj
 0001:0002b5f0       ??0CMapPtrToPtr@@QAE@H@Z   0042c5f0 f   nafxcw:map_pp.obj
 0001:0002b623       ??1CMapPtrToPtr@@UAE@XZ    0042c623 f   nafxcw:map_pp.obj
 0001:0002b62e       ?NewAssoc@CMapPtrToPtr@@IAEPAUCAssoc@1@XZ 0042c62e f   nafxcw:map_pp.obj
 0001:0002b679       ?GetAssocAt@CMapPtrToPtr@@IBEPAUCAssoc@1@PAXAAI1@Z 0042c679 f   nafxcw:map_pp.obj
 0001:0002b6b9       ?GetValueAt@CMapPtrToPtr@@QBEPAXPAX@Z 0042c6b9 f   nafxcw:map_pp.obj
 0001:0002b703       ?Lookup@CMapPtrToPtr@@QBEHPAXAAPAX@Z 0042c703 f   nafxcw:map_pp.obj
 0001:0002b72c       ??ACMapPtrToPtr@@QAEAAPAXPAX@Z 0042c72c f   nafxcw:map_pp.obj
 0001:0002b780       ?RemoveKey@CMapPtrToPtr@@QAEHPAX@Z 0042c780 f   nafxcw:map_pp.obj
 0001:0002b7cf       ?GetNextAssoc@CMapPtrToPtr@@QBEXAAPAU__POSITION@@AAPAX1@Z 0042c7cf f   nafxcw:map_pp.obj
 0001:0002b850       ??_ECMapPtrToPtr@@UAEPAXI@Z 0042c850 f i nafxcw:map_pp.obj
 0001:0002b850       ??_GCMapPtrToPtr@@UAEPAXI@Z 0042c850 f i nafxcw:map_pp.obj
 0001:0002b877       ?AfxLockTempMaps@@YGXXZ    0042c877 f   nafxcw:winhand.obj
 0001:0002b880       ??0CHandleMap@@QAE@PAUCRuntimeClass@@P6GXPAVCObject@@@Z2IH@Z 0042c880 f   nafxcw:winhand.obj
 0001:0002b908       ?FromHandle@CHandleMap@@QAEPAVCObject@@PAX@Z 0042c908 f   nafxcw:winhand.obj
 0001:0002b9bb       ?DeleteTemp@CHandleMap@@QAEXXZ 0042c9bb f   nafxcw:winhand.obj
 0001:0002ba1e       ??1CHandleMap@@UAE@XZ      0042ca1e f i nafxcw:winhand.obj
 0001:0002ba6b       ??_ECHandleMap@@UAEPAXI@Z  0042ca6b f i nafxcw:winhand.obj
 0001:0002ba6b       ??_GCHandleMap@@UAEPAXI@Z  0042ca6b f i nafxcw:winhand.obj
 0001:0002ba8c       ?AfxUnlockTempMaps@@YGHH@Z 0042ca8c f   nafxcw:winhand.obj
 0001:0002bb87       ?AfxSetWindowText@@YGXPAUHWND__@@PBD@Z 0042cb87 f   nafxcw:winutil.obj
 0001:0002bc1f       ?AfxDeleteObject@@YGXPAPAX@Z 0042cc1f f   nafxcw:winutil.obj
 0001:0002bc46       ?AfxGlobalFree@@YGXPAX@Z   0042cc46 f   nafxcw:winutil.obj
 0001:0002bc7c       ?AfxCriticalNewHandler@@YAHI@Z 0042cc7c f   nafxcw:winutil.obj
 0001:0002bccf       ?_AfxIsComboBoxControl@@YGHPAUHWND__@@I@Z 0042cccf f   nafxcw:winutil.obj
 0001:0002bd3c       ?_AfxCompareClassName@@YGHPAUHWND__@@PBD@Z 0042cd3c f   nafxcw:winutil.obj
 0001:0002bd82       ?_AfxChildWindowFromPoint@@YGPAUHWND__@@PAU1@UtagPOINT@@@Z 0042cd82 f   nafxcw:winutil.obj
 0001:0002be1a       ?_AfxTopChildWindowFromPoint@@YGPAUHWND__@@PAU1@UtagPOINT@@@Z 0042ce1a f   nafxcw:winutil.obj
 0001:0002bedc       ?AfxCancelModes@@YGXPAUHWND__@@@Z 0042cedc f   nafxcw:winutil.obj
 0001:0002bf58       ?AfxCriticalInit@@YGHXZ    0042cf58 f   nafxcw:afxcrit.obj
 0001:0002bf7c       ?AfxCriticalTerm@@YGXXZ    0042cf7c f   nafxcw:afxcrit.obj
 0001:0002bfc1       ?AfxLockGlobals@@YGXH@Z    0042cfc1 f   nafxcw:afxcrit.obj
 0001:0002c033       ?AfxUnlockGlobals@@YGXH@Z  0042d033 f   nafxcw:afxcrit.obj
 0001:0002c058       ?FreeNode@CPtrList@@IAEXPAUCNode@1@@Z 0042d058 f   nafxcw:list_p.obj
 0001:0002c058       ?FreeNode@CObList@@IAEXPAUCNode@1@@Z 0042d058 f   nafxcw:list_o.obj
 0001:0002c07f       ?RemoveTail@CPtrList@@QAEPAXXZ 0042d07f f   nafxcw:list_p.obj
 0001:0002c07f       ?RemoveTail@CObList@@QAEPAVCObject@@XZ 0042d07f f   nafxcw:list_o.obj
 0001:0002c0a3       ?RemoveAt@CObList@@QAEXPAU__POSITION@@@Z 0042d0a3 f   nafxcw:list_o.obj
 0001:0002c0a3       ?RemoveAt@CPtrList@@QAEXPAU__POSITION@@@Z 0042d0a3 f   nafxcw:list_p.obj
 0001:0002c0e8       ?Find@CObList@@QBEPAU__POSITION@@PAVCObject@@PAU2@@Z 0042d0e8 f   nafxcw:list_o.obj
 0001:0002c0e8       ?Find@CPtrList@@QBEPAU__POSITION@@PAXPAU2@@Z 0042d0e8 f   nafxcw:list_p.obj
 0001:0002c10b       ?GetRuntimeClass@CPtrList@@UBEPAUCRuntimeClass@@XZ 0042d10b f   nafxcw:list_p.obj
 0001:0002c111       ??0CPtrList@@QAE@H@Z       0042d111 f   nafxcw:list_p.obj
 0001:0002c139       ??1CPtrList@@UAE@XZ        0042d139 f   nafxcw:list_p.obj
 0001:0002c144       ?NewNode@CPtrList@@IAEPAUCNode@1@PAU21@0@Z 0042d144 f   nafxcw:list_p.obj
 0001:0002c144       ?NewNode@CObList@@IAEPAUCNode@1@PAU21@0@Z 0042d144 f   nafxcw:list_o.obj
 0001:0002c19c       ?AddTail@CPtrList@@QAEPAU__POSITION@@PAX@Z 0042d19c f   nafxcw:list_p.obj
 0001:0002c19c       ?AddTail@CObList@@QAEPAU__POSITION@@PAVCObject@@@Z 0042d19c f   nafxcw:list_o.obj
 0001:0002c1ca       ?InsertBefore@CObList@@QAEPAU__POSITION@@PAU2@PAVCObject@@@Z 0042d1ca f   nafxcw:list_o.obj
 0001:0002c1ca       ?InsertBefore@CPtrList@@QAEPAU__POSITION@@PAU2@PAX@Z 0042d1ca f   nafxcw:list_p.obj
 0001:0002c20a       ??_GCPtrList@@UAEPAXI@Z    0042d20a f i nafxcw:list_p.obj
 0001:0002c20a       ??_ECPtrList@@UAEPAXI@Z    0042d20a f i nafxcw:list_p.obj
 0001:0002c231       ??0?$CStringT@DV?$StrTraitMFC@DV?$ChTraitsCRT@D@ATL@@@@@ATL@@QAE@PBDPAUIAtlStringMgr@1@@Z 0042d231 f i nafxcw:appterm.obj
 0001:0002c270       ?Tokenize@?$CStringT@DV?$StrTraitMFC@DV?$ChTraitsCRT@D@ATL@@@@@ATL@@QBE?AV12@PBDAAH@Z 0042d270 f i nafxcw:appterm.obj
 0001:0002c325       ?AfxUnregisterWndClasses@@YGXXZ 0042d325 f   nafxcw:appterm.obj
 0001:0002c3c4       ?AfxWinTerm@@YGXXZ         0042d3c4 f   nafxcw:appterm.obj
 0001:0002c43a       ?Lock@CSyncObject@@UAEHK@Z 0042d43a f   nafxcw:mtcore.obj
 0001:0002c461       ?GetRuntimeClass@CCriticalSection@@UBEPAUCRuntimeClass@@XZ 0042d461 f   nafxcw:mtcore.obj
 0001:0002c467       ?GetRuntimeClass@CSyncObject@@UBEPAUCRuntimeClass@@XZ 0042d467 f   nafxcw:mtcore.obj
 0001:0002c46d       ??0CSyncObject@@QAE@PBD@Z  0042d46d f   nafxcw:mtcore.obj
 0001:0002c47c       ??1CSyncObject@@UAE@XZ     0042d47c f   nafxcw:mtcore.obj
 0001:0002c49b       ??_GCSyncObject@@UAEPAXI@Z 0042d49b f i nafxcw:mtcore.obj
 0001:0002c49b       ??_ECSyncObject@@UAEPAXI@Z 0042d49b f i nafxcw:mtcore.obj
 0001:0002c4bc       ?AfxOleCanExitApp@@YGHXZ   0042d4bc f   nafxcw:olelock.obj
 0001:0002c4cc       ?AfxOleLockApp@@YGXXZ      0042d4cc f   nafxcw:olelock.obj
 0001:0002c4dc       ?AfxOleSetUserCtrl@@YGXH@Z 0042d4dc f   nafxcw:olelock.obj
 0001:0002c4f0       ?AfxOleGetUserCtrl@@YGHXZ  0042d4f0 f   nafxcw:olelock.obj
 0001:0002c4f9       ?AfxOleOnReleaseAllObjects@@YGXXZ 0042d4f9 f   nafxcw:olelock.obj
 0001:0002c54a       ?AfxOleUnlockApp@@YGXXZ    0042d54a f   nafxcw:olelock.obj
 0001:0002c563       ??0CD2DSizeU@@QAE@II@Z     0042d563 f   nafxcw:afxrendertarget.obj
 0001:0002c579       ?EndDraw@CRenderTarget@@QAEJXZ 0042d579 f   nafxcw:afxrendertarget.obj
 0001:0002c595       ?VerifyResource@CRenderTarget@@IAEHPAVCD2DResource@@@Z 0042d595 f   nafxcw:afxrendertarget.obj
 0001:0002c5c9       ??$SafeRelease@UID2D1HwndRenderTarget@@@@YAXPAPAUID2D1HwndRenderTarget@@@Z 0042d5c9 f i nafxcw:afxrendertarget.obj
 0001:0002c5e4       ?GetNext@CObList@@QAEAAPAVCObject@@AAPAU__POSITION@@@Z 0042d5e4 f i nafxcw:afxrendertarget.obj
 0001:0002c5e4       ?GetNext@CPtrList@@QAEAAPAXAAPAU__POSITION@@@Z 0042d5e4 f i nafxcw:wincore.obj
 0001:0002c602       ?BeginDraw@CRenderTarget@@QAEXXZ 0042d602 f   nafxcw:afxrendertarget.obj
 0001:0002c64b       ?Resize@CHwndRenderTarget@@QAEHABVCD2DSizeU@@@Z 0042d64b f   nafxcw:afxrendertarget.obj
 0001:0002c674       ?Create@CHwndRenderTarget@@QAEHPAUHWND__@@@Z 0042d674 f   nafxcw:afxrendertarget.obj
 0001:0002c75b       ?ReCreate@CHwndRenderTarget@@QAEHPAUHWND__@@@Z 0042d75b f   nafxcw:afxrendertarget.obj
 0001:0002c7c0       ?_AfxInitDBCS@@YGHXZ       0042d7c0 f   nafxcw:afxdbcs.obj
 0001:0002c87e       ?OnSettingChange@AFX_GLOBAL_DATA@@QAEXXZ 0042d87e f   nafxcw:afxglobals.obj
 0001:0002c945       ?CreateDitherBitmap@AFX_GLOBAL_DATA@@IAEPAUHBITMAP__@@PAUHDC__@@@Z 0042d945 f   nafxcw:afxglobals.obj
 0001:0002ca1d       ?ReleaseTaskBarRefs@AFX_GLOBAL_DATA@@QAEXXZ 0042da1d f   nafxcw:afxglobals.obj
 0001:0002ca54       ?GetColor@AFX_GLOBAL_DATA@@QAEKH@Z 0042da54 f   nafxcw:afxglobals.obj
 0001:0002cb30       ?SetLayeredAttrib@AFX_GLOBAL_DATA@@QAEHPAUHWND__@@KEK@Z 0042db30 f   nafxcw:afxglobals.obj
 0001:0002cb3c       ?DwmDefWindowProc@AFX_GLOBAL_DATA@@QAEJPAUHWND__@@IIJ@Z 0042db3c f   nafxcw:afxglobals.obj
 0001:0002cb6e       ?DwmIsCompositionEnabled@AFX_GLOBAL_DATA@@QAEHXZ 0042db6e f   nafxcw:afxglobals.obj
 0001:0002cb9a       ?GetHandCursor@AFX_GLOBAL_DATA@@QAEPAUHICON__@@XZ 0042db9a f   nafxcw:afxglobals.obj
 0001:0002cbbb       ?GetNonClientMetrics@AFX_GLOBAL_DATA@@QAEHAAUtagNONCLIENTMETRICSA@@@Z 0042dbbb f   nafxcw:afxglobals.obj
 0001:0002cbe6       ?AfxIsExtendedFrameClass@@YGHPAVCWnd@@@Z 0042dbe6 f   nafxcw:afxglobals.obj
 0001:0002cc54       ?ReleaseD2DRefs@AFX_GLOBAL_DATA@@IAEXXZ 0042dc54 f   nafxcw:afxglobals.obj
 0001:0002ccc8       ?AfxLoadSystemLibraryUsingFullPath@@YAPAUHINSTANCE__@@PB_W@Z 0042dcc8 f i nafxcw:afxglobals.obj
 0001:0002cd5e       ?UpdateTextMetrics@AFX_GLOBAL_DATA@@IAEXXZ 0042dd5e f   nafxcw:afxglobals.obj
 0001:0002ce27       ?GetITaskbarList3@AFX_GLOBAL_DATA@@QAEPAUITaskbarList3@@XZ 0042de27 f   nafxcw:afxglobals.obj
 0001:0002ce83       ?CleanUp@AFX_GLOBAL_DATA@@QAEXXZ 0042de83 f   nafxcw:afxglobals.obj
 0001:0002cf59       ?ControlBarCleanUp@@YAXXZ  0042df59 f   nafxcw:afxglobals.obj
 0001:0002cf9d       ?AFXGetParentFrame@@YAPAVCFrameWnd@@PBVCWnd@@@Z 0042df9d f   nafxcw:afxglobals.obj
 0001:0002d009       ?Resume@AFX_GLOBAL_DATA@@QAEHXZ 0042e009 f   nafxcw:afxglobals.obj
 0001:0002d10d       ?ShellCreateItemFromParsingName@AFX_GLOBAL_DATA@@QAEJPB_WPAUIBindCtx@@ABU_GUID@@PAPAX@Z 0042e10d f   nafxcw:afxglobals.obj
 0001:0002d17c       ?InitD2D@AFX_GLOBAL_DATA@@QAEHW4D2D1_FACTORY_TYPE@@W4DWRITE_FACTORY_TYPE@@@Z 0042e17c f   nafxcw:afxglobals.obj
 0001:0002d266       ?DrawTextOnGlass@AFX_GLOBAL_DATA@@QAEHPAXPAVCDC@@HHV?$CStringT@DV?$StrTraitMFC@DV?$ChTraitsCRT@D@ATL@@@@@ATL@@VCRect@@KHK@Z 0042e266 f   nafxcw:afxglobals.obj
 0001:0002d395       ?Delete@?$CStringT@DV?$StrTraitMFC@DV?$ChTraitsCRT@D@ATL@@@@@ATL@@QAEHHH@Z 0042e395 f i nafxcw:afxglobals.obj
 0001:0002d40f       ?RegisterWindowClass@AFX_GLOBAL_DATA@@QAE?AV?$CStringT@DV?$StrTraitMFC@DV?$ChTraitsCRT@D@ATL@@@@@ATL@@PBD@Z 0042e40f f   nafxcw:afxglobals.obj
 0001:0002d4dc       ??0CMemDC@@QAE@AAVCDC@@PAVCWnd@@@Z 0042e4dc f   nafxcw:afxglobals.obj
 0001:0002d630       ??1CMemDC@@UAE@XZ          0042e630 f   nafxcw:afxglobals.obj
 0001:0002d700       ??1AFX_GLOBAL_DATA@@QAE@XZ 0042e700 f   nafxcw:afxglobals.obj
 0001:0002d897       ?UpdateSysColors@AFX_GLOBAL_DATA@@QAEXXZ 0042e897 f   nafxcw:afxglobals.obj
 0001:0002dc52       ?DrawParentBackground@AFX_GLOBAL_DATA@@QAEHPAVCWnd@@PAVCDC@@PAUtagRECT@@@Z 0042ec52 f   nafxcw:afxglobals.obj
 0001:0002dd5f       ??_ECMemDC@@UAEPAXI@Z      0042ed5f f i nafxcw:afxglobals.obj
 0001:0002dd5f       ??_GCMemDC@@UAEPAXI@Z      0042ed5f f i nafxcw:afxglobals.obj
 0001:0002ddc9       ?UpdateFonts@AFX_GLOBAL_DATA@@QAEXXZ 0042edc9 f   nafxcw:afxglobals.obj
 0001:0002e2cd       ??0AFX_GLOBAL_DATA@@QAE@XZ 0042f2cd f   nafxcw:afxglobals.obj
 0001:0002e66b       ??0CMFCControlContainer@@QAE@PAVCWnd@@@Z 0042f66b f   nafxcw:afxctrlcontainer.obj
 0001:0002e6a8       ?FreeSubclassedControls@CMFCControlContainer@@QAEXXZ 0042f6a8 f   nafxcw:afxctrlcontainer.obj
 0001:0002e6f3       ?SetControlData@CMFCControlContainer@@QAEXGKPAE@Z 0042f6f3 f   nafxcw:afxctrlcontainer.obj
 0001:0002e767       ?GetControlData@CMFCControlContainer@@QAEHGAAKAAPAE@Z 0042f767 f   nafxcw:afxctrlcontainer.obj
 0001:0002e7a6       ?ClearControlData@CMFCControlContainer@@QAEXXZ 0042f7a6 f   nafxcw:afxctrlcontainer.obj
 0001:0002e84f       ?AfxRegisterMFCCtrlClasses@@YAXXZ 0042f84f f   nafxcw:afxctrlcontainer.obj
 0001:0002e8f0       ??1CMFCControlContainer@@UAE@XZ 0042f8f0 f   nafxcw:afxctrlcontainer.obj
 0001:0002e938       ?IsSubclassedFeaturePackControl@CMFCControlContainer@@QAEHPAUHWND__@@@Z 0042f938 f   nafxcw:afxctrlcontainer.obj
 0001:0002e97d       ?PreUnsubclassControl@CMFCControlContainer@@IAEXPAVCWnd@@@Z 0042f97d f   nafxcw:afxctrlcontainer.obj
 0001:0002e9c2       ?ReSubclassControl@CMFCControlContainer@@QAEHPAUHWND__@@GAAVCWnd@@@Z 0042f9c2 f   nafxcw:afxctrlcontainer.obj
 0001:0002eab6       ?CompareNoCase@?$CStringT@DV?$StrTraitMFC@DV?$ChTraitsCRT@D@ATL@@@@@ATL@@QBEHPBD@Z 0042fab6 f i nafxcw:afxctrlcontainer.obj
 0001:0002eadc       ??_ECMFCControlContainer@@UAEPAXI@Z 0042fadc f i nafxcw:afxctrlcontainer.obj
 0001:0002eadc       ??_GCMFCControlContainer@@UAEPAXI@Z 0042fadc f i nafxcw:afxctrlcontainer.obj
 0001:0002eafd       ?ReadBoolProp@CMFCControlContainer@@SGHAAVCTagManager@@PBDAAH@Z 0042fafd f   nafxcw:afxctrlcontainer.obj
 0001:0002eb6e       ?UTF8ToString@CMFCControlContainer@@SGHPBDAAV?$CStringT@DV?$StrTraitMFC@DV?$ChTraitsCRT@D@ATL@@@@@ATL@@H@Z 0042fb6e f   nafxcw:afxctrlcontainer.obj
 0001:0002ec52       ?CreateDlgControl@CMFCControlContainer@@IAEPAVCWnd@@PBD@Z 0042fc52 f   nafxcw:afxctrlcontainer.obj
 0001:0002eedc       ?SubclassDlgControls@CMFCControlContainer@@QAEHXZ 0042fedc f   nafxcw:afxctrlcontainer.obj
 0001:0002efa5       ?AfxOleUnlockAllControls@@YGXXZ 0042ffa5 f   nafxcw:occlock.obj
 0001:0002efdf       ?Revoke@COleObjectFactory@@QAEXXZ 0042ffdf f   nafxcw:olefact.obj
 0001:0002f002       ?RevokeAll@COleObjectFactory@@SGXXZ 00430002 f   nafxcw:olefact.obj
 0001:0002f02e       ?BeginBusyState@COleMessageFilter@@UAEXXZ 0043002e f   nafxcw:olemsgf.obj
 0001:0002f032       ?EndBusyState@COleMessageFilter@@UAEXXZ 00430032 f   nafxcw:olemsgf.obj
 0001:0002f03e       ?Register@COleMessageFilter@@QAEHXZ 0043003e f   nafxcw:olemsgf.obj
 0001:0002f05d       ?Revoke@COleMessageFilter@@QAEXXZ 0043005d f   nafxcw:olemsgf.obj
 0001:0002f078       ?OnMessagePending@COleMessageFilter@@UAEHPBUtagMSG@@@Z 00430078 f   nafxcw:olemsgf.obj
 0001:0002f0c0       ?IsSignificantMessage@COleMessageFilter@@UAEHPAUtagMSG@@@Z 004300c0 f   nafxcw:olemsgf.obj
 0001:0002f118       ?GetInterfaceMap@COleMessageFilter@@MBEPBUAFX_INTERFACEMAP@@XZ 00430118 f   nafxcw:olemsgf.obj
 0001:0002f11e       ?AddRef@XMessageFilter@COleMessageFilter@@UAGKXZ 0043011e f   nafxcw:olemsgf.obj
 0001:0002f132       ?Release@XMessageFilter@COleMessageFilter@@UAGKXZ 00430132 f   nafxcw:olemsgf.obj
 0001:0002f146       ?QueryInterface@XMessageFilter@COleMessageFilter@@UAGJABU_GUID@@PAPAX@Z 00430146 f   nafxcw:olemsgf.obj
 0001:0002f160       ?HandleInComingCall@XMessageFilter@COleMessageFilter@@UAGKKPAUHTASK__@@KPAUtagINTERFACEINFO@@@Z 00430160 f   nafxcw:olemsgf.obj
 0001:0002f1c0       ??1COleMessageFilter@@UAE@XZ 004301c0 f   nafxcw:olemsgf.obj
 0001:0002f1d8       ?OnBusyDialog@COleMessageFilter@@UAEHPAUHTASK__@@@Z 004301d8 f   nafxcw:olemsgf.obj
 0001:0002f243       ?OnNotRespondingDialog@COleMessageFilter@@UAEHPAUHTASK__@@@Z 00430243 f   nafxcw:olemsgf.obj
 0001:0002f2af       ?RetryRejectedCall@XMessageFilter@COleMessageFilter@@UAGKPAUHTASK__@@KK@Z 004302af f   nafxcw:olemsgf.obj
 0001:0002f30a       ?MessagePending@XMessageFilter@COleMessageFilter@@UAGKPAUHTASK__@@KK@Z 0043030a f   nafxcw:olemsgf.obj
 0001:0002f3cf       ??_ECOleMessageFilter@@UAEPAXI@Z 004303cf f i nafxcw:olemsgf.obj
 0001:0002f3cf       ??_GCOleMessageFilter@@UAEPAXI@Z 004303cf f i nafxcw:olemsgf.obj
 0001:0002f3f0       ??0COleMessageFilter@@QAE@XZ 004303f0 f   nafxcw:olemsgf.obj
 0001:0002f434       ?CheckCount@CArchive@@QAEXXZ 00430434 f   nafxcw:arcobj.obj
 0001:0002f448       ?InsertAt@?$CArray@W4LoadArrayObjType@CArchive@@ABW412@@@QAEXHABW4LoadArrayObjType@CArchive@@H@Z 00430448 f i nafxcw:arcobj.obj
 0001:0002f4e6       ??1?$CArray@W4LoadArrayObjType@CArchive@@ABW412@@@UAE@XZ 004304e6 f i nafxcw:arcobj.obj
 0001:0002f4fb       ??_G?$CArray@W4LoadArrayObjType@CArchive@@ABW412@@@UAEPAXI@Z 004304fb f i nafxcw:arcobj.obj
 0001:0002f4fb       ??_E?$CArray@W4LoadArrayObjType@CArchive@@ABW412@@@UAEPAXI@Z 004304fb f i nafxcw:arcobj.obj
 0001:0002f51c       ?EnsureSchemaMapExists@CArchive@@QAEXPAPAV?$CArray@W4LoadArrayObjType@CArchive@@ABW412@@@@Z 0043051c f   nafxcw:arcobj.obj
 0001:0002f5fb       ?MapObject@CArchive@@QAEXPBVCObject@@@Z 004305fb f   nafxcw:arcobj.obj
 0001:0002f73a       ?WriteClass@CArchive@@QAEXPBUCRuntimeClass@@@Z 0043073a f   nafxcw:arcobj.obj
 0001:0002f7e9       ?ReadClass@CArchive@@QAEPAUCRuntimeClass@@PBU2@PAIPAK@Z 004307e9 f   nafxcw:arcobj.obj
 0001:0002f9ec       ?WriteObject@CArchive@@QAEXPBVCObject@@@Z 004309ec f   nafxcw:arcobj.obj
 0001:0002fa88       ?ReadObject@CArchive@@QAEPAVCObject@@PBUCRuntimeClass@@@Z 00430a88 f   nafxcw:arcobj.obj
 0001:0002fbf3       ?Detach@COleStreamFile@@QAEPAUIStream@@XZ 00430bf3 f   nafxcw:olestrm.obj
 0001:0002fbfb       ?Attach@COleStreamFile@@QAEXPAUIStream@@@Z 00430bfb f   nafxcw:olestrm.obj
 0001:0002fc17       ?_AfxReadFromStream@@YGJPAUIStream@@PAXIAAK@Z 00430c17 f   nafxcw:olestrm.obj
 0001:0002fc52       ?_AfxFillOleFileException@@YGXPAVCFileException@@J@Z 00430c52 f   nafxcw:olestrm.obj
 0001:0002fcbd       ?CreateMemoryStream@COleStreamFile@@QAEHPAVCFileException@@@Z 00430cbd f   nafxcw:olestrm.obj
 0001:0002fcf2       ?GetRuntimeClass@COleStreamFile@@UBEPAUCRuntimeClass@@XZ 00430cf2 f   nafxcw:olestrm.obj
 0001:0002fcf8       ?Abort@COleStreamFile@@UAEXXZ 00430cf8 f   nafxcw:olestrm.obj
 0001:0002fd1e       ?Close@COleStreamFile@@UAEXXZ 00430d1e f   nafxcw:olestrm.obj
 0001:0002fd41       ?GetStorageName@COleStreamFile@@UBE?BV?$CStringT@DV?$StrTraitMFC@DV?$ChTraitsCRT@D@ATL@@@@@ATL@@XZ 00430d41 f   nafxcw:olestrm.obj
 0001:0002fd64       ??1COleStreamFile@@UAE@XZ  00430d64 f   nafxcw:olestrm.obj
 0001:0002fe6f       ??_ECOleStreamFile@@UAEPAXI@Z 00430e6f f i nafxcw:olestrm.obj
 0001:0002fe6f       ??_GCOleStreamFile@@UAEPAXI@Z 00430e6f f i nafxcw:olestrm.obj
 0001:0002fe90       ??0COleStreamFile@@QAE@PAUIStream@@@Z 00430e90 f   nafxcw:olestrm.obj
 0001:0002ff77       ?_AfxThrowOleFileException@@YGXJ@Z 00430f77 f   nafxcw:olestrm.obj
 0001:0002ffb9       ?GetPosition@COleStreamFile@@UBE_KXZ 00430fb9 f   nafxcw:olestrm.obj
 0001:0002ffeb       ?Duplicate@COleStreamFile@@UBEPAVCFile@@XZ 00430feb f   nafxcw:olestrm.obj
 0001:00030054       ?Seek@COleStreamFile@@UAE_K_JI@Z 00431054 f   nafxcw:olestrm.obj
 0001:00030083       ?SetLength@COleStreamFile@@UAEX_K@Z 00431083 f   nafxcw:olestrm.obj
 0001:000300a5       ?GetLength@COleStreamFile@@UBE_KXZ 004310a5 f   nafxcw:olestrm.obj
 0001:000300e2       ?Read@COleStreamFile@@UAEIPAXI@Z 004310e2 f   nafxcw:olestrm.obj
 0001:0003010a       ?Write@COleStreamFile@@UAEXPBXI@Z 0043110a f   nafxcw:olestrm.obj
 0001:00030141       ?LockRange@COleStreamFile@@UAEX_K0@Z 00431141 f   nafxcw:olestrm.obj
 0001:0003016b       ?UnlockRange@COleStreamFile@@UAEX_K0@Z 0043116b f   nafxcw:olestrm.obj
 0001:00030195       ?Flush@COleStreamFile@@UAEXXZ 00431195 f   nafxcw:olestrm.obj
 0001:000301ab       ??1CEnumArray@@UAE@XZ      004311ab f   nafxcw:oleenum.obj
 0001:000301f2       ?OnSkip@CEnumArray@@MAEHXZ 004311f2 f   nafxcw:oleenum.obj
 0001:0003020a       ?OnReset@CEnumArray@@MAEXXZ 0043120a f   nafxcw:oleenum.obj
 0001:0003020f       ?AddRef@XEnumVOID@CEnumArray@@UAGKXZ 0043120f f   nafxcw:oleenum.obj
 0001:00030223       ?Release@XEnumVOID@CEnumArray@@UAGKXZ 00431223 f   nafxcw:oleenum.obj
 0001:00030237       ?QueryInterface@XEnumVOID@CEnumArray@@UAGJABU_GUID@@PAPAX@Z 00431237 f   nafxcw:oleenum.obj
 0001:00030251       ??_ECEnumArray@@UAEPAXI@Z  00431251 f i nafxcw:oleenum.obj
 0001:00030251       ??_GCEnumArray@@UAEPAXI@Z  00431251 f i nafxcw:oleenum.obj
 0001:00030272       ?OnNext@CEnumArray@@MAEHPAX@Z 00431272 f   nafxcw:oleenum.obj
 0001:000302aa       ?Next@XEnumVOID@CEnumArray@@UAGJKPAXPAK@Z 004312aa f   nafxcw:oleenum.obj
 0001:00030340       ?Skip@XEnumVOID@CEnumArray@@UAGJK@Z 00431340 f   nafxcw:oleenum.obj
 0001:000303ae       ?Reset@XEnumVOID@CEnumArray@@UAGJXZ 004313ae f   nafxcw:oleenum.obj
 0001:000303dc       ?Clone@XEnumVOID@CEnumArray@@UAGJPAPAUIEnumVOID@@@Z 004313dc f   nafxcw:oleenum.obj
 0001:00030461       ??0CEnumArray@@QAE@IPBXIH@Z 00431461 f   nafxcw:oleenum.obj
 0001:000304a2       ?OnClone@CEnumArray@@MAEPAV1@XZ 004314a2 f   nafxcw:oleenum.obj
 0001:000304e1       ??0_AFX_OLE_STATE@@QAE@XZ  004314e1 f   nafxcw:oledata.obj
 0001:000304ea       ??_E_AFX_OLE_STATE@@UAEPAXI@Z 004314ea f i nafxcw:oledata.obj
 0001:000304ea       ??_G_AFX_OLE_STATE@@UAEPAXI@Z 004314ea f i nafxcw:oledata.obj
 0001:0003050b       ?CreateFileA@CAtlTransactionManager@ATL@@QAEPAXPBDKKPAU_SECURITY_ATTRIBUTES@@KKPAX@Z 0043150b f i nafxcw:filest.obj
 0001:0003057f       ?GetFileAttributesExA@CAtlTransactionManager@ATL@@QAEHPBDW4_GET_FILEEX_INFO_LEVELS@@PAX@Z 0043157f f i nafxcw:filest.obj
 0001:000305cf       ?GetStatus@CFile@@SGHPBDAAUCFileStatus@@PAVCAtlTransactionManager@ATL@@@Z 004315cf f   nafxcw:filest.obj
 0001:0003072f       ?GetStatus@CFile@@QBEHAAUCFileStatus@@@Z 0043172f f   nafxcw:filest.obj
 0001:000308c4       ?GetFileName@CFile@@UBE?AV?$CStringT@DV?$StrTraitMFC@DV?$ChTraitsCRT@D@ATL@@@@@ATL@@XZ 004318c4 f   nafxcw:filest.obj
 0001:0003095f       ?GetFileTitle@CFile@@UBE?AV?$CStringT@DV?$StrTraitMFC@DV?$ChTraitsCRT@D@ATL@@@@@ATL@@XZ 0043195f f   nafxcw:filest.obj
 0001:000309fa       ?GetFilePath@CFile@@UBE?AV?$CStringT@DV?$StrTraitMFC@DV?$ChTraitsCRT@D@ATL@@@@@ATL@@XZ 004319fa f   nafxcw:filest.obj
 0001:00030a9a       ?Open@CFile@@UAEHPBDIPAVCAtlTransactionManager@ATL@@PAVCFileException@@@Z 00431a9a f   nafxcw:filecore.obj
 0001:00030ab7       ?GetRuntimeClass@CFile@@UBEPAUCRuntimeClass@@XZ 00431ab7 f   nafxcw:filecore.obj
 0001:00030abd       ?Read@CFile@@UAEIPAXI@Z    00431abd f   nafxcw:filecore.obj
 0001:00030aff       ?Write@CFile@@UAEXPBXI@Z   00431aff f   nafxcw:filecore.obj
 0001:00030b4c       ?Seek@CFile@@UAE_K_JI@Z    00431b4c f   nafxcw:filecore.obj
 0001:00030b9f       ?GetPosition@CFile@@UBE_KXZ 00431b9f f   nafxcw:filecore.obj
 0001:00030beb       ?Flush@CFile@@UAEXXZ       00431beb f   nafxcw:filecore.obj
 0001:00030c14       ?LockRange@CFile@@UAEX_K0@Z 00431c14 f   nafxcw:filecore.obj
 0001:00030c49       ?UnlockRange@CFile@@UAEX_K0@Z 00431c49 f   nafxcw:filecore.obj
 0001:00030c7e       ?SetLength@CFile@@UAEX_K@Z 00431c7e f   nafxcw:filecore.obj
 0001:00030cb4       ?GetLength@CFile@@UBE_KXZ  00431cb4 f   nafxcw:filecore.obj
 0001:00030cf5       ?AfxGetFileTitle@@YGIPBDPADI@Z 00431cf5 f   nafxcw:filecore.obj
 0001:00030d63       ?Close@CFile@@UAEXXZ       00431d63 f   nafxcw:filecore.obj
 0001:00030da7       ?Abort@CFile@@UAEXXZ       00431da7 f   nafxcw:filecore.obj
 0001:00030dc8       ??0CFile@@QAE@XZ           00431dc8 f   nafxcw:filecore.obj
 0001:00030df1       ??0CFile@@QAE@PAX@Z        00431df1 f   nafxcw:filecore.obj
 0001:00030e22       ?Duplicate@CFile@@UBEPAV1@XZ 00431e22 f   nafxcw:filecore.obj
 0001:00030eac       ?AfxGetRoot@@YGXPBDAAV?$CStringT@DV?$StrTraitMFC@DV?$ChTraitsCRT@D@ATL@@@@@ATL@@@Z 00431eac f   nafxcw:filecore.obj
 0001:00030ef8       ??1CFile@@UAE@XZ           00431ef8 f   nafxcw:filecore.obj
 0001:00030fff       ??_GCFile@@UAEPAXI@Z       00431fff f i nafxcw:filecore.obj
 0001:00030fff       ??_ECFile@@UAEPAXI@Z       00431fff f i nafxcw:filecore.obj
 0001:00031020       ?_AfxFillExceptionInfo@@YGXPAVCFileException@@PBD@Z 00432020 f   nafxcw:filecore.obj
 0001:0003104f       ?_AfxFullPath2@@YGHPADPBDPAVCFileException@@@Z 0043204f f   nafxcw:filecore.obj
 0001:00031220       ?AfxFullPath@@YGHPADPBD@Z  00432220 f   nafxcw:filecore.obj
 0001:00031236       ?Open@CFile@@UAEHPBDIPAVCFileException@@@Z 00432236 f   nafxcw:filecore.obj
 0001:0003142e       ?UpdatePrinterSelection@CWinApp@@IAEXH@Z 0043242e f   nafxcw:appprnt.obj
 0001:0003166a       ?GetPrinterDeviceDefaults@CWinApp@@QAEHPAUtagPDA@@@Z 0043266a f   nafxcw:appprnt.obj
 0001:000316bc       ?GetInterfaceMap@CFileDialog@@MBEPBUAFX_INTERFACEMAP@@XZ 004326bc f   nafxcw:dlgfile.obj
 0001:000316c2       ?CanInPlaceActivate@XOleIPSite@COleControlSite@@UAGJXZ 004326c2 f   nafxcw:occsite.obj
 0001:000316c2       ?EnsureVisible@CMFCBaseTabCtrl@@UAEHH@Z 004326c2 f   nafxcw:afxbasetabctrl.obj
 0001:000316c2       ?GetTabHorzMargin@CMFCVisualManager@@UAEHPBVCMFCBaseTabCtrl@@@Z 004326c2 f   nafxcw:afxvisualmanageroffice2007.obj
 0001:000316c2       ?TranslateChar@CMFCPopupMenuBar@@MAEHI@Z 004326c2 f   nafxcw:afxpopupmenubar.obj
 0001:000316c2       ?IsDefaultWinXPPopupButton@CMFCVisualManager@@UBEHPAVCMFCDesktopAlertWndButton@@@Z 004326c2 f   nafxcw:afxvisualmanageroffice2007.obj
 0001:000316c2       ?OnMenuKey@CMFCRibbonBaseElement@@UAEHI@Z 004326c2 f   nafxcw:afxbaseribbonelement.obj
 0001:000316c2       ?OnEraseMDIClientBackground@CMDIFrameWndEx@@UAEHPAVCDC@@@Z 004326c2 f   nafxcw:afxmdiframewndex.obj
 0001:000316c2       ?Release@XEventSink@COleControlSite@@UAGKXZ 004326c2 f   nafxcw:occsite.obj
 0001:000316c2       ?CompareItem@CComboBox@@UAEHPAUtagCOMPAREITEMSTRUCT@@@Z 004326c2 f   nafxcw:winctrl1.obj
 0001:000316c2       ?IsSelected@CView@@UBEHPBVCObject@@@Z 004326c2 f   nafxcw:viewcore.obj
 0001:000316c2       ?OnProcessKey@CMFCRibbonBaseElement@@MAEHI@Z 004326c2 f   nafxcw:afxbaseribbonelement.obj
 0001:000316c2       ?Release@XRowsetNotify@COleControlSite@@UAGKXZ 004326c2 f   nafxcw:occsite.obj
 0001:000316c2       ?GetConnectionHook@CCmdTarget@@MAEPAUIConnectionPoint@@ABU_GUID@@@Z 004326c2 f   nafxcw:cmdtarg.obj
 0001:000316c2       ?NotifyCommand@CMFCToolBarButton@@UAEHH@Z 004326c2 f   nafxcw:afxtoolbarbutton.obj
 0001:000316c2       ?Release@CArchiveStream@@UAGKXZ 004326c2 f   nafxcw:arcstrm.obj
 0001:000316c2       ?GetPreferedMenuLocation@CMFCRibbonPanel@@UAEHAAVCRect@@@Z 004326c2 f   nafxcw:afxribbonpanel.obj
 0001:000316c2       ?IsToolbarRoundShape@CMFCVisualManager@@UAEHPAVCMFCToolBar@@@Z 004326c2 f   nafxcw:afxvisualmanager.obj
 0001:000316c2       ?Release@XPropertyNotifySink@COleControlSite@@UAGKXZ 004326c2 f   nafxcw:occsite.obj
 0001:000316c2       ?CompareItem@CListBox@@UAEHPAUtagCOMPAREITEMSTRUCT@@@Z 004326c2 f   nafxcw:winctrl1.obj
 0001:000316c2       ?OnShareViolation@CFileDialog@@MAEIPBD@Z 004326c2 f   nafxcw:dlgfile.obj
 0001:000316c2       ?SetOccDialogInfo@CWnd@@MAEHPAU_AFX_OCC_DIALOG_INFO@@@Z 004326c2 f   nafxcw:wincore.obj
 0001:000316c2       ?GetDispatchIID@CCmdTarget@@UAEHPAU_GUID@@@Z 004326c2 f   nafxcw:cmdtarg.obj
 0001:000316c2       ?OnInPlaceActivate@XOleIPSite@COleControlSite@@UAGJXZ 004326c2 f   nafxcw:occsite.obj
 0001:000316c2       ?Release@XNotifyDBEvents@COleControlSite@@UAGKXZ 004326c2 f   nafxcw:occsite.obj
 0001:000316c2       ?OnKey@CMFCToolBar@@MAEHI@Z 004326c2 f   nafxcw:afxtoolbar.obj
 0001:000316c2       ?DiscardUndoState@XOleIPSite@COleControlSite@@UAGJXZ 004326c2 f   nafxcw:occsite.obj
 0001:000316c2       ?GetScrollBarCtrl@CWnd@@UBEPAVCScrollBar@@H@Z 004326c2 f   nafxcw:wincore.obj
 0001:000316c2       ?OnCustomizeMenu@CMFCToolBarButton@@UAEHPAVCMenu@@@Z 004326c2 f   nafxcw:afxtoolbarbutton.obj
 0001:000316c2       ?ResizeByPaneDivider@CDockingPanesRow@@UAEHH@Z 004326c2 f   nafxcw:afxdockingpanesrow.obj
 0001:000316c2       ?CanAcceptPane@CBasePane@@UBEHPBV1@@Z 004326c2 f   nafxcw:afxtoolbar.obj
 0001:000316c2       ?CanBeDocked@CBasePane@@UBEHPAV1@@Z 004326c2 f   nafxcw:afxbasepane.obj
 0001:000316c2       ?GetInterfaceHook@CCmdTarget@@UAEPAUIUnknown@@PBX@Z 004326c2 f   nafxcw:cmdtarg.obj
 0001:000316c2       ?OnGetCustomToolTipText@CMFCToolBarButton@@UAEHAAV?$CStringT@DV?$StrTraitMFC@DV?$ChTraitsCRT@D@ATL@@@@@ATL@@@Z 004326c2 f   nafxcw:afxtoolbarbutton.obj
 0001:000316c2       ?GetExtraConnectionPoints@CCmdTarget@@MAEHPAVCPtrArray@@@Z 004326c2 f   nafxcw:cmdtarg.obj
 0001:000316c2       ?CreateSite@COccManager@@UAEPAVCOleControlSite@@PAVCOleControlContainer@@@Z 004326c2 f   nafxcw:occmgr.obj
 0001:000316c2       ?OnContextHelp@CMFCToolBarButton@@UAEHPAVCWnd@@@Z 004326c2 f   nafxcw:afxtoolbarbutton.obj
 0001:000316c2       ?OnEraseBkgnd@CDummyDockablePane@@IAEHPAVCDC@@@Z 004326c2 f   nafxcw:afxdragframeimpl.obj
 0001:000316c2       ?IsAutoRepeatMode@CMFCRibbonBaseElement@@UBEHAAH@Z 004326c2 f   nafxcw:afxbaseribbonelement.obj
 0001:000316c2       ?OnSendCommand@CMFCToolBar@@MAEHPBVCMFCToolBarButton@@@Z 004326c2 f   nafxcw:afxtoolbar.obj
 0001:000316c7       ?OnDrawMenuLogo@COleDocIPFrameWndEx@@UAEXPAVCDC@@PAVCMFCPopupMenu@@ABVCRect@@@Z 004326c7 f   nafxcw:afxoledocipframewndex.obj
 0001:000316c7       ?OnLBSelChangedNotify@CFileDialog@@MAEXIII@Z 004326c7 f   nafxcw:dlgfile.obj
 0001:000316c7       ?OnAfterDock@CPane@@MAEXPAVCBasePane@@PBUtagRECT@@W4AFX_DOCK_METHOD@@@Z 004326c7 f   nafxcw:afxtoolbar.obj
 0001:000316c7       ?OnDrawMenuLogo@COleIPFrameWndEx@@UAEXPAVCDC@@PAVCMFCPopupMenu@@ABVCRect@@@Z 004326c7 f   nafxcw:afxoleipframewndex.obj
 0001:000316c7       ?AddRemoveSeparator@CMFCOutlookBarPane@@MAEXPBVCMFCToolBarButton@@ABVCPoint@@1@Z 004326c7 f   nafxcw:afxoutlookbarpane.obj
 0001:000316c7       ?OnDrawMenuLogo@CMDIFrameWndEx@@UAEXPAVCDC@@PAVCMFCPopupMenu@@ABVCRect@@@Z 004326c7 f   nafxcw:afxmdiframewndex.obj
 0001:000316c7       ?OnSize@COleIPFrameWnd@@IAEXIHH@Z 004326c7 f   nafxcw:oleipfrm.obj
 0001:000316c7       ?OnNcLButtonDblClk@CMFCEditBrowseCtrl@@IAEXIVCPoint@@@Z 004326c7 f   nafxcw:afxeditbrowsectrl.obj
 0001:000316c7       ?OnDrawMenuLogo@CFrameWndEx@@UAEXPAVCDC@@PAVCMFCPopupMenu@@ABVCRect@@@Z 004326c7 f   nafxcw:afxframewndex.obj
 0001:000316c7       ?OnContextMenu@CMFCPrintPreviewToolBar@@IAEXPAVCWnd@@VCPoint@@@Z 004326c7 f   nafxcw:afxpreviewviewex.obj
 0001:000316ca       ?OnActivateFrame@CView@@MAEXIPAVCFrameWnd@@@Z 004326ca f   nafxcw:viewcore.obj
 0001:000316ca       ?OnShowPane@CPaneFrameWnd@@UAEXPAVCDockablePane@@H@Z 004326ca f   nafxcw:afxpaneframewnd.obj
 0001:000316ca       ?Create@CSmartDockingGroupGuide@@UAEXW4SDMarkerPlace@CSmartDockingStandaloneGuide@@PAVCWnd@@@Z 004326ca f   nafxcw:afxsmartdockingguide.obj
 0001:000316ca       ?OnDrawMenuBorder@CMFCRibbonCategory@@UAEXPAVCDC@@PAVCMFCRibbonPanelMenuBar@@@Z 004326ca f   nafxcw:afxribboncategory.obj
 0001:000316ca       ?OnLButtonUp@CMFCRibbonBaseElement@@MAEXVCPoint@@@Z 004326ca f   nafxcw:afxbaseribbonelement.obj
 0001:000316ca       ?OnCheckButtonToggled@CFileDialog@@MAEXKH@Z 004326ca f   nafxcw:dlgfile.obj
 0001:000316ca       ?OnActivateApp@CMFCVisualManager@@UAEXPAVCWnd@@H@Z 004326ca f   nafxcw:afxvisualmanager.obj
 0001:000316ca       ?OnBeforeChangeParent@CBasePane@@UAEXPAVCWnd@@H@Z 004326ca f   nafxcw:afxpane.obj
 0001:000316ca       ?OnLButtonDblClk@CMFCRibbonBaseElement@@MAEXVCPoint@@@Z 004326ca f   nafxcw:afxbaseribbonelement.obj
 0001:000316ca       ?OnLButtonUp@CMFCRibbonLabel@@MAEXVCPoint@@@Z 004326ca f   nafxcw:afxribbonlabel.obj
 0001:000316ca       ?OnDrawMenuBorder@CMFCRibbonPanel@@MAEXPAVCDC@@PAVCMFCRibbonPanelMenuBar@@@Z 004326ca f   nafxcw:afxribbonpanel.obj
 0001:000316ca       ?OnLButtonUp@CMFCRibbonEdit@@UAEXVCPoint@@@Z 004326ca f   nafxcw:afxribbonedit.obj
 0001:000316ca       ?OnSizeMDIClient@CMDIFrameWndEx@@UAEXABVCRect@@0@Z 004326ca f   nafxcw:afxmdiframewndex.obj
 0001:000316ca       ?OnBarStyleChange@CControlBar@@UAEXKK@Z 004326ca f   nafxcw:barcore.obj
 0001:000316ca       ?OnChangeMenuHighlight@CMFCRibbonBaseElement@@UAEXPAVCMFCRibbonPanelMenuBar@@PAV1@@Z 004326ca f   nafxcw:afxbaseribbonelement.obj
 0001:000316ca       ?OnDrawDragRect@CPane@@MAEXPBUtagRECT@@0@Z 004326ca f   nafxcw:afxtoolbar.obj
 0001:000316ca       ?OnChangeSelection@CMFCPropertyGridCtrl@@UAEXPAVCMFCPropertyGridProperty@@0@Z 004326ca f   nafxcw:afxpropertygridctrl.obj
 0001:000316ca       ?OnMouseMove@CMFCRibbonBaseElement@@MAEXVCPoint@@@Z 004326ca f   nafxcw:afxbaseribbonelement.obj
 0001:000316ca       ?OnUpdateCmdUI@CMFCCaptionBar@@MAEXPAVCFrameWnd@@H@Z 004326ca f   nafxcw:afxcaptionbar.obj
 0001:000316ca       ?StoreRecentTabRelatedInfo@CPaneFrameWnd@@UAEXPAVCDockablePane@@0@Z 004326ca f   nafxcw:afxpaneframewnd.obj
 0001:000316ca       ?OnUpdateCmdUI@CBasePane@@UAEXPAVCFrameWnd@@H@Z 004326ca f   nafxcw:afxbasetoolbar.obj
 0001:000316ca       ?ScrollChild@CMFCTasksPane@@MAEXPAUHWND__@@H@Z 004326ca f   nafxcw:afxtaskspane.obj
 0001:000316ca       ?OnBeginPrinting@CView@@MAEXPAVCDC@@PAUCPrintInfo@@@Z 004326ca f   nafxcw:viewcore.obj
 0001:000316ca       ?OnNcCalcSize@CMFCOutlookBarToolBar@@QAEXHPAUtagNCCALCSIZE_PARAMS@@@Z 004326ca f   nafxcw:afxoutlookbartabctrl.obj
 0001:000316ca       ?OnEndPrinting@CView@@MAEXPAVCDC@@PAUCPrintInfo@@@Z 004326ca f   nafxcw:viewcore.obj
 0001:000316ca       ?OnItemSelected@CFileDialog@@MAEXKK@Z 004326ca f   nafxcw:dlgfile.obj
 0001:000316ca       ?OnNcCalcSize@CMFCPopupMenuBar@@IAEXHPAUtagNCCALCSIZE_PARAMS@@@Z 004326ca f   nafxcw:afxpopupmenubar.obj
 0001:000316ca       ?OnUpdateCmdUI@CDockBar@@MAEXPAVCFrameWnd@@H@Z 004326ca f   nafxcw:bardock.obj
 0001:000316cd       ?GetRuntimeClass@CFileDialog@@UBEPAUCRuntimeClass@@XZ 004326cd f   nafxcw:dlgfile.obj
 0001:000316d3       ?GetIFileSaveDialog@CFileDialog@@QAEPAUIFileSaveDialog@@XZ 004326d3 f   nafxcw:dlgfile.obj
 0001:000316ff       ?AddRef@XFileDialogEvents@CFileDialog@@UAGKXZ 004326ff f   nafxcw:dlgfile.obj
 0001:00031734       ?Release@XFileDialogEvents@CFileDialog@@UAGKXZ 00432734 f   nafxcw:dlgfile.obj
 0001:00031769       ?QueryInterface@XFileDialogEvents@CFileDialog@@UAGJABU_GUID@@PAPAX@Z 00432769 f   nafxcw:dlgfile.obj
 0001:000317a4       ?OnFileOk@XFileDialogEvents@CFileDialog@@UAGJPAUIFileDialog@@@Z 004327a4 f   nafxcw:dlgfile.obj
 0001:000317f6       ?OnFolderChange@XFileDialogEvents@CFileDialog@@UAGJPAUIFileDialog@@@Z 004327f6 f   nafxcw:dlgfile.obj
 0001:00031830       ?OnFolderChanging@XFileDialogEvents@CFileDialog@@UAGJPAUIFileDialog@@PAUIShellItem@@@Z 00432830 f   nafxcw:dlgfile.obj
 0001:00031856       ?OnHelp@XFileDialogEvents@CFileDialog@@UAGJPAUIFileDialog@@@Z 00432856 f   nafxcw:dlgfile.obj
 0001:0003187c       ?OnSelectionChange@XFileDialogEvents@CFileDialog@@UAGJPAUIFileDialog@@@Z 0043287c f   nafxcw:dlgfile.obj
 0001:000318b6       ?OnTypeChange@XFileDialogEvents@CFileDialog@@UAGJPAUIFileDialog@@@Z 004328b6 f   nafxcw:dlgfile.obj
 0001:00031910       ?OnOverwrite@XFileDialogEvents@CFileDialog@@UAGJPAUIFileDialog@@PAUIShellItem@@PAW4tagFDE_OVERWRITE_RESPONSE@@@Z 00432910 f   nafxcw:dlgfile.obj
 0001:00031936       ?AddRef@XFileDialogControlEvents@CFileDialog@@UAGKXZ 00432936 f   nafxcw:dlgfile.obj
 0001:0003196b       ?Release@XFileDialogControlEvents@CFileDialog@@UAGKXZ 0043296b f   nafxcw:dlgfile.obj
 0001:000319a0       ?QueryInterface@XFileDialogControlEvents@CFileDialog@@UAGJABU_GUID@@PAPAX@Z 004329a0 f   nafxcw:dlgfile.obj
 0001:000319e6       ?OnItemSelected@XFileDialogControlEvents@CFileDialog@@UAGJPAUIFileDialogCustomize@@KK@Z 004329e6 f   nafxcw:dlgfile.obj
 0001:00031a26       ?OnButtonClicked@XFileDialogControlEvents@CFileDialog@@UAGJPAUIFileDialogCustomize@@K@Z 00432a26 f   nafxcw:dlgfile.obj
 0001:00031a63       ?OnCheckButtonToggled@XFileDialogControlEvents@CFileDialog@@UAGJPAUIFileDialogCustomize@@KH@Z 00432a63 f   nafxcw:dlgfile.obj
 0001:00031aa3       ?OnControlActivating@XFileDialogControlEvents@CFileDialog@@UAGJPAUIFileDialogCustomize@@K@Z 00432aa3 f   nafxcw:dlgfile.obj
 0001:00031ae0       ?OnInitDone@CFileDialog@@MAEXXZ 00432ae0 f   nafxcw:dlgfile.obj
 0001:00031af9       ?OnNotify@CFileDialog@@MAEHIJPAJ@Z 00432af9 f   nafxcw:dlgfile.obj
 0001:00031bda       ?GetProcAddress_GetOpenFileNameA@CCommDlgWrapper@@QAE?AUGetOpenFileNameA_Type@1@XZ 00432bda f i nafxcw:dlgfile.obj
 0001:00031c09       ?_GetOpenFileNameA@CCommDlgWrapper@@QAEHPAUtagOFNA@@@Z 00432c09 f i nafxcw:dlgfile.obj
 0001:00031cad       ?GetProcAddress_GetSaveFileNameA@CCommDlgWrapper@@QAE?AUGetSaveFileNameA_Type@1@XZ 00432cad f i nafxcw:dlgfile.obj
 0001:00031cdc       ?_GetSaveFileNameA@CCommDlgWrapper@@QAEHPAUtagOFNA@@@Z 00432cdc f i nafxcw:dlgfile.obj
 0001:00031d80       ?AfxCtxGetOpenFileNameA@@YGHPAUtagOFNA@@@Z 00432d80 f i nafxcw:dlgfile.obj
 0001:00031d9c       ?AfxCtxGetSaveFileNameA@@YGHPAUtagOFNA@@@Z 00432d9c f i nafxcw:dlgfile.obj
 0001:00031db8       ??1CFileDialog@@UAE@XZ     00432db8 f   nafxcw:dlgfile.obj
 0001:00031e52       ??_GCFileDialog@@UAEPAXI@Z 00432e52 f i nafxcw:dlgfile.obj
 0001:00031e52       ??_ECFileDialog@@UAEPAXI@Z 00432e52 f i nafxcw:dlgfile.obj
 0001:00031e73       ?SetString@?$CSimpleStringT@_W$0A@@ATL@@QAEXPB_W@Z 00432e73 f i nafxcw:dlgfile.obj
 0001:00031e9b       ?OnShareViolation@XFileDialogEvents@CFileDialog@@UAGJPAUIFileDialog@@PAUIShellItem@@PAW4tagFDE_SHAREVIOLATION_RESPONSE@@@Z 00432e9b f   nafxcw:dlgfile.obj
 0001:00031f3a       ??0CFileDialog@@QAE@HPBD0K0PAVCWnd@@KH@Z 00432f3a f   nafxcw:dlgfile.obj
 0001:0003220a       ?ApplyOFNToShellDialog@CFileDialog@@QAEXXZ 0043320a f   nafxcw:dlgfile.obj
 0001:0003275b       ?DoModal@CFileDialog@@UAEHXZ 0043375b f   nafxcw:dlgfile.obj
 0001:000328a8       ?GetPathName@CFileDialog@@QBE?AV?$CStringT@DV?$StrTraitMFC@DV?$ChTraitsCRT@D@ATL@@@@@ATL@@XZ 004338a8 f   nafxcw:dlgfile.obj
 0001:00032a75       ??0?$CStringT@_WV?$StrTraitMFC@_WV?$ChTraitsCRT@_W@ATL@@@@@ATL@@QAE@PB_W@Z 00433a75 f i nafxcw:dlgfile.obj
 0001:00032ab9       ?UpdateOFNFromShellDialog@CFileDialog@@UAEXXZ 00433ab9 f   nafxcw:dlgfile.obj
 0001:00032edc       ?HasFont@@YAHPBUDLGTEMPLATE@@@Z 00433edc f i nafxcw:dlgtempl.obj
 0001:00032efb       ??1CDialogTemplate@@QAE@XZ 00433efb f   nafxcw:dlgtempl.obj
 0001:00032f09       ?Detach@CDialogTemplate@@QAEPAXXZ 00433f09 f   nafxcw:dlgtempl.obj
 0001:00032f0f       ?GetFontSizeField@CDialogTemplate@@KAPAEPBUDLGTEMPLATE@@@Z 00433f0f f   nafxcw:dlgtempl.obj
 0001:00032f63       ?GetTemplateSize@CDialogTemplate@@KAIPBUDLGTEMPLATE@@@Z 00433f63 f   nafxcw:dlgtempl.obj
 0001:00033030       ?SetTemplate@CDialogTemplate@@IAEHPBUDLGTEMPLATE@@I@Z 00434030 f   nafxcw:dlgtempl.obj
 0001:00033092       ?SetFont@CDialogTemplate@@QAEHPBDG@Z 00434092 f   nafxcw:dlgtempl.obj
 0001:000331e5       ?SetSystemFont@CDialogTemplate@@QAEHG@Z 004341e5 f   nafxcw:dlgtempl.obj
 0001:00033289       ??0CDialogTemplate@@QAE@PBUDLGTEMPLATE@@@Z 00434289 f   nafxcw:dlgtempl.obj
 0001:000332c5       ?GetFont@CDialogTemplate@@SAHPBUDLGTEMPLATE@@AAV?$CStringT@DV?$StrTraitMFC@DV?$ChTraitsCRT@D@ATL@@@@@ATL@@AAG@Z 004342c5 f   nafxcw:dlgtempl.obj
 0001:00033349       ?AfxFormatStrings@@YGXAAV?$CStringT@DV?$StrTraitMFC@DV?$ChTraitsCRT@D@ATL@@@@@ATL@@PBDPBQBDH@Z 00434349 f   nafxcw:apphelp.obj
 0001:0003348f       ?AfxFormatStrings@@YGXAAV?$CStringT@DV?$StrTraitMFC@DV?$ChTraitsCRT@D@ATL@@@@@ATL@@IPBQBDH@Z 0043448f f   nafxcw:apphelp.obj
 0001:000334f3       ?AfxFormatString1@@YGXAAV?$CStringT@DV?$StrTraitMFC@DV?$ChTraitsCRT@D@ATL@@@@@ATL@@IPBD@Z 004344f3 f   nafxcw:apphelp.obj
 0001:0003350d       ?Read@CArchiveStream@@UAGJPAXKPAK@Z 0043450d f   nafxcw:arcstrm.obj
 0001:0003355a       ?Write@CArchiveStream@@UAGJPBXKPAK@Z 0043455a f   nafxcw:arcstrm.obj
 0001:000335a8       ?RequestNewObjectLayout@XOleClientSite@COleControlSite@@UAGJXZ 004345a8 f   nafxcw:occsite.obj
 0001:000335a8       ?ShowPropertyFrame@XOleControlSite@COleControlSite@@UAGJXZ 004345a8 f   nafxcw:occsite.obj
 0001:000335a8       ?Revert@CArchiveStream@@UAGJXZ 004345a8 f   nafxcw:arcstrm.obj
 0001:000335a8       ?SaveObject@XOleClientSite@COleControlSite@@UAGJXZ 004345a8 f   nafxcw:occsite.obj
 0001:000335b0       ?GetIDsOfNames@XEventSink@COleControlSite@@UAGJABU_GUID@@PAPA_WIKPAJ@Z 004345b0 f   nafxcw:occsite.obj
 0001:000335b0       ?CopyTo@CArchiveStream@@UAGJPAUIStream@@T_ULARGE_INTEGER@@PAT3@2@Z 004345b0 f   nafxcw:arcstrm.obj
 0001:000335b0       ?UnlockRegion@CArchiveStream@@UAGJT_ULARGE_INTEGER@@0K@Z 004345b0 f   nafxcw:arcstrm.obj
 0001:000335b0       ?GetIDsOfNames@XAmbientProps@COleControlSite@@UAGJABU_GUID@@PAPA_WIKPAJ@Z 004345b0 f   nafxcw:occsite.obj
 0001:000335b0       ?LockRegion@CArchiveStream@@UAGJT_ULARGE_INTEGER@@0K@Z 004345b0 f   nafxcw:arcstrm.obj
 0001:000335b8       ?QueryInterface@CArchiveStream@@UAGJABU_GUID@@PAPAX@Z 004345b8 f   nafxcw:arcstrm.obj
 0001:00033609       ?Seek@CArchiveStream@@UAGJT_LARGE_INTEGER@@KPAT_ULARGE_INTEGER@@@Z 00434609 f   nafxcw:arcstrm.obj
 0001:00033671       ??0CArchiveStream@@QAE@PAVCArchive@@@Z 00434671 f   nafxcw:arcstrm.obj
 0001:00033688       ?GetDefaultAccelerator@CFrameWnd@@UAEPAUHACCEL__@@XZ 00434688 f   nafxcw:winfrm.obj
 0001:000336af       ?PreTranslateMessage@CFrameWnd@@UAEHPAUtagMSG@@@Z 004346af f   nafxcw:winfrm.obj
 0001:0003383d       ?OnHelpHitTest@CFrameWnd@@IAEJIJ@Z 0043483d f   nafxcw:winfrm.obj
 0001:00033853       ?AfxIsDescendant@@YGHPAUHWND__@@0@Z 00434853 f   nafxcw:winfrm.obj
 0001:00033873       ?EndModalState@CFrameWnd@@UAEXXZ 00434873 f   nafxcw:winfrm.obj
 0001:000338ee       ?ShowOwnedWindows@CFrameWnd@@QAEXH@Z 004348ee f   nafxcw:winfrm.obj
 0001:00033998       ?PreCreateWindow@CFrameWnd@@MAEHAAUtagCREATESTRUCTA@@@Z 00434998 f   nafxcw:winfrm.obj
 0001:000339d6       ?OnUpdateFrameMenu@CFrameWnd@@UAEXPAUHMENU__@@@Z 004349d6 f   nafxcw:winfrm.obj
 0001:00033a29       ?RemoveControlBar@CFrameWnd@@QAEXPAVCControlBar@@@Z 00434a29 f   nafxcw:winfrm.obj
 0001:00033a52       ?OnNcActivate@CFrameWnd@@IAEHH@Z 00434a52 f   nafxcw:winfrm.obj
 0001:00033a8c       ?OnDDETerminate@CFrameWnd@@IAEJIJ@Z 00434a8c f   nafxcw:winfrm.obj
 0001:00033aab       ?GetActiveView@CFrameWnd@@QBEPAVCView@@XZ 00434aab f   nafxcw:winfrm.obj
 0001:00033ab2       ?SetActiveView@CFrameWnd@@QAEXPAVCView@@H@Z 00434ab2 f   nafxcw:winfrm.obj
 0001:00033b10       ?OnSetFocus@CFrameWnd@@IAEXPAVCWnd@@@Z 00434b10 f   nafxcw:winfrm.obj
 0001:00033b30       ?OnInitMenu@CFrameWnd@@IAEXPAVCMenu@@@Z 00434b30 f   nafxcw:winfrm.obj
 0001:00033b5d       ?OnHelpPromptAddr@CFrameWnd@@IAEJIJ@Z 00434b5d f   nafxcw:winfrm.obj
 0001:00033b66       ?DelayUpdateFrameMenu@CFrameWnd@@UAEXPAUHMENU__@@@Z 00434b66 f   nafxcw:winfrm.obj
 0001:00033b7f       ?GetReBarCtrl@CMFCReBar@@QBEAAVCReBarCtrl@@XZ 00434b7f f   nafxcw:afxrebar.obj
 0001:00033b7f       ?GetActiveFrame@CFrameWnd@@UAEPAV1@XZ 00434b7f f   nafxcw:winfrm.obj
 0001:00033b7f       ?Clone@CAfxStringMgr@@UAEPAUIAtlStringMgr@ATL@@XZ 00434b7f f   nafxcw:strcore.obj
 0001:00033b82       ??1?$CTypedPtrArray@VCObArray@@PAVCBitmap@@@@UAE@XZ 00434b82 f i nafxcw:winfrm.obj
 0001:00033b87       ?BringToTop@CFrameWnd@@IAEXH@Z 00434b87 f   nafxcw:winfrm.obj
 0001:00033bbb       ?GetDockingFrame@CControlBar@@QBEPAVCFrameWnd@@XZ 00434bbb f   nafxcw:winfrm.obj
 0001:00033bd1       ?IsFloating@CControlBar@@QBEHXZ 00434bd1 f   nafxcw:winfrm.obj
 0001:00033c06       ?GetRuntimeClass@CFrameWnd@@UBEPAUCRuntimeClass@@XZ 00434c06 f   nafxcw:winfrm.obj
 0001:00033c0c       ?SetMenuBarVisibility@CFrameWnd@@UAEXK@Z 00434c0c f   nafxcw:winfrm.obj
 0001:00033c5f       ?GetTabsHeight@CMFCBaseTabCtrl@@UBEHXZ 00434c5f f   nafxcw:afxbasetabctrl.obj
 0001:00033c5f       ?GetMenuBarVisibility@CFrameWnd@@UBEKXZ 00434c5f f   nafxcw:winfrm.obj
 0001:00033c66       ?SetMenuBarState@CFrameWnd@@UAEHK@Z 00434c66 f   nafxcw:winfrm.obj
 0001:00033cd8       ?GetMenuBarState@CFrameWnd@@UBEKXZ 00434cd8 f   nafxcw:winfrm.obj
 0001:00033cdf       ?GetMenu@CFrameWnd@@UBEPAVCMenu@@XZ 00434cdf f   nafxcw:winfrm.obj
 0001:00033d0c       ??0CPushRoutingFrame@@QAE@PAVCFrameWnd@@@Z 00434d0c f i nafxcw:winfrm.obj
 0001:00033d46       ??1CPushRoutingFrame@@QAE@XZ 00434d46 f i nafxcw:winfrm.obj
 0001:00033d64       ?Pop@CPushRoutingFrame@@QAEXXZ 00434d64 f i nafxcw:winfrm.obj
 0001:00033d89       ?GetImageList@CToolBarCtrl@@QBEPAVCImageList@@XZ 00434d89 f i nafxcw:winfrm.obj
 0001:00033da2       ?LoadAccelTable@CFrameWnd@@QAEHPBD@Z 00434da2 f   nafxcw:winfrm.obj
 0001:00033dd0       ?OnPaletteChanged@CFrameWnd@@IAEXPAVCWnd@@@Z 00434dd0 f   nafxcw:winfrm.obj
 0001:00033df7       ?OnQueryNewPalette@CFrameWnd@@IAEHXZ 00434df7 f   nafxcw:winfrm.obj
 0001:00033e21       ?ExitHelpMode@CFrameWnd@@UAEXXZ 00434e21 f   nafxcw:winfrm.obj
 0001:00033ea1       ?OnSetCursor@CFrameWnd@@IAEHPAVCWnd@@II@Z 00434ea1 f   nafxcw:winfrm.obj
 0001:00033ed9       ?OnCommandHelp@CFrameWnd@@IAEJIJ@Z 00434ed9 f   nafxcw:winfrm.obj
 0001:00033f36       ?OnCommand@CFrameWnd@@MAEHIJ@Z 00434f36 f   nafxcw:winfrm.obj
 0001:00033fbb       ?NotifyFloatingWindows@CFrameWnd@@QAEXK@Z 00434fbb f   nafxcw:winfrm.obj
 0001:00034076       ?CreateView@CFrameWnd@@QAEPAVCWnd@@PAUCCreateContext@@I@Z 00435076 f   nafxcw:winfrm.obj
 0001:00034109       ?OnCreateClient@CFrameWnd@@MAEHPAUtagCREATESTRUCTA@@PAUCCreateContext@@@Z 00435109 f   nafxcw:winfrm.obj
 0001:00034130       ?OnCreateHelper@CFrameWnd@@IAEHPAUtagCREATESTRUCTA@@PAUCCreateContext@@@Z 00435130 f   nafxcw:winfrm.obj
 0001:00034183       ?GetIconWndClass@CFrameWnd@@IAEPBDKI@Z 00435183 f   nafxcw:winfrm.obj
 0001:0003420a       ?OnClose@CFrameWnd@@IAEXXZ 0043520a f   nafxcw:winfrm.obj
 0001:0003435a       ?OnCmdMsg@CFrameWnd@@UAEHIHPAXPAUAFX_CMDHANDLERINFO@@@Z 0043535a f   nafxcw:winfrm.obj
 0001:000343f4       ?OnHScroll@CFrameWnd@@IAEXIIPAVCScrollBar@@@Z 004353f4 f   nafxcw:winfrm.obj
 0001:0003441e       ?OnVScroll@CFrameWnd@@IAEXIIPAVCScrollBar@@@Z 0043541e f   nafxcw:winfrm.obj
 0001:00034448       ?OnActivateTopLevel@CFrameWnd@@IAEJIJ@Z 00435448 f   nafxcw:winfrm.obj
 0001:000344de       ?OnActivate@CFrameWnd@@IAEXIPAVCWnd@@H@Z 004354de f   nafxcw:winfrm.obj
 0001:000345db       ?OnSysCommand@CFrameWnd@@IAEXIJ@Z 004355db f   nafxcw:winfrm.obj
 0001:00034681       ?OnDropFiles@CFrameWnd@@IAEXPAUHDROP__@@@Z 00435681 f   nafxcw:winfrm.obj
 0001:0003472a       ?OnQueryEndSession@CFrameWnd@@IAEHXZ 0043572a f   nafxcw:winfrm.obj
 0001:00034764       ?OnEndSession@CFrameWnd@@IAEXH@Z 00435764 f   nafxcw:winfrm.obj
 0001:000347c5       ?OnDDEInitiate@CFrameWnd@@IAEJIJ@Z 004357c5 f   nafxcw:winfrm.obj
 0001:000348b0       ?GetActiveDocument@CFrameWnd@@UAEPAVCDocument@@XZ 004358b0 f   nafxcw:winfrm.obj
 0001:000348c1       ?ShowControlBar@CFrameWnd@@QAEXPAVCControlBar@@HH@Z 004358c1 f   nafxcw:winfrm.obj
 0001:000349cc       ?OnInitMenuPopup@CFrameWnd@@IAEXPAVCMenu@@IH@Z 004359cc f   nafxcw:winfrm.obj
 0001:00034b77       ?OnMenuSelect@CFrameWnd@@IAEXIIPAUHMENU__@@@Z 00435b77 f   nafxcw:winfrm.obj
 0001:00034d21       ?OnPopMessageString@CFrameWnd@@IAEJIJ@Z 00435d21 f   nafxcw:winfrm.obj
 0001:00034d48       ?GetMessageBar@CFrameWnd@@UAEPAVCWnd@@XZ 00435d48 f   nafxcw:winfrm.obj
 0001:00034d58       ?SetMessageText@CFrameWnd@@QAEXI@Z 00435d58 f   nafxcw:winfrm.obj
 0001:00034d74       ?GetControlBar@CFrameWnd@@QAEPAVCControlBar@@I@Z 00435d74 f   nafxcw:winfrm.obj
 0001:00034dbb       ?OnUpdateControlBarMenu@CFrameWnd@@QAEXPAVCCmdUI@@@Z 00435dbb f   nafxcw:winfrm.obj
 0001:00034dfe       ?OnBarCheck@CFrameWnd@@QAEHI@Z 00435dfe f   nafxcw:winfrm.obj
 0001:00034e3c       ?OnUpdateKeyIndicator@CFrameWnd@@IAEXPAVCCmdUI@@@Z 00435e3c f   nafxcw:winfrm.obj
 0001:00034e99       ?OnUpdateContextHelp@CFrameWnd@@IAEXPAVCCmdUI@@@Z 00435e99 f   nafxcw:winfrm.obj
 0001:00034ed9       ?OnSetPreviewMode@CFrameWnd@@UAEXHPAUCPrintPreviewState@@@Z 00435ed9 f   nafxcw:winfrm.obj
 0001:0003514a       ?OnIdleUpdateCmdUI@CFrameWnd@@IAEXXZ 0043614a f   nafxcw:winfrm.obj
 0001:000351c5       ?RecalcLayout@CFrameWnd@@UAEXH@Z 004361c5 f   nafxcw:winfrm.obj
 0001:000352cd       ?NegotiateBorderSpace@CFrameWnd@@UAEHIPAUtagRECT@@@Z 004362cd f   nafxcw:winfrm.obj
 0001:0003533e       ?OnSize@CFrameWnd@@IAEXIHH@Z 0043633e f   nafxcw:winfrm.obj
 0001:00035362       ?OnEraseBkgnd@CFrameWnd@@IAEHPAVCDC@@@Z 00436362 f   nafxcw:winfrm.obj
 0001:00035378       ?ActivateFrame@CFrameWnd@@UAEXH@Z 00436378 f   nafxcw:winfrm.obj
 0001:000353ce       ?OnMenuChar@CFrameWnd@@IAEJIIPAVCMenu@@@Z 004363ce f   nafxcw:winfrm.obj
 0001:00035401       ?SetMenu@CFrameWnd@@UAEHPAVCMenu@@@Z 00436401 f   nafxcw:winfrm.obj
 0001:00035448       ??1?$CArray@PAUHWND__@@PAU1@@@UAE@XZ 00436448 f i nafxcw:winfrm.obj
 0001:0003545d       ??0?$CList@PAUHWND__@@PAU1@@@QAE@H@Z 0043645d f i nafxcw:winfrm.obj
 0001:00035485       ??1?$CList@PAUHWND__@@PAU1@@@UAE@XZ 00436485 f i nafxcw:winfrm.obj
 0001:00035490       ??_E?$CArray@PAUHWND__@@PAU1@@@UAEPAXI@Z 00436490 f i nafxcw:winfrm.obj
 0001:00035490       ??_G?$CArray@PAUHWND__@@PAU1@@@UAEPAXI@Z 00436490 f i nafxcw:winfrm.obj
 0001:000354b1       ??_E?$CList@PAUHWND__@@PAU1@@@UAEPAXI@Z 004364b1 f i nafxcw:winfrm.obj
 0001:000354b1       ??_G?$CList@PAUHWND__@@PAU1@@@UAEPAXI@Z 004364b1 f i nafxcw:winfrm.obj
 0001:000354d8       ?BeginModalState@CFrameWnd@@UAEXXZ 004364d8 f   nafxcw:winfrm.obj
 0001:0003560a       ?OnEnable@CFrameWnd@@IAEXH@Z 0043660a f   nafxcw:winfrm.obj
 0001:000356ef       ?OnCreate@CFrameWnd@@IAEHPAUtagCREATESTRUCTA@@@Z 004366ef f   nafxcw:winfrm.obj
 0001:0003570c       ?OnEnterIdle@CFrameWnd@@IAEXIPAVCWnd@@@Z 0043670c f   nafxcw:winfrm.obj
 0001:00035740       ?AddFrameWnd@CFrameWnd@@IAEXXZ 00436740 f   nafxcw:winfrm.obj
 0001:0003575d       ?RemoveFrameWnd@CFrameWnd@@IAEXXZ 0043675d f   nafxcw:winfrm.obj
 0001:0003577a       ?OnSetMessageString@CFrameWnd@@IAEJIJ@Z 0043677a f   nafxcw:winfrm.obj
 0001:00035838       ?DestroyDockBars@CFrameWnd@@QAEXXZ 00436838 f   nafxcw:winfrm.obj
 0001:0003594a       ?OnToolTipText@CFrameWnd@@IAEHIPAUtagNMHDR@@PAJ@Z 0043694a f   nafxcw:winfrm.obj
 0001:00035a98       ??0CFrameWnd@@QAE@XZ       00436a98 f   nafxcw:winfrm.obj
 0001:00035bac       ?OnDestroy@CFrameWnd@@IAEXXZ 00436bac f   nafxcw:winfrm.obj
 0001:00035c06       ?GetMessageString@CFrameWnd@@UBEXIAAV?$CStringT@DV?$StrTraitMFC@DV?$ChTraitsCRT@D@ATL@@@@@ATL@@@Z 00436c06 f   nafxcw:winfrm.obj
 0001:00035c4d       ?CreateObject@CFrameWnd@@SGPAVCObject@@XZ 00436c4d f   nafxcw:winfrm.obj
 0001:00035c7d       ??1CFrameWnd@@UAE@XZ       00436c7d f   nafxcw:winfrm.obj
 0001:00035dc8       ?LoadFrame@CFrameWnd@@UAEHIKPAVCWnd@@PAUCCreateContext@@@Z 00436dc8 f   nafxcw:winfrm.obj
 0001:00035ed4       ?Create@CFrameWnd@@UAEHPBD0KABUtagRECT@@PAVCWnd@@0KPAUCCreateContext@@@Z 00436ed4 f   nafxcw:winfrm.obj
 0001:00035f80       ?OnDDEExecute@CFrameWnd@@IAEJIJ@Z 00436f80 f   nafxcw:winfrm.obj
 0001:0003607f       ?OnChevronPushed@CFrameWnd@@IAEHIPAUtagNMHDR@@PAJ@Z 0043707f f   nafxcw:winfrm.obj
 0001:00036780       ?GetThisMessageMap@CFrameWnd@@KGPBUAFX_MSGMAP@@XZ 00437780 f   nafxcw:winfrm.obj
 0001:00036780       ?GetMessageMap@CFrameWnd@@MBEPBUAFX_MSGMAP@@XZ 00437780 f   nafxcw:winfrm.obj
 0001:00036786       ?UpdateFrameTitleForDocument@CFrameWnd@@QAEXPBD@Z 00437786 f   nafxcw:winfrm.obj
 0001:00036898       ?OnUpdateFrameTitle@CFrameWnd@@UAEXH@Z 00437898 f   nafxcw:winfrm.obj
 0001:000368ed       ??0CView@@IAE@XZ           004378ed f   nafxcw:viewcore.obj
 0001:00036903       ?PreCreateWindow@CView@@MAEHAAUtagCREATESTRUCTA@@@Z 00437903 f   nafxcw:viewcore.obj
 0001:00036941       ?OnDestroy@CView@@IAEXXZ   00437941 f   nafxcw:viewcore.obj
 0001:00036971       ?PostNcDestroy@CView@@MAEXXZ 00437971 f   nafxcw:viewcore.obj
 0001:00036971       ?PostNcDestroy@CFrameWnd@@MAEXXZ 00437971 f   nafxcw:winfrm.obj
 0001:0003697d       ?OnPaint@CView@@IAEXXZ     0043797d f   nafxcw:viewcore.obj
 0001:000369c8       ?OnInitialUpdate@CView@@UAEXXZ 004379c8 f   nafxcw:viewcore.obj
 0001:000369d6       ?OnPrint@CView@@MAEXPAVCDC@@PAUCPrintInfo@@@Z 004379d6 f   nafxcw:viewcore.obj
 0001:000369ea       ?OnActivateView@CView@@MAEXHPAV1@0@Z 004379ea f   nafxcw:viewcore.obj
 0001:00036a0d       ?OnDragScroll@CView@@UAEKKVCPoint@@@Z 00437a0d f   nafxcw:viewcore.obj
 0001:00036a15       ?CreateDefaultMiniframe@CBasePane@@UAEPAVCPaneFrameWnd@@VCRect@@@Z 00437a15 f   nafxcw:afxbasepane.obj
 0001:00036a15       ?OnDragEnter@CView@@UAEKPAVCOleDataObject@@KVCPoint@@@Z 00437a15 f   nafxcw:viewcore.obj
 0001:00036a15       ?OnUpdateToolTip@CMFCToolBarButton@@UAEHPAVCWnd@@HAAVCToolTipCtrl@@AAV?$CStringT@DV?$StrTraitMFC@DV?$ChTraitsCRT@D@ATL@@@@@ATL@@@Z 00437a15 f   nafxcw:afxtoolbarbutton.obj
 0001:00036a15       ?OnDragEnter@CMFCBaseTabCtrl@@UAEKPAVCOleDataObject@@KVCPoint@@@Z 00437a15 f   nafxcw:afxbasetabctrl.obj
 0001:00036a15       ?OnDragOver@CMFCTabCtrl@@UAEKPAVCOleDataObject@@KVCPoint@@@Z 00437a15 f   nafxcw:afxtabctrl.obj
 0001:00036a15       ?OnGestureRotate@CWnd@@MAEHVCPoint@@N@Z 00437a15 f   nafxcw:wincore.obj
 0001:00036a15       ?OnDrop@CView@@UAEHPAVCOleDataObject@@KVCPoint@@@Z 00437a15 f   nafxcw:viewcore.obj
 0001:00036a15       ?OnDragOver@CMFCBaseTabCtrl@@UAEKPAVCOleDataObject@@KVCPoint@@@Z 00437a15 f   nafxcw:afxbasetabctrl.obj
 0001:00036a15       ?GetBufferPtr@CFile@@UAEIIIPAPAX0@Z 00437a15 f   nafxcw:filecore.obj
 0001:00036a15       ?OnGesturePan@CWnd@@MAEHVCPoint@@0@Z 00437a15 f   nafxcw:wincore.obj
 0001:00036a15       ?OnDrop@CMFCBaseTabCtrl@@UAEHPAVCOleDataObject@@KVCPoint@@@Z 00437a15 f   nafxcw:afxtabctrl.obj
 0001:00036a15       ?NotifyControlCommand@CMFCRibbonBaseElement@@MAEHHHIJ@Z 00437a15 f   nafxcw:afxbaseribbonelement.obj
 0001:00036a15       ?OnDragOver@CView@@UAEKPAVCOleDataObject@@KVCPoint@@@Z 00437a15 f   nafxcw:viewcore.obj
 0001:00036a1a       ?OnDropEx@CView@@UAEKPAVCOleDataObject@@KKVCPoint@@@Z 00437a1a f   nafxcw:viewcore.obj
 0001:00036a20       ??_9CView@@$BBII@AE        00437a20 f i nafxcw:viewcore.obj
 0001:00036a28       ??0CPushRoutingView@@QAE@PAVCView@@@Z 00437a28 f i nafxcw:viewcore.obj
 0001:00036a66       ??1CPushRoutingView@@QAE@XZ 00437a66 f i nafxcw:viewcore.obj
 0001:00036a84       ?Pop@CPushRoutingView@@QAEXXZ 00437a84 f i nafxcw:viewcore.obj
 0001:00036aa4       ?OnCreate@CView@@IAEHPAUtagCREATESTRUCTA@@@Z 00437aa4 f   nafxcw:viewcore.obj
 0001:00036ad9       ?OnCmdMsg@CView@@UAEHIHPAXPAUAFX_CMDHANDLERINFO@@@Z 00437ad9 f   nafxcw:viewcore.obj
 0001:00036b40       ?OnUpdate@CView@@MAEXPAV1@JPAVCObject@@@Z 00437b40 f   nafxcw:viewcore.obj
 0001:00036b50       ?OnPrintClient@CView@@IAEJIJ@Z 00437b50 f   nafxcw:viewcore.obj
 0001:00036b8e       ?OnMouseActivate@CView@@IAEHPAVCWnd@@II@Z 00437b8e f   nafxcw:viewcore.obj
 0001:00036c02       ?GetParentSplitter@CView@@SGPAVCSplitterWnd@@PBVCWnd@@H@Z 00437c02 f   nafxcw:viewcore.obj
 0001:00036c6c       ?GetScrollBarCtrl@CView@@UBEPAVCScrollBar@@H@Z 00437c6c f   nafxcw:viewcore.obj
 0001:00036ce6       ?OnUpdateSplitCmd@CView@@IAEXPAVCCmdUI@@@Z 00437ce6 f   nafxcw:viewcore.obj
 0001:00036d20       ?OnSplitCmd@CView@@IAEHI@Z 00437d20 f   nafxcw:viewcore.obj
 0001:00036d3c       ?OnUpdateNextPaneMenu@CView@@IAEXPAVCCmdUI@@@Z 00437d3c f   nafxcw:viewcore.obj
 0001:00036d7f       ?OnNextPaneCmd@CView@@IAEHI@Z 00437d7f f   nafxcw:viewcore.obj
 0001:00036dae       ?OnPrepareDC@CView@@UAEXPAVCDC@@PAUCPrintInfo@@@Z 00437dae f   nafxcw:viewcore.obj
 0001:00036de0       ?OnEndPrintPreview@CView@@MAEXPAVCDC@@PAUCPrintInfo@@UtagPOINT@@PAVCPreviewView@@@Z 00437de0 f   nafxcw:viewcore.obj
 0001:00036ea1       ?GetThisMessageMap@CView@@KGPBUAFX_MSGMAP@@XZ 00437ea1 f   nafxcw:viewcore.obj
 0001:00036ea7       ??1CView@@UAE@XZ           00437ea7 f   nafxcw:viewcore.obj
 0001:00036fb7       ?_AfxMapClientArea@@YGKPAUHWND__@@UtagPOINT@@@Z 00437fb7 f   nafxcw:winfrmx.obj
 0001:00037027       ?_AfxMapNonClientArea@@YGKH@Z 00438027 f   nafxcw:winfrmx.obj
 0001:00037042       ?OnHelp@CWnd@@QAEXXZ       00438042 f   nafxcw:winfrmx.obj
 0001:000370f0       ?OnHelp@CFrameWnd@@IAEXXZ  004380f0 f   nafxcw:winfrmx.obj
 0001:00037124       ?CanEnterHelpMode@CFrameWnd@@QAEHXZ 00438124 f   nafxcw:winfrmx.obj
 0001:00037181       ?SetHelpCapture@CFrameWnd@@IAEPAUHWND__@@UtagPOINT@@PAH@Z 00438181 f   nafxcw:winfrmx.obj
 0001:0003729c       ?ProcessHelpMsg@CFrameWnd@@IAEHAAUtagMSG@@PAK@Z 0043829c f   nafxcw:winfrmx.obj
 0001:0003749c       ?OnContextHelp@CFrameWnd@@QAEXXZ 0043849c f   nafxcw:winfrmx.obj
 0001:00037666       ??HATL@@YA?AV?$CStringT@DV?$StrTraitMFC@DV?$ChTraitsCRT@D@ATL@@@@@0@ABV10@0@Z 00438666 f i nafxcw:filelist.obj
 0001:000376bd       ?DeleteSubKey@CRegKey@ATL@@QAEJPBD@Z 004386bd f i nafxcw:afxdatarecovery.obj
 0001:0003772f       ?Open@CRegKey@ATL@@QAEJPAUHKEY__@@PBDK@Z 0043872f f i nafxcw:afxdatarecovery.obj
 0001:00037780       ?QueryStringValue@CRegKey@ATL@@QAEJPBDPADPAK@Z 00438780 f i nafxcw:afxdatarecovery.obj
 0001:000377e2       ?SetStringValue@CRegKey@ATL@@QAEJPBD0K@Z 004387e2 f i nafxcw:afxdatarecovery.obj
 0001:00037818       ?AfxAutosaveTimerProc@@YGXPAUHWND__@@IIK@Z 00438818 f   nafxcw:afxdatarecovery.obj
 0001:0003783e       ?SetAutosaveInterval@CDataRecoveryHandler@@UAEXH@Z 0043883e f   nafxcw:afxdatarecovery.obj
 0001:0003786f       ?AutosaveAllDocumentInfo@CDataRecoveryHandler@@UAEHXZ 0043886f f   nafxcw:afxdatarecovery.obj
 0001:000378f4       ?ReverseFind@?$CStringT@DV?$StrTraitMFC@DV?$ChTraitsCRT@D@ATL@@@@@ATL@@QBEHD@Z 004388f4 f i nafxcw:afxdatarecovery.obj
 0001:0003791b       ??0?$CMap@V?$CStringT@DV?$StrTraitMFC@DV?$ChTraitsCRT@D@ATL@@@@@ATL@@PBDV12@PBD@@QAE@H@Z 0043891b f i nafxcw:afxdatarecovery.obj
 0001:00037947       ??0?$CMap@V?$CStringT@DV?$StrTraitMFC@DV?$ChTraitsCRT@D@ATL@@@@@ATL@@PBDPAVCDocument@@PAV3@@@QAE@H@Z 00438947 f i nafxcw:afxdatarecovery.obj
 0001:00037973       ??0?$CMap@V?$CStringT@DV?$StrTraitMFC@DV?$ChTraitsCRT@D@ATL@@@@@ATL@@PBD_N_N@@QAE@H@Z 00438973 f i nafxcw:afxdatarecovery.obj
 0001:0003799f       ??0?$CMap@PAVCDocument@@PAV1@V?$CStringT@DV?$StrTraitMFC@DV?$ChTraitsCRT@D@ATL@@@@@ATL@@PBD@@QAE@H@Z 0043899f f i nafxcw:afxdatarecovery.obj
 0001:000379cb       ??$SerializeElements@_N@@YGXAAVCArchive@@PA_NH@Z 004389cb f i nafxcw:afxdatarecovery.obj
 0001:00037a49       ?DeleteAutosavedFile@CDataRecoveryHandler@@UAEHABV?$CStringT@DV?$StrTraitMFC@DV?$ChTraitsCRT@D@ATL@@@@@ATL@@@Z 00438a49 f   nafxcw:afxdatarecovery.obj
 0001:00037a7d       ??1CPair@?$CMap@V?$CStringT@DV?$StrTraitMFC@DV?$ChTraitsCRT@D@ATL@@@@@ATL@@PBDV12@PBD@@QAE@XZ 00438a7d f i nafxcw:afxdatarecovery.obj
 0001:00037a98       ??$CompareElements@V?$CStringT@DV?$StrTraitMFC@DV?$ChTraitsCRT@D@ATL@@@@@ATL@@PBD@@YGHPBV?$CStringT@DV?$StrTraitMFC@DV?$ChTraitsCRT@D@ATL@@@@@ATL@@PBQBD@Z 00438a98 f i nafxcw:afxdatarecovery.obj
 0001:00037ac0       ?GetAssocAt@?$CMap@V?$CStringT@DV?$StrTraitMFC@DV?$ChTraitsCRT@D@ATL@@@@@ATL@@PBDPAUHMENU__@@PAU3@@@IBEPAVCAssoc@1@PBDAAI1@Z 00438ac0 f i nafxcw:afxcontextmenumanager.obj
 0001:00037ac0       ?GetAssocAt@?$CMap@V?$CStringT@DV?$StrTraitMFC@DV?$ChTraitsCRT@D@ATL@@@@@ATL@@PBD_N_N@@IBEPAVCAssoc@1@PBDAAI1@Z 00438ac0 f i nafxcw:afxdatarecovery.obj
 0001:00037ac0       ?GetAssocAt@?$CMap@V?$CStringT@DV?$StrTraitMFC@DV?$ChTraitsCRT@D@ATL@@@@@ATL@@PBDV12@PBD@@IBEPAVCAssoc@1@PBDAAI1@Z 00438ac0 f i nafxcw:afxdatarecovery.obj
 0001:00037ac0       ?GetAssocAt@?$CMap@V?$CStringT@DV?$StrTraitMFC@DV?$ChTraitsCRT@D@ATL@@@@@ATL@@PBDPAVCDocument@@PAV3@@@IBEPAVCAssoc@1@PBDAAI1@Z 00438ac0 f i nafxcw:afxdatarecovery.obj
 0001:00037ac0       ?GetAssocAt@?$CMap@V?$CStringT@DV?$StrTraitMFC@DV?$ChTraitsCRT@D@ATL@@@@@ATL@@PBDHH@@IBEPAVCAssoc@1@PBDAAI1@Z 00438ac0 f i nafxcw:afxmousemanager.obj
 0001:00037ac0       ?GetAssocAt@?$CMap@V?$CStringT@DV?$StrTraitMFC@DV?$ChTraitsCRT@D@ATL@@@@@ATL@@PBDPAVCObList@@PAV3@@@IBEPAVCAssoc@1@PBDAAI1@Z 00438ac0 f i nafxcw:afxtoolbarscustomizedialog.obj
 0001:00037b14       ?GetRecoveredDocumentTitle@CDataRecoveryHandler@@UBE?AV?$CStringT@DV?$StrTraitMFC@DV?$ChTraitsCRT@D@ATL@@@@@ATL@@ABV23@@Z 00438b14 f   nafxcw:afxdatarecovery.obj
 0001:00037b8d       ??1?$CMap@V?$CStringT@DV?$StrTraitMFC@DV?$ChTraitsCRT@D@ATL@@@@@ATL@@PBDPAVCDocument@@PAV3@@@UAE@XZ 00438b8d f i nafxcw:afxdatarecovery.obj
 0001:00037b98       ?Lookup@?$CMap@V?$CStringT@DV?$StrTraitMFC@DV?$ChTraitsCRT@D@ATL@@@@@ATL@@PBD_N_N@@QBEHPBDAA_N@Z 00438b98 f i nafxcw:afxdatarecovery.obj
 0001:00037bc1       ??1?$CMap@V?$CStringT@DV?$StrTraitMFC@DV?$ChTraitsCRT@D@ATL@@@@@ATL@@PBD_N_N@@UAE@XZ 00438bc1 f i nafxcw:afxdatarecovery.obj
 0001:00037bcc       ??_E?$CMap@V?$CStringT@DV?$StrTraitMFC@DV?$ChTraitsCRT@D@ATL@@@@@ATL@@PBDPAVCDocument@@PAV3@@@UAEPAXI@Z 00438bcc f i nafxcw:afxdatarecovery.obj
 0001:00037bcc       ??_G?$CMap@V?$CStringT@DV?$StrTraitMFC@DV?$ChTraitsCRT@D@ATL@@@@@ATL@@PBDPAVCDocument@@PAV3@@@UAEPAXI@Z 00438bcc f i nafxcw:afxdatarecovery.obj
 0001:00037bf3       ??_E?$CMap@V?$CStringT@DV?$StrTraitMFC@DV?$ChTraitsCRT@D@ATL@@@@@ATL@@PBD_N_N@@UAEPAXI@Z 00438bf3 f i nafxcw:afxdatarecovery.obj
 0001:00037bf3       ??_G?$CMap@V?$CStringT@DV?$StrTraitMFC@DV?$ChTraitsCRT@D@ATL@@@@@ATL@@PBD_N_N@@UAEPAXI@Z 00438bf3 f i nafxcw:afxdatarecovery.obj
 0001:00037c1a       ?RemoveAll@?$CMap@V?$CStringT@DV?$StrTraitMFC@DV?$ChTraitsCRT@D@ATL@@@@@ATL@@PBDV12@PBD@@QAEXXZ 00438c1a f i nafxcw:afxdatarecovery.obj
 0001:00037c6c       ?FreeAssoc@?$CMap@V?$CStringT@DV?$StrTraitMFC@DV?$ChTraitsCRT@D@ATL@@@@@ATL@@PBDV12@PBD@@IAEXPAVCAssoc@1@@Z 00438c6c f i nafxcw:afxdatarecovery.obj
 0001:00037c9a       ?FreeAssoc@?$CMap@V?$CStringT@DV?$StrTraitMFC@DV?$ChTraitsCRT@D@ATL@@@@@ATL@@PBDPAVCDocument@@PAV3@@@IAEXPAVCAssoc@1@@Z 00438c9a f i nafxcw:afxdatarecovery.obj
 0001:00037ccb       ?RemoveAll@?$CMap@PAVCDocument@@PAV1@V?$CStringT@DV?$StrTraitMFC@DV?$ChTraitsCRT@D@ATL@@@@@ATL@@PBD@@QAEXXZ 00438ccb f i nafxcw:afxdatarecovery.obj
 0001:00037ccb       ?RemoveAll@?$CMap@KKV?$CStringT@DV?$StrTraitMFC@DV?$ChTraitsCRT@D@ATL@@@@@ATL@@PBD@@QAEXXZ 00438ccb f i nafxcw:afxcolorbar.obj
 0001:00037d21       ?NewAssoc@?$CMap@KKV?$CStringT@DV?$StrTraitMFC@DV?$ChTraitsCRT@D@ATL@@@@@ATL@@PBD@@IAEPAVCAssoc@1@K@Z 00438d21 f i nafxcw:afxcolorbar.obj
 0001:00037d21       ?NewAssoc@?$CMap@PAVCDocument@@PAV1@V?$CStringT@DV?$StrTraitMFC@DV?$ChTraitsCRT@D@ATL@@@@@ATL@@PBD@@IAEPAVCAssoc@1@PAVCDocument@@@Z 00438d21 f i nafxcw:afxdatarecovery.obj
 0001:00037db9       ?FreeAssoc@?$CMap@PAVCDocument@@PAV1@V?$CStringT@DV?$StrTraitMFC@DV?$ChTraitsCRT@D@ATL@@@@@ATL@@PBD@@IAEXPAVCAssoc@1@@Z 00438db9 f i nafxcw:afxdatarecovery.obj
 0001:00037deb       ?Initialize@CDataRecoveryHandler@@UAEHXZ 00438deb f   nafxcw:afxdatarecovery.obj
 0001:00037eaf       ?Lookup@?$CMap@V?$CStringT@DV?$StrTraitMFC@DV?$ChTraitsCRT@D@ATL@@@@@ATL@@PBDV12@PBD@@QBEHPBDAAV?$CStringT@DV?$StrTraitMFC@DV?$ChTraitsCRT@D@ATL@@@@@ATL@@@Z 00438eaf f i nafxcw:afxdatarecovery.obj
 0001:00037edc       ?RemoveKey@?$CMap@V?$CStringT@DV?$StrTraitMFC@DV?$ChTraitsCRT@D@ATL@@@@@ATL@@PBDV12@PBD@@QAEHPBD@Z 00438edc f i nafxcw:afxdatarecovery.obj
 0001:00037f43       ?GetNextAssoc@?$CMap@V?$CStringT@DV?$StrTraitMFC@DV?$ChTraitsCRT@D@ATL@@@@@ATL@@PBDV12@PBD@@QBEXAAPAU__POSITION@@AAV?$CStringT@DV?$StrTraitMFC@DV?$ChTraitsCRT@D@ATL@@@@@ATL@@1@Z 00438f43 f i nafxcw:afxdatarecovery.obj
 0001:00037fc8       ??1?$CMap@V?$CStringT@DV?$StrTraitMFC@DV?$ChTraitsCRT@D@ATL@@@@@ATL@@PBDV12@PBD@@UAE@XZ 00438fc8 f i nafxcw:afxdatarecovery.obj
 0001:00037fd3       ?RemoveKey@?$CMap@V?$CStringT@DV?$StrTraitMFC@DV?$ChTraitsCRT@D@ATL@@@@@ATL@@PBDPAVCDocument@@PAV3@@@QAEHPBD@Z 00438fd3 f i nafxcw:afxdatarecovery.obj
 0001:0003803a       ?Lookup@?$CMap@PAVCDocument@@PAV1@V?$CStringT@DV?$StrTraitMFC@DV?$ChTraitsCRT@D@ATL@@@@@ATL@@PBD@@QBEHPAVCDocument@@AAV?$CStringT@DV?$StrTraitMFC@DV?$ChTraitsCRT@D@ATL@@@@@ATL@@@Z 0043903a f i nafxcw:afxdatarecovery.obj
 0001:00038067       ??A?$CMap@PAVCDocument@@PAV1@V?$CStringT@DV?$StrTraitMFC@DV?$ChTraitsCRT@D@ATL@@@@@ATL@@PBD@@QAEAAV?$CStringT@DV?$StrTraitMFC@DV?$ChTraitsCRT@D@ATL@@@@@ATL@@PAVCDocument@@@Z 00439067 f i nafxcw:afxdatarecovery.obj
 0001:000380cb       ?RemoveKey@?$CMap@PAVCDocument@@PAV1@V?$CStringT@DV?$StrTraitMFC@DV?$ChTraitsCRT@D@ATL@@@@@ATL@@PBD@@QAEHPAVCDocument@@@Z 004390cb f i nafxcw:afxdatarecovery.obj
 0001:00038132       ??1?$CMap@PAVCDocument@@PAV1@V?$CStringT@DV?$StrTraitMFC@DV?$ChTraitsCRT@D@ATL@@@@@ATL@@PBD@@UAE@XZ 00439132 f i nafxcw:afxdatarecovery.obj
 0001:0003813d       ??_E?$CMap@V?$CStringT@DV?$StrTraitMFC@DV?$ChTraitsCRT@D@ATL@@@@@ATL@@PBDV12@PBD@@UAEPAXI@Z 0043913d f i nafxcw:afxdatarecovery.obj
 0001:0003813d       ??_G?$CMap@V?$CStringT@DV?$StrTraitMFC@DV?$ChTraitsCRT@D@ATL@@@@@ATL@@PBDV12@PBD@@UAEPAXI@Z 0043913d f i nafxcw:afxdatarecovery.obj
 0001:00038164       ??_E?$CMap@PAVCDocument@@PAV1@V?$CStringT@DV?$StrTraitMFC@DV?$ChTraitsCRT@D@ATL@@@@@ATL@@PBD@@UAEPAXI@Z 00439164 f i nafxcw:afxdatarecovery.obj
 0001:00038164       ??_G?$CMap@PAVCDocument@@PAV1@V?$CStringT@DV?$StrTraitMFC@DV?$ChTraitsCRT@D@ATL@@@@@ATL@@PBD@@UAEPAXI@Z 00439164 f i nafxcw:afxdatarecovery.obj
 0001:0003818b       ??0CDataRecoveryHandler@@QAE@KH@Z 0043918b f   nafxcw:afxdatarecovery.obj
 0001:0003823d       ?GetAutosaveInterval@CDataRecoveryHandler@@UBEHXZ 0043923d f i nafxcw:afxdatarecovery.obj
 0001:00038244       ?GetSaveDocumentInfoOnIdle@CDataRecoveryHandler@@UBEHXZ 00439244 f i nafxcw:afxdatarecovery.obj
 0001:00038244       ?GetTextOffset@CMFCRibbonButton@@MBEHXZ 00439244 f i nafxcw:afxribbonbar.obj
 0001:0003824b       ?SetSaveDocumentInfoOnIdle@CDataRecoveryHandler@@UAEXH@Z 0043924b f i nafxcw:afxdatarecovery.obj
 0001:0003825d       ?GetPopupMenuBorderSize@CMFCVisualManager@@UBEHXZ 0043925d f i nafxcw:afxvisualmanageroffice2007.obj
 0001:0003825d       ?GetShutdownByRestartManager@CDataRecoveryHandler@@UBEHXZ 0043925d f i nafxcw:afxdatarecovery.obj
 0001:00038264       ?SetShutdownByRestartManager@CDataRecoveryHandler@@UAEXH@Z 00439264 f i nafxcw:afxdatarecovery.obj
 0001:00038276       ?GetAutosavePath@CDataRecoveryHandler@@UBE?AV?$CStringT@DV?$StrTraitMFC@DV?$ChTraitsCRT@D@ATL@@@@@ATL@@XZ 00439276 f i nafxcw:afxdatarecovery.obj
 0001:0003829c       ?GetRestartIdentifier@CDataRecoveryHandler@@UBE?AV?$CStringT@DV?$StrTraitMFC@DV?$ChTraitsCRT@D@ATL@@@@@ATL@@XZ 0043929c f i nafxcw:afxdatarecovery.obj
 0001:000382c2       ?SetAutosavePath@CDataRecoveryHandler@@UAEXABV?$CStringT@DV?$StrTraitMFC@DV?$ChTraitsCRT@D@ATL@@@@@ATL@@@Z 004392c2 f i nafxcw:afxdatarecovery.obj
 0001:000382d3       ?SetRestartIdentifier@CDataRecoveryHandler@@UAEXABV?$CStringT@DV?$StrTraitMFC@DV?$ChTraitsCRT@D@ATL@@@@@ATL@@@Z 004392d3 f i nafxcw:afxdatarecovery.obj
 0001:000382e4       ??1CDataRecoveryHandler@@UAE@XZ 004392e4 f   nafxcw:afxdatarecovery.obj
 0001:000383c6       ?SaveOpenDocumentList@CDataRecoveryHandler@@UAEHXZ 004393c6 f   nafxcw:afxdatarecovery.obj
 0001:000384d0       ?RemoveDocumentInfo@CDataRecoveryHandler@@UAEHPAVCDocument@@@Z 004394d0 f   nafxcw:afxdatarecovery.obj
 0001:00038587       ?GetNormalDocumentTitle@CDataRecoveryHandler@@UBE?AV?$CStringT@DV?$StrTraitMFC@DV?$ChTraitsCRT@D@ATL@@@@@ATL@@PAVCDocument@@@Z 00439587 f   nafxcw:afxdatarecovery.obj
 0001:000385cf       ??_GCDataRecoveryHandler@@UAEPAXI@Z 004395cf f i nafxcw:afxdatarecovery.obj
 0001:000385cf       ??_ECDataRecoveryHandler@@UAEPAXI@Z 004395cf f i nafxcw:afxdatarecovery.obj
 0001:000385f0       ?GenerateAutosaveFileName@CDataRecoveryHandler@@UBE?AV?$CStringT@DV?$StrTraitMFC@DV?$ChTraitsCRT@D@ATL@@@@@ATL@@ABV23@@Z 004395f0 f   nafxcw:afxdatarecovery.obj
 0001:0003872b       ?Serialize@?$CMap@PAVCDocument@@PAV1@V?$CStringT@DV?$StrTraitMFC@DV?$ChTraitsCRT@D@ATL@@@@@ATL@@PBD@@UAEXAAVCArchive@@@Z 0043972b f i nafxcw:afxdatarecovery.obj
 0001:00038817       ??0CPair@?$CMap@V?$CStringT@DV?$StrTraitMFC@DV?$ChTraitsCRT@D@ATL@@@@@ATL@@PBDV12@PBD@@IAE@PBD@Z 00439817 f i nafxcw:afxdatarecovery.obj
 0001:0003883c       ?GetDocumentListName@CDataRecoveryHandler@@UBE?AV?$CStringT@DV?$StrTraitMFC@DV?$ChTraitsCRT@D@ATL@@@@@ATL@@PAVCDocument@@@Z 0043983c f   nafxcw:afxdatarecovery.obj
 0001:000388fc       ?NewAssoc@?$CMap@V?$CStringT@DV?$StrTraitMFC@DV?$ChTraitsCRT@D@ATL@@@@@ATL@@PBDV12@PBD@@IAEPAVCAssoc@1@PBD@Z 004398fc f i nafxcw:afxdatarecovery.obj
 0001:0003898b       ?NewAssoc@?$CMap@V?$CStringT@DV?$StrTraitMFC@DV?$ChTraitsCRT@D@ATL@@@@@ATL@@PBDPAVCObList@@PAV3@@@IAEPAVCAssoc@1@PBD@Z 0043998b f i nafxcw:afxtoolbarscustomizedialog.obj
 0001:0003898b       ?NewAssoc@?$CMap@V?$CStringT@DV?$StrTraitMFC@DV?$ChTraitsCRT@D@ATL@@@@@ATL@@PBD_N_N@@IAEPAVCAssoc@1@PBD@Z 0043998b f i nafxcw:afxdatarecovery.obj
 0001:0003898b       ?NewAssoc@?$CMap@V?$CStringT@DV?$StrTraitMFC@DV?$ChTraitsCRT@D@ATL@@@@@ATL@@PBDHH@@IAEPAVCAssoc@1@PBD@Z 0043998b f i nafxcw:afxmousemanager.obj
 0001:0003898b       ?NewAssoc@?$CMap@V?$CStringT@DV?$StrTraitMFC@DV?$ChTraitsCRT@D@ATL@@@@@ATL@@PBDPAVCDocument@@PAV3@@@IAEPAVCAssoc@1@PBD@Z 0043998b f i nafxcw:afxdatarecovery.obj
 0001:00038a1a       ??A?$CMap@V?$CStringT@DV?$StrTraitMFC@DV?$ChTraitsCRT@D@ATL@@@@@ATL@@PBDV12@PBD@@QAEAAV?$CStringT@DV?$StrTraitMFC@DV?$ChTraitsCRT@D@ATL@@@@@ATL@@PBD@Z 00439a1a f i nafxcw:afxdatarecovery.obj
 0001:00038a7e       ??A?$CMap@V?$CStringT@DV?$StrTraitMFC@DV?$ChTraitsCRT@D@ATL@@@@@ATL@@PBD_N_N@@QAEAA_NPBD@Z 00439a7e f i nafxcw:afxdatarecovery.obj
 0001:00038a7e       ??A?$CMap@V?$CStringT@DV?$StrTraitMFC@DV?$ChTraitsCRT@D@ATL@@@@@ATL@@PBDPAVCDocument@@PAV3@@@QAEAAPAVCDocument@@PBD@Z 00439a7e f i nafxcw:afxdatarecovery.obj
 0001:00038a7e       ??A?$CMap@V?$CStringT@DV?$StrTraitMFC@DV?$ChTraitsCRT@D@ATL@@@@@ATL@@PBDHH@@QAEAAHPBD@Z 00439a7e f i nafxcw:afxmousemanager.obj
 0001:00038a7e       ??A?$CMap@V?$CStringT@DV?$StrTraitMFC@DV?$ChTraitsCRT@D@ATL@@@@@ATL@@PBDPAVCObList@@PAV3@@@QAEAAPAVCObList@@PBD@Z 00439a7e f i nafxcw:afxtoolbarscustomizedialog.obj
 0001:00038ae2       ?ReadOpenDocumentList@CDataRecoveryHandler@@UAEHXZ 00439ae2 f   nafxcw:afxdatarecovery.obj
 0001:00038cb7       ?AutosaveDocumentInfo@CDataRecoveryHandler@@UAEHPAVCDocument@@H@Z 00439cb7 f   nafxcw:afxdatarecovery.obj
 0001:00038e98       ?CreateDocumentInfo@CDataRecoveryHandler@@UAEHPAVCDocument@@@Z 00439e98 f   nafxcw:afxdatarecovery.obj
 0001:00038fb0       ?UpdateDocumentInfo@CDataRecoveryHandler@@UAEHPAVCDocument@@@Z 00439fb0 f   nafxcw:afxdatarecovery.obj
 0001:00039024       ?DeleteAllAutosavedFiles@CDataRecoveryHandler@@UAEHXZ 0043a024 f   nafxcw:afxdatarecovery.obj
 0001:000390d0       ?ReopenPreviousDocuments@CDataRecoveryHandler@@UAEHXZ 0043a0d0 f   nafxcw:afxdatarecovery.obj
 0001:0003926c       ?QueryRestoreAutosavedDocuments@CDataRecoveryHandler@@UAEXXZ 0043a26c f   nafxcw:afxdatarecovery.obj
 0001:00039419       ?RestoreAutosavedDocuments@CDataRecoveryHandler@@UAEHXZ 0043a419 f   nafxcw:afxdatarecovery.obj
 0001:000398c1       ?Serialize@?$CMap@V?$CStringT@DV?$StrTraitMFC@DV?$ChTraitsCRT@D@ATL@@@@@ATL@@PBDV12@PBD@@UAEXAAVCArchive@@@Z 0043a8c1 f i nafxcw:afxdatarecovery.obj
 0001:000399e2       ?Serialize@?$CMap@V?$CStringT@DV?$StrTraitMFC@DV?$ChTraitsCRT@D@ATL@@@@@ATL@@PBDHH@@UAEXAAVCArchive@@@Z 0043a9e2 f i nafxcw:afxmousemanager.obj
 0001:000399e2       ?Serialize@?$CMap@V?$CStringT@DV?$StrTraitMFC@DV?$ChTraitsCRT@D@ATL@@@@@ATL@@PBDPAVCDocument@@PAV3@@@UAEXAAVCArchive@@@Z 0043a9e2 f i nafxcw:afxdatarecovery.obj
 0001:000399e2       ?Serialize@?$CMap@V?$CStringT@DV?$StrTraitMFC@DV?$ChTraitsCRT@D@ATL@@@@@ATL@@PBDPAVCObList@@PAV3@@@UAEXAAVCArchive@@@Z 0043a9e2 f i nafxcw:afxtoolbarscustomizedialog.obj
 0001:00039ac8       ?Serialize@?$CMap@V?$CStringT@DV?$StrTraitMFC@DV?$ChTraitsCRT@D@ATL@@@@@ATL@@PBD_N_N@@UAEXAAVCArchive@@@Z 0043aac8 f i nafxcw:afxdatarecovery.obj
 0001:00039bae       ?GetEventSinkEntry@CCmdTarget@@IAGPBUAFX_EVENTSINKMAP_ENTRY@@IPAUAFX_EVENT@@@Z 0043abae f   nafxcw:occevent.obj
 0001:00039c25       ?OnEvent@CCmdTarget@@QAEHIPAUAFX_EVENT@@PAUAFX_CMDHANDLERINFO@@@Z 0043ac25 f   nafxcw:occevent.obj
 0001:00039e2d       ?GetInterfaceMap@COleControlContainer@@MBEPBUAFX_INTERFACEMAP@@XZ 0043ae2d f   nafxcw:occcont.obj
 0001:00039e33       ?GetDispatchMap@COleControlContainer@@MBEPBUAFX_DISPMAP@@XZ 0043ae33 f   nafxcw:occcont.obj
 0001:00039e39       ??1COleControlSiteOrWnd@@QAE@XZ 0043ae39 f   nafxcw:occcont.obj
 0001:00039e48       ?OnUIActivate@COleControlContainer@@UAEXPAVCOleControlSite@@@Z 0043ae48 f   nafxcw:occcont.obj
 0001:00039e71       ?OnUIDeactivate@COleControlContainer@@UAEXPAVCOleControlSite@@@Z 0043ae71 f   nafxcw:occcont.obj
 0001:00039e8f       ?CheckRadioButton@COleControlContainer@@UAEXHHH@Z 0043ae8f f   nafxcw:occcont.obj
 0001:00039eba       ?GetDlgItem@COleControlContainer@@UBEPAVCWnd@@H@Z 0043aeba f   nafxcw:occcont.obj
 0001:00039ed7       ?GetDlgItemInt@COleControlContainer@@UBEIHPAHH@Z 0043aed7 f   nafxcw:occcont.obj
 0001:00039f96       ?GetDlgItemTextA@COleControlContainer@@UBEHHPADH@Z 0043af96 f   nafxcw:occcont.obj
 0001:00039fb8       ?SetDlgItemInt@COleControlContainer@@UAEXHIH@Z 0043afb8 f   nafxcw:occcont.obj
 0001:0003a013       ?SetDlgItemTextA@COleControlContainer@@UAEXHPBD@Z 0043b013 f   nafxcw:occcont.obj
 0001:0003a032       ?HandleSetFocus@COleControlContainer@@UAEHXZ 0043b032 f   nafxcw:occcont.obj
 0001:0003a03b       ?AfxGetDlgItemStartFromHWND@@YAPAUHWND__@@HPAU1@@Z 0043b03b f   nafxcw:occcont.obj
 0001:0003a066       ?QueryInterface@XOleIPFrame@COleControlContainer@@UAGJABU_GUID@@PAPAX@Z 0043b066 f   nafxcw:occcont.obj
 0001:0003a080       ?Release@XOleIPFrame@COleControlContainer@@UAGKXZ 0043b080 f   nafxcw:occcont.obj
 0001:0003a094       ?GetWindow@XOleIPFrame@COleControlContainer@@UAGJPAPAUHWND__@@@Z 0043b094 f   nafxcw:occcont.obj
 0001:0003a0ad       ?SetActiveObject@XOleIPFrame@COleControlContainer@@UAGJPAUIOleInPlaceActiveObject@@PB_W@Z 0043b0ad f   nafxcw:occcont.obj
 0001:0003a0e8       ?GetInterfaceMap@CEnumUnknown@@MBEPBUAFX_INTERFACEMAP@@XZ 0043b0e8 f   nafxcw:occcont.obj
 0001:0003a0ee       ??1CEnumUnknown@@UAE@XZ    0043b0ee f   nafxcw:occcont.obj
 0001:0003a137       ?OnNext@CEnumUnknown@@MAEHPAX@Z 0043b137 f   nafxcw:occcont.obj
 0001:0003a15a       ?QueryInterface@XOleContainer@COleControlContainer@@UAGJABU_GUID@@PAPAX@Z 0043b15a f   nafxcw:occcont.obj
 0001:0003a174       ?Release@XOleContainer@COleControlContainer@@UAGKXZ 0043b174 f   nafxcw:occcont.obj
 0001:0003a188       ?ParseDisplayName@XOleContainer@COleControlContainer@@UAGJPAUIBindCtx@@PA_WPAKPAPAUIMoniker@@@Z 0043b188 f   nafxcw:occcont.obj
 0001:0003a190       ?RemoveMenus@XOleIPFrame@COleControlContainer@@UAGJPAUHMENU__@@@Z 0043b190 f   nafxcw:occcont.obj
 0001:0003a190       ?GetTypeInfoCount@XAmbientProps@COleControlSite@@UAGJPAI@Z 0043b190 f   nafxcw:occsite.obj
 0001:0003a190       ?SetStatusText@XOleIPFrame@COleControlContainer@@UAGJPB_W@Z 0043b190 f   nafxcw:occcont.obj
 0001:0003a190       ?SetBorderSpace@XOleIPFrame@COleControlContainer@@UAGJPBUtagRECT@@@Z 0043b190 f   nafxcw:occcont.obj
 0001:0003a190       ?Commit@CArchiveStream@@UAGJK@Z 0043b190 f   nafxcw:arcstrm.obj
 0001:0003a190       ?GetBorder@XOleIPFrame@COleControlContainer@@UAGJPAUtagRECT@@@Z 0043b190 f   nafxcw:occcont.obj
 0001:0003a190       ?RequestBorderSpace@XOleIPFrame@COleControlContainer@@UAGJPBUtagRECT@@@Z 0043b190 f   nafxcw:occcont.obj
 0001:0003a190       ?GetExtendedControl@XOleControlSite@COleControlSite@@UAGJPAPAUIDispatch@@@Z 0043b190 f   nafxcw:occsite.obj
 0001:0003a190       ?ContextSensitiveHelp@CAccessibleProxy@ATL@@UAGJH@Z 0043b190 f   nafxcw:wincore.obj
 0001:0003a190       ?LockInPlaceActive@XOleControlSite@COleControlSite@@UAGJH@Z 0043b190 f   nafxcw:occsite.obj
 0001:0003a190       ?Clone@CArchiveStream@@UAGJPAPAUIStream@@@Z 0043b190 f   nafxcw:arcstrm.obj
 0001:0003a190       ?GetTypeInfoCount@XEventSink@COleControlSite@@UAGJPAI@Z 0043b190 f   nafxcw:occsite.obj
 0001:0003a190       ?ContextSensitiveHelp@XOleIPFrame@COleControlContainer@@UAGJH@Z 0043b190 f   nafxcw:occcont.obj
 0001:0003a190       ?LockContainer@XOleContainer@COleControlContainer@@UAGJH@Z 0043b190 f   nafxcw:occcont.obj
 0001:0003a190       ?ContextSensitiveHelp@XOleIPSite@COleControlSite@@UAGJH@Z 0043b190 f   nafxcw:occsite.obj
 0001:0003a198       ??0CControlCreationInfo@@QAE@XZ 0043b198 f   nafxcw:occcont.obj
 0001:0003a1a5       ?IsManaged@CControlCreationInfo@@QBEHXZ 0043b1a5 f   nafxcw:occcont.obj
 0001:0003a1ae       ?TransferAddTail@?$CTypedPtrList@VCPtrList@@PAUCOleControlSiteOrWnd@@@@QAEPAU__POSITION@@PAUCOleControlSiteOrWnd@@@Z 0043b1ae f i nafxcw:occcont.obj
 0001:0003a1ee       ?TransferInsertBefore@?$_CTypedPtrList@VCPtrList@@PAUCOleControlSiteOrWnd@@@@QAEPAU__POSITION@@PAU2@PAUCOleControlSiteOrWnd@@@Z 0043b1ee f i nafxcw:occcont.obj
 0001:0003a231       ?InitControlContainer@CWnd@@IAEHH@Z 0043b231 f   nafxcw:occcont.obj
 0001:0003a2fe       ??1?$CTypedPtrList@VCPtrList@@PAUCOleControlSiteOrWnd@@@@UAE@XZ 0043b2fe f i nafxcw:occcont.obj
 0001:0003a303       ?CreateControlCommon@COleControlContainer@@QAEHPAVCWnd@@ABU_GUID@@ABVCControlCreationInfo@@PBDKPBUtagPOINT@@PBUtagSIZE@@IPAVCFile@@HPA_WPAPAVCOleControlSite@@@Z 0043b303 f   nafxcw:occcont.obj
 0001:0003a442       ?CreateControl@COleControlContainer@@QAEHPAVCWnd@@ABU_GUID@@PBDKPBUtagPOINT@@PBUtagSIZE@@IPAVCFile@@HPA_WPAPAVCOleControlSite@@@Z 0043b442 f   nafxcw:occcont.obj
 0001:0003a4c8       ?CheckDlgButton@COleControlContainer@@UAEXHI@Z 0043b4c8 f   nafxcw:occcont.obj
 0001:0003a50a       ?GetDlgItem@COleControlContainer@@UBEXHPAPAUHWND__@@@Z 0043b50a f   nafxcw:occcont.obj
 0001:0003a549       ?SendDlgItemMessageA@COleControlContainer@@UAEJHIIJ@Z 0043b549 f   nafxcw:occcont.obj
 0001:0003a570       ?IsDlgButtonChecked@COleControlContainer@@UBEIH@Z 0043b570 f   nafxcw:occcont.obj
 0001:0003a5e2       ?AddRef@XOleIPFrame@COleControlContainer@@UAGKXZ 0043b5e2 f   nafxcw:occcont.obj
 0001:0003a5f8       ??_GCEnumUnknown@@UAEPAXI@Z 0043b5f8 f i nafxcw:occcont.obj
 0001:0003a5f8       ??_ECEnumUnknown@@UAEPAXI@Z 0043b5f8 f i nafxcw:occcont.obj
 0001:0003a619       ?AddRef@XOleContainer@COleControlContainer@@UAGKXZ 0043b619 f   nafxcw:occcont.obj
 0001:0003a62f       ??_E?$CTypedPtrList@VCPtrList@@PAUCOleControlSiteOrWnd@@@@UAEPAXI@Z 0043b62f f i nafxcw:occcont.obj
 0001:0003a62f       ??_G?$CTypedPtrList@VCPtrList@@PAUCOleControlSiteOrWnd@@@@UAEPAXI@Z 0043b62f f i nafxcw:occcont.obj
 0001:0003a650       ?CreateControl@CWnd@@QAEHABU_GUID@@PBDKPBUtagPOINT@@PBUtagSIZE@@PAV1@IPAVCFile@@HPA_W@Z 0043b650 f   nafxcw:occcont.obj
 0001:0003a69d       ??1COleControlContainer@@UAE@XZ 0043b69d f   nafxcw:occcont.obj
 0001:0003a79a       ?BroadcastAmbientPropertyChange@COleControlContainer@@UAEXJ@Z 0043b79a f   nafxcw:occcont.obj
 0001:0003a7fe       ?CreateControl@COleControlContainer@@QAEHPAVCWnd@@ABU_GUID@@PBDKABUtagRECT@@IPAVCFile@@HPA_WPAPAVCOleControlSite@@@Z 0043b7fe f   nafxcw:occcont.obj
 0001:0003a891       ?FindItem@COleControlContainer@@UBEPAVCOleControlSite@@I@Z 0043b891 f   nafxcw:occcont.obj
 0001:0003a8d8       ?FreezeAllEvents@COleControlContainer@@QAEXH@Z 0043b8d8 f   nafxcw:occcont.obj
 0001:0003a90e       ?ScrollChildren@COleControlContainer@@UAEXHH@Z 0043b90e f   nafxcw:occcont.obj
 0001:0003a95f       ?HandleWindowlessMessage@COleControlContainer@@UAEHIIJPAJ@Z 0043b95f f   nafxcw:occcont.obj
 0001:0003aa65       ?OnPaint@COleControlContainer@@UAEHPAVCDC@@@Z 0043ba65 f   nafxcw:occcont.obj
 0001:0003aafa       ?FillListSitesOrWnds@COleControlContainer@@UAEHPAU_AFX_OCC_DIALOG_INFO@@@Z 0043bafa f   nafxcw:occcont.obj
 0001:0003ac56       ?EnumObjects@XOleContainer@COleControlContainer@@UAGJKPAPAUIEnumUnknown@@@Z 0043bc56 f   nafxcw:occcont.obj
 0001:0003ad54       ?CreateControl@CWnd@@QAEHABU_GUID@@PBDKABUtagRECT@@PAV1@IPAVCFile@@HPA_W@Z 0043bd54 f   nafxcw:occcont.obj
 0001:0003adde       ??_GCOleControlContainer@@UAEPAXI@Z 0043bdde f i nafxcw:occcont.obj
 0001:0003adde       ??_ECOleControlContainer@@UAEPAXI@Z 0043bdde f i nafxcw:occcont.obj
 0001:0003adff       ??0COleControlContainer@@QAE@PAVCWnd@@@Z 0043bdff f   nafxcw:occcont.obj
 0001:0003ae74       ?CreateOleFont@COleControlContainer@@QAEXPAVCFont@@@Z 0043be74 f   nafxcw:occcont.obj
 0001:0003afae       ?GetAmbientProp@COleControlContainer@@UAEHPAVCOleControlSite@@JPAUtagVARIANT@@@Z 0043bfae f   nafxcw:occcont.obj
 0001:0003b192       ?IsAutoAccessor@CAccessorBase@ATL@@QBE_NK@Z 0043c192 f i nafxcw:occsite.obj
 0001:0003b1b1       ?AllocateAccessorMemory@CAccessorBase@ATL@@QAEJH@Z 0043c1b1 f i nafxcw:occsite.obj
 0001:0003b212       ?BindEntries@CAccessorBase@ATL@@SAJPAUtagDBBINDING@@KPAKKPAUIAccessor@@@Z 0043c212 f i nafxcw:occsite.obj
 0001:0003b273       ?Close@CDynamicAccessor@ATL@@QAEXXZ 0043c273 f i nafxcw:occsite.obj
 0001:0003b2b1       ?BindEx@CDynamicAccessor@ATL@@SAXPAUtagDBBINDING@@KGKEEKKKKPAUtagDBOBJECT@@K_N@Z 0043c2b1 f i nafxcw:occsite.obj
 0001:0003b33f       ?TranslateColumnNo@CDynamicAccessor@ATL@@QBE_NAAK@Z 0043c33f f i nafxcw:occsite.obj
 0001:0003b396       ?GetAlignment@CDynamicAccessor@ATL@@SAIG@Z 0043c396 f i nafxcw:occsite.obj
 0001:0003b452       ?AtlComPtrAssign@ATL@@YGPAUIUnknown@@PAPAU2@PAU2@@Z 0043c452 f i nafxcw:occsite.obj
 0001:0003b487       ??1CManualAccessor@ATL@@QAE@XZ 0043c487 f i nafxcw:occsite.obj
 0001:0003b4a0       ?CreateAccessor@CManualAccessor@ATL@@QAEJHPAXK@Z 0043c4a0 f i nafxcw:occsite.obj
 0001:0003b529       ?GetInterfaceMap@COleControlSite@@MBEPBUAFX_INTERFACEMAP@@XZ 0043c529 f   nafxcw:occsite.obj
 0001:0003b52f       ?CreateControl@COleControlSite@@UAEJPAVCWnd@@ABU_GUID@@PBDKPBUtagPOINT@@PBUtagSIZE@@IPAVCFile@@HPA_W@Z 0043c52f f   nafxcw:occsite.obj
 0001:0003b5ab       ?CreateControl@COleControlSite@@QAEJPAVCWnd@@ABVCControlCreationInfo@@KPBUtagPOINT@@PBUtagSIZE@@I@Z 0043c5ab f   nafxcw:occsite.obj
 0001:0003b5d9       ?_AfxCoCreateInstanceLic@@YGJABU_GUID@@PAUIUnknown@@K0PAPAXPA_W@Z 0043c5d9 f   nafxcw:occsite.obj
 0001:0003b670       ?CreateOrLoad@COleControlSite@@MAEJABVCControlCreationInfo@@@Z 0043c670 f   nafxcw:occsite.obj
 0001:0003b678       ?IsDefaultButton@COleControlSite@@QAEHXZ 0043c678 f   nafxcw:occsite.obj
 0001:0003b68c       ?GetDefBtnCode@COleControlSite@@QAEKXZ 0043c68c f   nafxcw:occsite.obj
 0001:0003b6ab       ?SetDefaultButton@COleControlSite@@QAEXH@Z 0043c6ab f   nafxcw:occsite.obj
 0001:0003b712       ?ConnectSink@COleControlSite@@IAEKABU_GUID@@PAUIUnknown@@@Z 0043c712 f   nafxcw:occsite.obj
 0001:0003b77e       ?DisconnectSink@COleControlSite@@IAEXABU_GUID@@K@Z 0043c77e f   nafxcw:occsite.obj
 0001:0003b7e0       ?GetEventIID@COleControlSite@@QAEHPAU_GUID@@@Z 0043c7e0 f   nafxcw:occsite.obj
 0001:0003b95e       ?GetControlInfo@COleControlSite@@IAEXXZ 0043c95e f   nafxcw:occsite.obj
 0001:0003b9b7       ?IsMatchingMnemonic@COleControlSite@@QAEHPAUtagMSG@@@Z 0043c9b7 f   nafxcw:occsite.obj
 0001:0003ba6a       ?SendMnemonic@COleControlSite@@QAEXPAUtagMSG@@@Z 0043ca6a f   nafxcw:occsite.obj
 0001:0003bac6       ?FreezeEvents@COleControlSite@@QAEXH@Z 0043cac6 f   nafxcw:occsite.obj
 0001:0003bb0d       ?AttachWindow@COleControlSite@@QAEXXZ 0043cb0d f   nafxcw:occsite.obj
 0001:0003bb55       ?DetachWindow@COleControlSite@@QAEXXZ 0043cb55 f   nafxcw:occsite.obj
 0001:0003bba5       ?OnEvent@COleControlSite@@IAEHPAUAFX_EVENT@@@Z 0043cba5 f   nafxcw:occsite.obj
 0001:0003bbf7       ?InvokeHelperV@COleControlSite@@UAEXJGGPAXPBEPAD@Z 0043cbf7 f   nafxcw:occsite.obj
 0001:0003bc53       ?SetPropertyV@COleControlSite@@UAEXJGPAD@Z 0043cc53 f   nafxcw:occsite.obj
 0001:0003bcb5       ?InvokeHelper@COleControlSite@@UAAXJGGPAXPBEZZ 0043ccb5 f   nafxcw:occsite.obj
 0001:0003bcd7       ?GetProperty@COleControlSite@@UBEXJGPAX@Z 0043ccd7 f   nafxcw:occsite.obj
 0001:0003bcf6       ?SetProperty@COleControlSite@@UAAXJGZZ 0043ccf6 f   nafxcw:occsite.obj
 0001:0003bd0f       ?SafeSetProperty@COleControlSite@@UAAHJGZZ 0043cd0f f   nafxcw:occsite.obj
 0001:0003bd57       ?GetStyle@COleControlSite@@UBEKXZ 0043cd57 f   nafxcw:occsite.obj
 0001:0003be0c       ?GetExStyle@COleControlSite@@UBEKXZ 0043ce0c f   nafxcw:occsite.obj
 0001:0003be67       ?ModifyStyle@COleControlSite@@UAEHKKI@Z 0043ce67 f   nafxcw:occsite.obj
 0001:0003bf04       ?ModifyStyleEx@COleControlSite@@UAEHKKI@Z 0043cf04 f   nafxcw:occsite.obj
 0001:0003bf60       ?SetWindowTextA@COleControlSite@@UAEXPBD@Z 0043cf60 f   nafxcw:occsite.obj
 0001:0003bfa2       ?GetWindowTextA@COleControlSite@@UBEXAAV?$CStringT@DV?$StrTraitMFC@DV?$ChTraitsCRT@D@ATL@@@@@ATL@@@Z 0043cfa2 f   nafxcw:occsite.obj
 0001:0003c005       ?GetDlgCtrlID@COleControlSite@@UBEHXZ 0043d005 f   nafxcw:occsite.obj
 0001:0003c009       ?SetDlgCtrlID@COleControlSite@@UAEHH@Z 0043d009 f   nafxcw:occsite.obj
 0001:0003c01b       ?ShowWindow@COleControlSite@@UAEHH@Z 0043d01b f   nafxcw:occsite.obj
 0001:0003c05f       ?IsWindowEnabled@COleControlSite@@UBEHXZ 0043d05f f   nafxcw:occsite.obj
 0001:0003c0b3       ?EnableWindow@COleControlSite@@UAEHH@Z 0043d0b3 f   nafxcw:occsite.obj
 0001:0003c14c       ?Release@XOleClientSite@COleControlSite@@UAGKXZ 0043d14c f   nafxcw:occsite.obj
 0001:0003c163       ?QueryInterface@XOleClientSite@COleControlSite@@UAGJABU_GUID@@PAPAX@Z 0043d163 f   nafxcw:occsite.obj
 0001:0003c180       ?GetContainer@XOleClientSite@COleControlSite@@UAGJPAPAUIOleContainer@@@Z 0043d180 f   nafxcw:occsite.obj
 0001:0003c19f       ?Release@XOleIPSite@COleControlSite@@UAGKXZ 0043d19f f   nafxcw:occsite.obj
 0001:0003c1b6       ?QueryInterface@XOleIPSite@COleControlSite@@UAGJABU_GUID@@PAPAX@Z 0043d1b6 f   nafxcw:occsite.obj
 0001:0003c1d3       ?OnUIActivate@XOleIPSite@COleControlSite@@UAGJXZ 0043d1d3 f   nafxcw:occsite.obj
 0001:0003c1fa       ?LoadState@CMFCOutlookBarToolBar@@UAEHPBDHI@Z 0043d1fa f   nafxcw:afxoutlookbartabctrl.obj
 0001:0003c1fa       ?SaveState@CMFCOutlookBarToolBar@@UAEHPBDHI@Z 0043d1fa f   nafxcw:afxoutlookbartabctrl.obj
 0001:0003c1fa       ?Scroll@XOleIPSite@COleControlSite@@UAGJUtagSIZE@@@Z 0043d1fa f   nafxcw:occsite.obj
 0001:0003c200       ?OnUIDeactivate@XOleIPSite@COleControlSite@@UAGJH@Z 0043d200 f   nafxcw:occsite.obj
 0001:0003c21f       ?DeactivateAndUndo@XOleIPSite@COleControlSite@@UAGJXZ 0043d21f f   nafxcw:occsite.obj
 0001:0003c241       ?OnInPlaceDeactivateEx@XOleIPSite@COleControlSite@@UAGJH@Z 0043d241 f   nafxcw:occsite.obj
 0001:0003c253       ?Release@XOleControlSite@COleControlSite@@UAGKXZ 0043d253 f   nafxcw:occsite.obj
 0001:0003c26a       ?QueryInterface@XOleControlSite@COleControlSite@@UAGJABU_GUID@@PAPAX@Z 0043d26a f   nafxcw:occsite.obj
 0001:0003c287       ?OnControlInfoChanged@XOleControlSite@COleControlSite@@UAGJXZ 0043d287 f   nafxcw:occsite.obj
 0001:0003c2a0       ?TransformCoords@XOleControlSite@COleControlSite@@UAGJPAU_POINTL@@PAUtagPOINTF@@K@Z 0043d2a0 f   nafxcw:occsite.obj
 0001:0003c3a6       ?Stat@CArchiveStream@@UAGJPAUtagSTATSTG@@K@Z 0043d3a6 f   nafxcw:arcstrm.obj
 0001:0003c3a6       ?InsertMenus@XOleIPFrame@COleControlContainer@@UAGJPAUHMENU__@@PAUtagOleMenuGroupWidths@@@Z 0043d3a6 f   nafxcw:occcont.obj
 0001:0003c3a6       ?TranslateAcceleratorA@XOleControlSite@COleControlSite@@UAGJPAUtagMSG@@K@Z 0043d3a6 f   nafxcw:occsite.obj
 0001:0003c3a6       ?TranslateAcceleratorA@XOleIPFrame@COleControlContainer@@UAGJPAUtagMSG@@G@Z 0043d3a6 f   nafxcw:occcont.obj
 0001:0003c3a6       ?SetSize@CArchiveStream@@UAGJT_ULARGE_INTEGER@@@Z 0043d3a6 f   nafxcw:arcstrm.obj
 0001:0003c3ae       ?Release@XAmbientProps@COleControlSite@@UAGKXZ 0043d3ae f   nafxcw:occsite.obj
 0001:0003c3c5       ?QueryInterface@XAmbientProps@COleControlSite@@UAGJABU_GUID@@PAPAX@Z 0043d3c5 f   nafxcw:occsite.obj
 0001:0003c3e2       ?QueryInterface@XPropertyNotifySink@COleControlSite@@UAGJABU_GUID@@PAPAX@Z 0043d3e2 f   nafxcw:occsite.obj
 0001:0003c42e       ?QueryInterface@XEventSink@COleControlSite@@UAGJABU_GUID@@PAPAX@Z 0043d42e f   nafxcw:occsite.obj
 0001:0003c491       ?GetMoniker@XOleClientSite@COleControlSite@@UAGJKKPAPAUIMoniker@@@Z 0043d491 f   nafxcw:occsite.obj
 0001:0003c491       ?GetTypeInfo@XAccessible@CWnd@@UAGJIKPAPAUITypeInfo@@@Z 0043d491 f   nafxcw:wincore.obj
 0001:0003c491       ?SetMenu@XOleIPFrame@COleControlContainer@@UAGJPAUHMENU__@@PAXPAUHWND__@@@Z 0043d491 f   nafxcw:occcont.obj
 0001:0003c491       ?GetTypeInfo@XAmbientProps@COleControlSite@@UAGJIKPAPAUITypeInfo@@@Z 0043d491 f   nafxcw:occsite.obj
 0001:0003c491       ?GetTypeInfo@XEventSink@COleControlSite@@UAGJIKPAPAUITypeInfo@@@Z 0043d491 f   nafxcw:occsite.obj
 0001:0003c499       ??0CDataSourceControl@@QAE@PAVCOleControlSite@@@Z 0043d499 f   nafxcw:occsite.obj
 0001:0003c4ec       ?GetCursor@CDataSourceControl@@UAEPAUIUnknown@@XZ 0043d4ec f   nafxcw:occsite.obj
 0001:0003c557       ?CopyColumnID@CDataSourceControl@@QAEHPAUtagDBCOLUMNID@@PBU2@@Z 0043d557 f   nafxcw:occsite.obj
 0001:0003c5d3       ?BindProp@CDataSourceControl@@UAEXPAVCDataBoundProperty@@H@Z 0043d5d3 f   nafxcw:occsite.obj
 0001:0003c61a       ??0CDataBoundProperty@@QAE@PAV0@JG@Z 0043d61a f   nafxcw:occsite.obj
 0001:0003c643       ?SetClientSite@CDataBoundProperty@@QAEXPAVCOleControlSite@@@Z 0043d643 f   nafxcw:occsite.obj
 0001:0003c651       ?GetNext@CDataBoundProperty@@QAEPAV1@XZ 0043d651 f   nafxcw:occsite.obj
 0001:0003c655       ?GetCursor@CDataBoundProperty@@QAEPAUIUnknown@@XZ 0043d655 f   nafxcw:occsite.obj
 0001:0003c68e       ?GetCursor@COleControlSite@@IAEJJPAPAUIUnknown@@PAPAX@Z 0043d68e f   nafxcw:occsite.obj
 0001:0003c6c6       ?AddRef@XBoundObjectSite@COleControlSite@@UAGKXZ 0043d6c6 f   nafxcw:occsite.obj
 0001:0003c6fb       ?Release@XBoundObjectSite@COleControlSite@@UAGKXZ 0043d6fb f   nafxcw:occsite.obj
 0001:0003c730       ?QueryInterface@XBoundObjectSite@COleControlSite@@UAGJABU_GUID@@PAPAX@Z 0043d730 f   nafxcw:occsite.obj
 0001:0003c76b       ?GetCursor@XBoundObjectSite@COleControlSite@@UAGJJPAPAUICursor@@PAPAX@Z 0043d76b f   nafxcw:occsite.obj
 0001:0003c7a9       ?QueryInterface@XNotifyDBEvents@COleControlSite@@UAGJABU_GUID@@PAPAX@Z 0043d7a9 f   nafxcw:occsite.obj
 0001:0003c7f5       ?QueryInterface@XRowsetNotify@COleControlSite@@UAGJABU_GUID@@PAPAX@Z 0043d7f5 f   nafxcw:occsite.obj
 0001:0003c841       ?ReleaseRows@?$CRowset@VCAccessorBase@ATL@@@ATL@@QAEJXZ 0043d841 f i nafxcw:occsite.obj
 0001:0003c863       ?GetData@?$CRowset@VCAccessorBase@ATL@@@ATL@@QAEJH@Z 0043d863 f i nafxcw:occsite.obj
 0001:0003c894       ?InvalidateRgn@CWnd@@QAEXPAVCRgn@@H@Z 0043d894 f i nafxcw:occsite.obj
 0001:0003c8b4       ??1COleDispatchDriver@@QAE@XZ 0043d8b4 f i nafxcw:occsite.obj
 0001:0003c8b9       ?Bind@CAccessorBase@ATL@@SAXPAUtagDBBINDING@@KGKEEKKKKPAUtagDBOBJECT@@@Z 0043d8b9 f i nafxcw:occsite.obj
 0001:0003c946       ??1?$CComPtr@UIUnknown@@@ATL@@QAE@XZ 0043d946 f i nafxcw:occcont.obj
 0001:0003c946       ??1?$CComPtr@UIAccessibleProxy@@@ATL@@QAE@XZ 0043d946 f i nafxcw:wincore.obj
 0001:0003c946       ??1?$CComPtr@UIColumnsInfo@@@ATL@@QAE@XZ 0043d946 f i nafxcw:occsite.obj
 0001:0003c946       ??1?$CComQIPtr@UITaskbarList4@@$1?_GUID_c43dc798_95d1_4bea_9030_bb99e2983a1a@@3U__s_GUID@@B@ATL@@QAE@XZ 0043d946 f i nafxcw:afxmdichildwndex.obj
 0001:0003c946       ??1?$CComPtr@UIAccessor@@@ATL@@QAE@XZ 0043d946 f i nafxcw:occsite.obj
 0001:0003c953       ?GetColumnType@CDynamicAccessor@ATL@@QBE_NKPAG@Z 0043d953 f i nafxcw:occsite.obj
 0001:0003c98b       ?GetValue@CDynamicAccessor@ATL@@QBEPAXK@Z 0043d98b f i nafxcw:occsite.obj
 0001:0003c9b9       ?GetColumnName@CDynamicAccessor@ATL@@QBEPA_WK@Z 0043d9b9 f i nafxcw:occsite.obj
 0001:0003c9e3       ?AddBindEntry@CManualAccessor@ATL@@QAEXKGKPAX00@Z 0043d9e3 f i nafxcw:occsite.obj
 0001:0003ca39       ?SetExtent@COleControlSite@@IAEHXZ 0043da39 f   nafxcw:occsite.obj
 0001:0003cae6       ?CreateControl@COleControlSite@@UAEJPAVCWnd@@ABU_GUID@@PBDKABUtagRECT@@IPAVCFile@@HPA_W@Z 0043dae6 f   nafxcw:occsite.obj
 0001:0003cb73       ?CreateControlCommon@COleControlSite@@MAEJPAVCWnd@@ABU_GUID@@ABVCControlCreationInfo@@PBDKPBUtagPOINT@@PBUtagSIZE@@IPAVCFile@@HPA_W@Z 0043db73 f   nafxcw:occsite.obj
 0001:0003ce4d       ?DestroyControl@COleControlSite@@UAEHXZ 0043de4d f   nafxcw:occsite.obj
 0001:0003cec3       ?QuickActivate@COleControlSite@@UAEHXZ 0043dec3 f   nafxcw:occsite.obj
 0001:0003d07a       ?CreateOrLoad@COleControlSite@@MAEJABU_GUID@@PAVCFile@@HPA_W@Z 0043e07a f   nafxcw:occsite.obj
 0001:0003d38c       ?DoVerb@COleControlSite@@UAEJJPAUtagMSG@@@Z 0043e38c f   nafxcw:occsite.obj
 0001:0003d3d1       ?MoveWindow@COleControlSite@@UAEXHHHH@Z 0043e3d1 f   nafxcw:occsite.obj
 0001:0003d460       ?SetWindowPos@COleControlSite@@UAEHPBVCWnd@@HHHHI@Z 0043e460 f   nafxcw:occsite.obj
 0001:0003d505       ?SetFocus@COleControlSite@@UAEPAVCWnd@@XZ 0043e505 f   nafxcw:occsite.obj
 0001:0003d55c       ?SetFocus@COleControlSite@@UAEPAVCWnd@@PAUtagMSG@@@Z 0043e55c f   nafxcw:occsite.obj
 0001:0003d5ba       ?BindProperty@COleControlSite@@UAEXJPAVCWnd@@@Z 0043e5ba f   nafxcw:occsite.obj
 0001:0003d6ab       ?AddRef@XOleClientSite@COleControlSite@@UAGKXZ 0043e6ab f   nafxcw:occsite.obj
 0001:0003d6c3       ?ShowObject@XOleClientSite@COleControlSite@@UAGJXZ 0043e6c3 f   nafxcw:occsite.obj
 0001:0003d6f6       ?AddRef@XOleIPSite@COleControlSite@@UAGKXZ 0043e6f6 f   nafxcw:occsite.obj
 0001:0003d70e       ?GetWindow@XOleIPSite@COleControlSite@@UAGJPAPAUHWND__@@@Z 0043e70e f   nafxcw:occsite.obj
 0001:0003d73d       ?GetWindowContext@XOleIPSite@COleControlSite@@UAGJPAPAUIOleInPlaceFrame@@PAPAUIOleInPlaceUIWindow@@PAUtagRECT@@2PAUtagOIFI@@@Z 0043e73d f   nafxcw:occsite.obj
 0001:0003d7c9       ?OnInPlaceDeactivate@XOleIPSite@COleControlSite@@UAGJXZ 0043e7c9 f   nafxcw:occsite.obj
 0001:0003d820       ?OnPosRectChange@XOleIPSite@COleControlSite@@UAGJPBUtagRECT@@@Z 0043e820 f   nafxcw:occsite.obj
 0001:0003d8ab       ?OnInPlaceActivateEx@XOleIPSite@COleControlSite@@UAGJPAHK@Z 0043e8ab f   nafxcw:occsite.obj
 0001:0003d904       ?CanWindowlessActivate@XOleIPSite@COleControlSite@@UAGJXZ 0043e904 f   nafxcw:occsite.obj
 0001:0003d904       ?RequestUIActivate@XOleIPSite@COleControlSite@@UAGJXZ 0043e904 f   nafxcw:occsite.obj
 0001:0003d92a       ?AdjustRect@XOleIPSite@COleControlSite@@UAGJPAUtagRECT@@@Z 0043e92a f   nafxcw:occsite.obj
 0001:0003d953       ?GetCapture@XOleIPSite@COleControlSite@@UAGJXZ 0043e953 f   nafxcw:occsite.obj
 0001:0003d990       ?GetFocus@XOleIPSite@COleControlSite@@UAGJXZ 0043e990 f   nafxcw:occsite.obj
 0001:0003d9b9       ?InvalidateRect@XOleIPSite@COleControlSite@@UAGJPBUtagRECT@@H@Z 0043e9b9 f   nafxcw:occsite.obj
 0001:0003da62       ?ReleaseDC@XOleIPSite@COleControlSite@@UAGJPAUHDC__@@@Z 0043ea62 f   nafxcw:occsite.obj
 0001:0003daa6       ?ScrollRect@XOleIPSite@COleControlSite@@UAGJHHPBUtagRECT@@0@Z 0043eaa6 f   nafxcw:occsite.obj
 0001:0003daa6       ?OnDefWindowMessage@XOleIPSite@COleControlSite@@UAGJIIJPAJ@Z 0043eaa6 f   nafxcw:occsite.obj
 0001:0003dacf       ?SetCapture@XOleIPSite@COleControlSite@@UAGJH@Z 0043eacf f   nafxcw:occsite.obj
 0001:0003db2a       ?SetFocus@XOleIPSite@COleControlSite@@UAGJH@Z 0043eb2a f   nafxcw:occsite.obj
 0001:0003db75       ?AddRef@XOleControlSite@COleControlSite@@UAGKXZ 0043eb75 f   nafxcw:occsite.obj
 0001:0003db8d       ?AddRef@XAmbientProps@COleControlSite@@UAGKXZ 0043eb8d f   nafxcw:occsite.obj
 0001:0003dba5       ?Invoke@XAmbientProps@COleControlSite@@UAGJJABU_GUID@@KGPAUtagDISPPARAMS@@PAUtagVARIANT@@PAUtagEXCEPINFO@@PAI@Z 0043eba5 f   nafxcw:occsite.obj
 0001:0003dc05       ?OnChanged@XPropertyNotifySink@COleControlSite@@UAGJJ@Z 0043ec05 f   nafxcw:occsite.obj
 0001:0003dd41       ?OnRequestEdit@XPropertyNotifySink@COleControlSite@@UAGJJ@Z 0043ed41 f   nafxcw:occsite.obj
 0001:0003ddb0       ?Invoke@XEventSink@COleControlSite@@UAGJJABU_GUID@@KGPAUtagDISPPARAMS@@PAUtagVARIANT@@PAUtagEXCEPINFO@@PAI@Z 0043edb0 f   nafxcw:occsite.obj
 0001:0003de21       ?Notify@CDataBoundProperty@@QAEXXZ 0043ee21 f   nafxcw:occsite.obj
 0001:0003deb1       ?FireEvent@XNotifyDBEvents@COleControlSite@@QAEJKKQAUtagDBNOTIFYREASON@@W4DSCSTATE@@@Z 0043eeb1 f   nafxcw:occsite.obj
 0001:0003df88       ?GetData@?$CRowset@VCAccessorBase@ATL@@@ATL@@QAEJXZ 0043ef88 f i nafxcw:occsite.obj
 0001:0003dfcb       ?MoveNext@?$CRowset@VCAccessorBase@ATL@@@ATL@@QAEJJ_N@Z 0043efcb f i nafxcw:occsite.obj
 0001:0003e027       ??$GetValue@UtagDB_NUMERIC@@@CDynamicAccessor@ATL@@QBE_NKPAUtagDB_NUMERIC@@@Z 0043f027 f i nafxcw:occsite.obj
 0001:0003e069       ??$GetValue@UtagDBDATE@@@CDynamicAccessor@ATL@@QBE_NKPAUtagDBDATE@@@Z 0043f069 f i nafxcw:occsite.obj
 0001:0003e069       ??$GetValue@UtagDBTIME@@@CDynamicAccessor@ATL@@QBE_NKPAUtagDBTIME@@@Z 0043f069 f i nafxcw:occsite.obj
 0001:0003e0a7       ??$GetValue@UtagDBTIMESTAMP@@@CDynamicAccessor@ATL@@QBE_NKPAUtagDBTIMESTAMP@@@Z 0043f0a7 f i nafxcw:occsite.obj
 0001:0003e0e6       ??$SetValue@M@CDynamicAccessor@ATL@@QAE_NKABM@Z 0043f0e6 f i nafxcw:occsite.obj
 0001:0003e11e       ??$SetValue@N@CDynamicAccessor@ATL@@QAE_NKABN@Z 0043f11e f i nafxcw:occsite.obj
 0001:0003e156       ??$GetValue@PA_W@CDynamicAccessor@ATL@@QBE_NKPAPA_W@Z 0043f156 f i nafxcw:occsite.obj
 0001:0003e194       ??$SetValue@PA_W@CDynamicAccessor@ATL@@QAE_NKABQA_W@Z 0043f194 f i nafxcw:occsite.obj
 0001:0003e194       ??$SetValue@K@CDynamicAccessor@ATL@@QAE_NKABK@Z 0043f194 f i nafxcw:occsite.obj
 0001:0003e194       ??$SetValue@J@CDynamicAccessor@ATL@@QAE_NKABJ@Z 0043f194 f i nafxcw:occsite.obj
 0001:0003e1cc       ??$SetValue@UtagDEC@@@CDynamicAccessor@ATL@@QAE_NKABUtagDEC@@@Z 0043f1cc f i nafxcw:occsite.obj
 0001:0003e214       ??$SetValue@E@CDynamicAccessor@ATL@@QAE_NKABE@Z 0043f214 f i nafxcw:occsite.obj
 0001:0003e214       ??$SetValue@C@CDynamicAccessor@ATL@@QAE_NKABC@Z 0043f214 f i nafxcw:occsite.obj
 0001:0003e24c       ??$SetValue@F@CDynamicAccessor@ATL@@QAE_NKABF@Z 0043f24c f i nafxcw:occsite.obj
 0001:0003e24c       ??$SetValue@G@CDynamicAccessor@ATL@@QAE_NKABG@Z 0043f24c f i nafxcw:occsite.obj
 0001:0003e286       ?ReleaseAccessors@CAccessorBase@ATL@@QAEJPAUIUnknown@@@Z 0043f286 f i nafxcw:occsite.obj
 0001:0003e314       ?GetStatus@CDynamicAccessor@ATL@@QBE_NKPAK@Z 0043f314 f i nafxcw:occsite.obj
 0001:0003e36b       ?BindColumns@CManualAccessor@ATL@@QAEJPAUIUnknown@@@Z 0043f36b f i nafxcw:occsite.obj
 0001:0003e3f2       ?GetBoundClientRow@CDataSourceControl@@QAEJXZ 0043f3f2 f   nafxcw:occsite.obj
 0001:0003e451       ?SetDSCSite@CDataBoundProperty@@QAEXPAVCOleControlSite@@@Z 0043f451 f   nafxcw:occsite.obj
 0001:0003e46a       ?OKToDo@XNotifyDBEvents@COleControlSite@@UAGJKKQAUtagDBNOTIFYREASON@@@Z 0043f46a f   nafxcw:occsite.obj
 0001:0003e4f2       ?Cancelled@XNotifyDBEvents@COleControlSite@@UAGJKKQAUtagDBNOTIFYREASON@@@Z 0043f4f2 f   nafxcw:occsite.obj
 0001:0003e536       ?SyncBefore@XNotifyDBEvents@COleControlSite@@UAGJKKQAUtagDBNOTIFYREASON@@@Z 0043f536 f   nafxcw:occsite.obj
 0001:0003e5a2       ?AboutToDo@XNotifyDBEvents@COleControlSite@@UAGJKKQAUtagDBNOTIFYREASON@@@Z 0043f5a2 f   nafxcw:occsite.obj
 0001:0003e5e6       ?FailedToDo@XNotifyDBEvents@COleControlSite@@UAGJKKQAUtagDBNOTIFYREASON@@@Z 0043f5e6 f   nafxcw:occsite.obj
 0001:0003e62a       ?SyncAfter@XNotifyDBEvents@COleControlSite@@UAGJKKQAUtagDBNOTIFYREASON@@@Z 0043f62a f   nafxcw:occsite.obj
 0001:0003e6bf       ?DidEvent@XNotifyDBEvents@COleControlSite@@UAGJKKQAUtagDBNOTIFYREASON@@@Z 0043f6bf f   nafxcw:occsite.obj
 0001:0003e72f       ?OnFieldChange@XRowsetNotify@COleControlSite@@UAGJPAUIRowset@@KKQAKKKH@Z 0043f72f f   nafxcw:occsite.obj
 0001:0003e7fe       ?OnRowChange@XRowsetNotify@COleControlSite@@UAGJPAUIRowset@@KQBKKKH@Z 0043f7fe f   nafxcw:occsite.obj
 0001:0003e94f       ??8ATL@@YA_NABV?$CStringT@DV?$StrTraitMFC@DV?$ChTraitsCRT@D@ATL@@@@@0@0@Z 0043f94f f i nafxcw:occsite.obj
 0001:0003e968       ?SetupOptionalRowsetInterfaces@?$CRowset@VCAccessorBase@ATL@@@ATL@@QAEXXZ 0043f968 f i nafxcw:occsite.obj
 0001:0003e97d       ?SetData@?$CRowset@VCAccessorBase@ATL@@@ATL@@QBEJH@Z 0043f97d f i nafxcw:occsite.obj
 0001:0003e9ba       ?FreeType@CAccessorBase@ATL@@SAXGPAEPAUIRowset@@@Z 0043f9ba f i nafxcw:occsite.obj
 0001:0003ea7b       ?FreeRecordMemory@CDynamicAccessor@ATL@@QAEXPAUIRowset@@@Z 0043fa7b f i nafxcw:occsite.obj
 0001:0003eb59       ?BindColumns@CDataSourceControl@@UAEXXZ 0043fb59 f   nafxcw:occsite.obj
 0001:0003ed25       ??0?$CRowset@VCAccessorBase@ATL@@@ATL@@QAE@PAUIRowset@@@Z 0043fd25 f i nafxcw:occsite.obj
 0001:0003ed52       ?MoveFirst@?$CRowset@VCAccessorBase@ATL@@@ATL@@QAEJXZ 0043fd52 f i nafxcw:occsite.obj
 0001:0003ed77       ?SetData@?$CRowset@VCAccessorBase@ATL@@@ATL@@QBEJXZ 0043fd77 f i nafxcw:occsite.obj
 0001:0003eda1       ?GetRowsetProperties@CDynamicAccessor@ATL@@QAEJPAUIUnknown@@PAKPAHK@Z 0043fda1 f i nafxcw:occsite.obj
 0001:0003ee92       ?BindColumns@CDynamicAccessor@ATL@@QAEJPAUIUnknown@@@Z 0043fe92 f i nafxcw:occsite.obj
 0001:0003f4eb       ?GetMetaData@CDataSourceControl@@QAEJXZ 004404eb f   nafxcw:occsite.obj
 0001:0003f858       ?UpdateCursor@CDataSourceControl@@UAEJXZ 00440858 f   nafxcw:occsite.obj
 0001:0003fea2       ?OnRowsetChange@XRowsetNotify@COleControlSite@@UAGJPAUIRowset@@KKH@Z 00440ea2 f   nafxcw:occsite.obj
 0001:0003ff4b       ?Close@?$CRowset@VCAccessorBase@ATL@@@ATL@@QAEXXZ 00440f4b f i nafxcw:occsite.obj
 0001:0003ffb8       ?Initialize@CDataSourceControl@@QAEJXZ 00440fb8 f   nafxcw:occsite.obj
 0001:0004019a       ??1?$CRowset@VCAccessorBase@ATL@@@ATL@@QAE@XZ 0044119a f i nafxcw:occsite.obj
 0001:000401bf       ??0COleControlSite@@QAE@PAVCOleControlContainer@@@Z 004411bf f   nafxcw:occsite.obj
 0001:000402e2       ?EnableDSC@COleControlSite@@UAEXXZ 004412e2 f   nafxcw:occsite.obj
 0001:0004032f       ?GetDC@XOleIPSite@COleControlSite@@UAGJPBUtagRECT@@KPAPAUHDC__@@@Z 0044132f f   nafxcw:occsite.obj
 0001:0004044d       ?InvalidateRgn@XOleIPSite@COleControlSite@@UAGJPAUHRGN__@@H@Z 0044144d f   nafxcw:occsite.obj
 0001:00040524       ?BindDefaultProperty@COleControlSite@@UAEXJGPBDPAVCWnd@@@Z 00441524 f   nafxcw:occsite.obj
 0001:000405c8       ??1CDataSourceControl@@QAE@XZ 004415c8 f   nafxcw:occsite.obj
 0001:000407cb       ?BindProp@CDataSourceControl@@UAEXPAVCOleControlSite@@H@Z 004417cb f   nafxcw:occsite.obj
 0001:0004092a       ?ToVariant@CDataSourceControl@@QAE?AVCOleVariant@@H@Z 0044192a f   nafxcw:occsite.obj
 0001:00040e6a       ?UpdateControls@CDataSourceControl@@UAEJXZ 00441e6a f   nafxcw:occsite.obj
 0001:00040ff6       ??1COleControlSite@@UAE@XZ 00441ff6 f   nafxcw:occsite.obj
 0001:000411e7       ??_GCOleControlSite@@UAEPAXI@Z 004421e7 f i nafxcw:occsite.obj
 0001:000411e7       ??_ECOleControlSite@@UAEPAXI@Z 004421e7 f i nafxcw:occsite.obj
 0001:00041208       ?_AfxGetDlgCode@@YGKPAVCWnd@@PAUtagMSG@@@Z 00442208 f   nafxcw:occdlg.obj
 0001:0004123a       ?IsMatchingMnemonic@COccManager@@SAHPAUCOleControlSiteOrWnd@@PAUtagMSG@@@Z 0044223a f   nafxcw:occdlg.obj
 0001:0004125e       ?IsLabelControl@COccManager@@SAHPAUCOleControlSiteOrWnd@@@Z 0044225e f   nafxcw:occdlg.obj
 0001:000412b4       ?GetDefBtnCode@COccManager@@SAKPAVCWnd@@@Z 004422b4 f   nafxcw:occdlg.obj
 0001:000412dc       ?GetNextDlgGroupItem@CWnd@@QBEPAV1@PAV1@H@Z 004422dc f i nafxcw:occdlg.obj
 0001:00041302       ?IsChild@CWnd@@QBEHPBV1@@Z 00442302 f i nafxcw:occdlg.obj
 0001:0004131f       ?_AfxDlgSetFocus@@YGXPAVCWnd@@@Z 0044231f f   nafxcw:occdlg.obj
 0001:00041352       ?_AfxGetChildControl@@YGPAVCWnd@@PAV1@0@Z 00442352 f   nafxcw:occdlg.obj
 0001:000413ab       ?_AfxNextControl@@YGPAVCWnd@@PAV1@0I@Z 004423ab f   nafxcw:occdlg.obj
 0001:00041485       ?UIActivateControl@COccManager@@KAXPAVCWnd@@@Z 00442485 f   nafxcw:occdlg.obj
 0001:000414f8       ?UIDeactivateIfNecessary@COccManager@@KAXPAVCWnd@@0@Z 004424f8 f   nafxcw:occdlg.obj
 0001:0004157b       ?_AfxFindDlgItem@@YGPAVCWnd@@PAV1@K@Z 0044257b f   nafxcw:occdlg.obj
 0001:000415d5       ?SetDefaultButton@COccManager@@SAXPAVCWnd@@H@Z 004425d5 f   nafxcw:occdlg.obj
 0001:00041624       ?_AfxRemoveDefaultButton@@YGXPAVCWnd@@0@Z 00442624 f   nafxcw:occdlg.obj
 0001:00041688       ?_AfxOriginalDefButton@@YGHPAVCWnd@@@Z 00442688 f   nafxcw:occdlg.obj
 0001:000416bd       ?_AfxCheckDefPushButton@@YGXPAVCWnd@@00@Z 004426bd f   nafxcw:occdlg.obj
 0001:000417ac       ?_AfxFindSiteOrWnd@@YGPAUCOleControlSiteOrWnd@@PAVCWnd@@0@Z 004427ac f   nafxcw:occdlg.obj
 0001:000417fa       ?_AfxFindNextMnem@@YGPAUCOleControlSiteOrWnd@@PAVCWnd@@PAU1@PAUtagMSG@@@Z 004427fa f   nafxcw:occdlg.obj
 0001:0004193b       ?_AfxGetNextMnem@@YGPAUCOleControlSiteOrWnd@@PAVCWnd@@0PAUtagMSG@@@Z 0044293b f   nafxcw:occdlg.obj
 0001:00041a2c       ?IsDialogMessageA@COccManager@@UAEHPAVCWnd@@PAUtagMSG@@@Z 00442a2c f   nafxcw:occdlg.obj
 0001:00041e8e       ??0CControlBar@@IAE@XZ     00442e8e f   nafxcw:barcore.obj
 0001:00041f0c       ?SetBorders@CControlBar@@QAEXHHHH@Z 00442f0c f   nafxcw:barcore.obj
 0001:00041f36       ?PreCreateWindow@CControlBar@@UAEHAAUtagCREATESTRUCTA@@@Z 00442f36 f   nafxcw:barcore.obj
 0001:00041fb3       ?PostNcDestroy@CControlBar@@UAEXXZ 00442fb3 f   nafxcw:barcore.obj
 0001:00041fc1       ?CalcDynamicLayout@CControlBar@@UAE?AVCSize@@HK@Z 00442fc1 f   nafxcw:barcore.obj
 0001:00041fe7       ?OnThemeChanged@CControlBar@@QAEJXZ 00442fe7 f   nafxcw:barcore.obj
 0001:00042035       ?OnDestroy@CControlBar@@QAEXXZ 00443035 f   nafxcw:barcore.obj
 0001:000420a4       ?DestroyWindow@CControlBar@@UAEHXZ 004430a4 f   nafxcw:barcore.obj
 0001:000420cf       ?OnPaint@CControlBar@@QAEXXZ 004430cf f   nafxcw:barcore.obj
 0001:00042118       ?RecalcDelayShow@CControlBar@@UAEKPAUAFX_SIZEPARENTPARAMS@@@Z 00443118 f   nafxcw:barcore.obj
 0001:000421a4       ?DelayShow@CControlBar@@UAEXH@Z 004431a4 f   nafxcw:barcore.obj
 0001:000421e1       ?IsVisible@CControlBar@@UBEHXZ 004431e1 f   nafxcw:barcore.obj
 0001:00042202       ?DrawGripper@CControlBar@@UAEXPAVCDC@@ABVCRect@@@Z 00443202 f   nafxcw:barcore.obj
 0001:00042250       ?DrawNCGripper@CControlBar@@UAEXPAVCDC@@ABVCRect@@@Z 00443250 f   nafxcw:barcore.obj
 0001:0004229e       ?CalcInsideRect@CControlBar@@UBEXAAVCRect@@H@Z 0044329e f   nafxcw:barcore.obj
 0001:0004236c       ??1CControlBar@@UAE@XZ     0044336c f   nafxcw:barcore.obj
 0001:000423e6       ?ResetTimer@CControlBar@@QAEXII@Z 004433e6 f   nafxcw:barcore.obj
 0001:00042420       ?OnTimer@CControlBar@@QAEXI@Z 00443420 f   nafxcw:barcore.obj
 0001:00042593       ?OnHelpHitTest@CControlBar@@QAEJIJ@Z 00443593 f   nafxcw:barcore.obj
 0001:00042593       ?OnHelpHitTest@CBasePane@@IAEJIJ@Z 00443593 f   nafxcw:afxbasepane.obj
 0001:000425dd       ?OnWindowPosChanging@CControlBar@@QAEXPAUtagWINDOWPOS@@@Z 004435dd f   nafxcw:barcore.obj
 0001:00042710       ?OnCreate@CControlBar@@QAEHPAUtagCREATESTRUCTA@@@Z 00443710 f   nafxcw:barcore.obj
 0001:000427af       ?OnMouseActivate@CControlBar@@QAEHPAVCWnd@@II@Z 004437af f   nafxcw:barcore.obj
 0001:000427d2       ?EraseNonClient@CControlBar@@QAEXXZ 004437d2 f   nafxcw:barcore.obj
 0001:000428b2       ?OnCtlColor@CControlBar@@QAEPAUHBRUSH__@@PAVCDC@@PAVCWnd@@I@Z 004438b2 f   nafxcw:barcore.obj
 0001:0004290c       ?OnLButtonDown@CControlBar@@QAEXIVCPoint@@@Z 0044390c f   nafxcw:barcore.obj
 0001:0004295a       ?OnLButtonDblClk@CControlBar@@QAEXIVCPoint@@@Z 0044395a f   nafxcw:barcore.obj
 0001:00042996       ?OnSizeParent@CControlBar@@QAEJIJ@Z 00443996 f   nafxcw:barcore.obj
 0001:00042afc       ?DoPaint@CControlBar@@UAEXPAVCDC@@@Z 00443afc f   nafxcw:barcore.obj
 0001:00042b5e       ?DrawBorders@CControlBar@@UAEXPAVCDC@@AAVCRect@@@Z 00443b5e f   nafxcw:barcore.obj
 0001:00042dc1       ?DrawNonThemedGripper@CControlBar@@UAEHPAVCDC@@ABVCRect@@@Z 00443dc1 f   nafxcw:barcore.obj
 0001:00042e3f       ?DrawThemedGripper@CControlBar@@UAEHPAVCDC@@ABVCRect@@H@Z 00443e3f f   nafxcw:barcore.obj
 0001:00043043       ?SetStatusText@CControlBar@@UAEHH@Z 00444043 f   nafxcw:barcore.obj
 0001:000430e4       ?PreTranslateMessage@CControlBar@@UAEHPAUtagMSG@@@Z 004440e4 f   nafxcw:barcore.obj
 0001:000432fb       ?WindowProc@CControlBar@@UAEJIIJ@Z 004442fb f   nafxcw:barcore.obj
 0001:000433ec       ?OnIdleUpdateCmdUI@CControlBar@@QAEJIJ@Z 004443ec f   nafxcw:barcore.obj
 0001:000434a2       ?OnInitialUpdate@CControlBar@@QAEXXZ 004444a2 f   nafxcw:barcore.obj
 0001:000434ac       ?GetThisMessageMap@CControlBar@@KGPBUAFX_MSGMAP@@XZ 004444ac f   nafxcw:barcore.obj
 0001:000434b2       ?IsStandardCommand@@YAHI@Z 004444b2 f i nafxcw:afxtoolbar.obj
 0001:00043509       ??9CSize@@QBEHUtagSIZE@@@Z 00444509 f i nafxcw:afxtoolbar.obj
 0001:00043528       ?GetPrev@CPtrList@@QAEAAPAXAAPAU__POSITION@@@Z 00444528 f i nafxcw:winocc.obj
 0001:00043528       ?GetPrev@CObList@@QAEAAPAVCObject@@AAPAU__POSITION@@@Z 00444528 f i nafxcw:afxtoolbar.obj
 0001:00043547       ?SetTransparentColor@CMFCToolBarImages@@QAEKK@Z 00444547 f i nafxcw:afxtoolbar.obj
 0001:0004357d       ?IsScaled@CMFCToolBarImages@@QBEHXZ 0044457d f i nafxcw:afxtoolbar.obj
 0001:00043595       ?Show@CMFCToolBarButton@@QAEXH@Z 00444595 f i nafxcw:afxtoolbar.obj
 0001:000435b7       ?GetInstance@CMFCVisualManager@@SGPAV1@XZ 004445b7 f i nafxcw:afxtoolbar.obj
 0001:00043629       ?EnableDocking@CBasePane@@UAEXK@Z 00444629 f i nafxcw:afxtoolbar.obj
 0001:0004363b       ?CalcFixedLayout@CBasePane@@UAE?AVCSize@@HH@Z 0044463b f i nafxcw:afxtoolbar.obj
 0001:0004363b       ?CalcFixedLayout@CControlBar@@UAE?AVCSize@@HH@Z 0044463b f i nafxcw:barcore.obj
 0001:0004367a       ?SelectDefaultFont@CBasePane@@QAEPAVCFont@@PAVCDC@@@Z 0044467a f i nafxcw:afxtoolbar.obj
 0001:000436a0       ?GetButtonSize@CMFCToolBar@@QBE?AVCSize@@XZ 004446a0 f i nafxcw:afxtoolbar.obj
 0001:00043717       ?GetImageSize@CMFCToolBar@@QBE?AVCSize@@XZ 00444717 f i nafxcw:afxtoolbar.obj
 0001:00043761       ??1CSettingsStoreSP@@QAE@XZ 00444761 f i nafxcw:afxtoolbar.obj
 0001:0004376f       ?GetAnimationType@CMFCPopupMenu@@SG?AW4ANIMATION_TYPE@1@H@Z 0044476f f i nafxcw:afxtoolbar.obj
 0001:000437a1       ?GetExtraSize@CMFCCustomizeButton@@QBE?AVCSize@@XZ 004447a1 f i nafxcw:afxtoolbar.obj
 0001:000437d4       ??0CMFCToolBarInfo@@QAE@XZ 004447d4 f   nafxcw:afxtoolbar.obj
 0001:000437f0       ?GetRuntimeClass@CMFCToolBar@@UBEPAUCRuntimeClass@@XZ 004447f0 f   nafxcw:afxtoolbar.obj
 0001:000437f6       ?SetSizes@CMFCToolBar@@SGXUtagSIZE@@0@Z 004447f6 f   nafxcw:afxtoolbar.obj
 0001:00043972       ?SetLockedSizes@CMFCToolBar@@QAEXUtagSIZE@@0H@Z 00444972 f   nafxcw:afxtoolbar.obj
 0001:00043afb       ?LoadBitmapA@CMFCToolBar@@UAEHIIIHII@Z 00444afb f   nafxcw:afxtoolbar.obj
 0001:00043b40       ?LoadToolBar@CMFCToolBar@@UAEHIIIHIII@Z 00444b40 f   nafxcw:afxtoolbar.obj
 0001:00043b88       ?InsertButton@CMFCToolBar@@UAEHABVCMFCToolBarButton@@H@Z 00444b88 f   nafxcw:afxtoolbar.obj
 0001:00043bdf       ?InsertSeparator@CMFCToolBar@@UAEHH@Z 00444bdf f   nafxcw:afxtoolbar.obj
 0001:00043c4f       ?RemoveAllButtons@CMFCToolBar@@UAEXXZ 00444c4f f   nafxcw:afxtoolbar.obj
 0001:00043ca9       ?CommandToIndex@CMFCToolBar@@QBEHIH@Z 00444ca9 f   nafxcw:afxtoolbar.obj
 0001:00043ce6       ?ButtonToIndex@CMFCToolBar@@QBEHPBVCMFCToolBarButton@@@Z 00444ce6 f   nafxcw:afxtoolbar.obj
 0001:00043d1b       ?CalcFixedLayout@CMFCToolBar@@UAE?AVCSize@@HH@Z 00444d1b f   nafxcw:afxtoolbar.obj
 0001:00043d4b       ?IsButtonHighlighted@CMFCToolBar@@QBEHH@Z 00444d4b f   nafxcw:afxtoolbar.obj
 0001:00043da7       ?DrawButton@CMFCToolBar@@MAEHPAVCDC@@PAVCMFCToolBarButton@@PAVCMFCToolBarImages@@HH@Z 00444da7 f   nafxcw:afxtoolbar.obj
 0001:00043e3c       ?GetButton@CMFCToolBar@@QBEPAVCMFCToolBarButton@@H@Z 00444e3c f   nafxcw:afxtoolbar.obj
 0001:00043e64       ?HitTest@CMFCToolBar@@UAEHVCPoint@@@Z 00444e64 f   nafxcw:afxtoolbar.obj
 0001:00043ebd       ?UpdateImagesColor@CMFCToolBar@@IAEXXZ 00444ebd f   nafxcw:afxtoolbar.obj
 0001:00043f61       ?SetRadio@CMFCToolBarCmdUI@@UAEXH@Z 00444f61 f   nafxcw:afxtoolbar.obj
 0001:00043f9c       ?UpdateButton@CMFCToolBar@@QAEXH@Z 00444f9c f   nafxcw:afxtoolbar.obj
 0001:00044051       ?OnDragEnter@CMFCToolBar@@MAEKPAVCOleDataObject@@KVCPoint@@@Z 00445051 f   nafxcw:afxtoolbar.obj
 0001:00044089       ?GetCommandButtons@CMFCToolBar@@SGHIAAVCObList@@@Z 00445089 f   nafxcw:afxtoolbar.obj
 0001:00044109       ?DrawDragCursor@CMFCToolBar@@MAEXPAVCDC@@@Z 00445109 f   nafxcw:afxtoolbar.obj
 0001:000442ed       ?OnDestroy@CMFCToolBar@@IAEXXZ 004452ed f   nafxcw:afxtoolbar.obj
 0001:0004436e       ?OnToolbarDelete@CMFCToolBar@@IAEXXZ 0044536e f   nafxcw:afxtoolbar.obj
 0001:00044395       ?OnAfterButtonDelete@CMFCToolBar@@MAEXXZ 00445395 f   nafxcw:afxtoolbar.obj
 0001:000443bb       ?OnToolbarImage@CMFCToolBar@@IAEXXZ 004453bb f   nafxcw:afxtoolbar.obj
 0001:00044489       ?OnToolbarStartGroup@CMFCToolBar@@IAEXXZ 00445489 f   nafxcw:afxtoolbar.obj
 0001:00044506       ?GetCount@CMFCToolBar@@QBEHXZ 00445506 f   nafxcw:afxtoolbar.obj
 0001:0004450d       ?OnCommand@CMFCToolBar@@MAEHIJ@Z 0044550d f   nafxcw:afxtoolbar.obj
 0001:000445df       ?CalcSize@CMFCToolBar@@UAE?AVCSize@@H@Z 004455df f   nafxcw:afxtoolbar.obj
 0001:000447f1       ?DrawSeparator@CMFCToolBar@@MAEXPAVCDC@@ABVCRect@@H@Z 004457f1 f   nafxcw:afxtoolbar.obj
 0001:00044821       ?GetHighlightedButton@CMFCToolBar@@QBEPAVCMFCToolBarButton@@XZ 00445821 f   nafxcw:afxtoolbar.obj
 0001:00044835       ?OnCustomizeMode@CMFCToolBar@@MAEXH@Z 00445835 f   nafxcw:afxtoolbar.obj
 0001:0004489d       ?CanBeRestored@CMFCToolBar@@UBEHXZ 0044589d f   nafxcw:afxtoolbar.obj
 0001:000448a9       ?GetHotTextColor@CMFCToolBar@@SGKXZ 004458a9 f   nafxcw:afxtoolbar.obj
 0001:000448b9       ?OnNcCalcSize@CMFCToolBar@@IAEXHPAUtagNCCALCSIZE_PARAMS@@@Z 004458b9 f   nafxcw:afxtoolbar.obj
 0001:000448d0       ?OnNcPaint@CMFCToolBar@@IAEXXZ 004458d0 f   nafxcw:afxtoolbar.obj
 0001:000448db       ?GetMenuImageSize@CMFCToolBar@@SG?AVCSize@@XZ 004458db f   nafxcw:afxtoolbar.obj
 0001:0004496d       ?GetMenuButtonSize@CMFCToolBar@@SG?AVCSize@@XZ 0044596d f   nafxcw:afxtoolbar.obj
 0001:0004499f       ?GetDroppedDownMenu@CMFCToolBar@@QBEPAVCMFCToolBarMenuButton@@PAH@Z 0044599f f   nafxcw:afxtoolbar.obj
 0001:00044a11       ?EnableLargeIcons@CMFCToolBar@@QAEXH@Z 00445a11 f   nafxcw:afxtoolbar.obj
 0001:00044a23       ?EnableTextLabels@CMFCToolBar@@QAEXH@Z 00445a23 f   nafxcw:afxtoolbar.obj
 0001:00044a46       ?ResetImages@CMFCToolBar@@UAEXXZ 00445a46 f   nafxcw:afxtoolbar.obj
 0001:00044a95       ?OnUserToolTip@CMFCToolBar@@UBEHPAVCMFCToolBarButton@@AAV?$CStringT@DV?$StrTraitMFC@DV?$ChTraitsCRT@D@ATL@@@@@ATL@@@Z 00445a95 f   nafxcw:afxtoolbar.obj
 0001:00044b46       ?GetAllToolbars@CMFCToolBar@@SGABVCObList@@XZ 00445b46 f   nafxcw:afxtoolbar.obj
 0001:00044b4c       ?OnSettingChange@CMFCToolBar@@IAEXIPBD@Z 00445b4c f   nafxcw:afxtoolbar.obj
 0001:00044b8a       ?IsUserDefined@CMFCToolBar@@QBEHXZ 00445b8a f   nafxcw:afxtoolbar.obj
 0001:00044bf9       ?OnGetButtonCount@CMFCToolBar@@IAEJIJ@Z 00445bf9 f   nafxcw:afxtoolbar.obj
 0001:00044c02       ?OnGetItemRect@CMFCToolBar@@IAEJIJ@Z 00445c02 f   nafxcw:afxtoolbar.obj
 0001:00044c1c       ?OnAfterFloat@CMFCToolBar@@MAEXXZ 00445c1c f   nafxcw:afxtoolbar.obj
 0001:00044c68       ?OnBeforeChangeParent@CMFCToolBar@@MAEXPAVCWnd@@H@Z 00445c68 f   nafxcw:afxtoolbar.obj
 0001:00044ca4       ?EnableDocking@CMFCToolBar@@UAEXK@Z 00445ca4 f   nafxcw:afxtoolbar.obj
 0001:00044cc0       ?SaveOriginalState@CMFCToolBar@@MAEXAAVCSettingsStore@@@Z 00445cc0 f   nafxcw:afxtoolbar.obj
 0001:00044ce7       ?LoadLastOriginalState@CMFCToolBar@@MAEHAAVCSettingsStore@@@Z 00445ce7 f   nafxcw:afxtoolbar.obj
 0001:00044d59       ?AddCommandUsage@CMFCToolBar@@SGXI@Z 00445d59 f   nafxcw:afxtoolbar.obj
 0001:00044d69       ?GetImageList@CMFCToolBar@@IBEPAVCMFCToolBarImages@@AAV2@000@Z 00445d69 f   nafxcw:afxtoolbar.obj
 0001:00044db8       ?SaveResetOriginalState@CMFCToolBar@@IAEXAAVCSettingsStore@@@Z 00445db8 f   nafxcw:afxtoolbar.obj
 0001:00044ddf       ?LoadResetOriginalState@CMFCToolBar@@IAEHAAVCSettingsStore@@@Z 00445ddf f   nafxcw:afxtoolbar.obj
 0001:00044e8b       ?IsOneRowWithSibling@CMFCToolBar@@QAEHXZ 00445e8b f   nafxcw:afxtoolbar.obj
 0001:00044ea3       ?SetOneRowWithSibling@CMFCToolBar@@QAEXXZ 00445ea3 f   nafxcw:afxtoolbar.obj
 0001:00044f0a       ?SetTwoRowsWithSibling@CMFCToolBar@@QAEXXZ 00445f0a f   nafxcw:afxtoolbar.obj
 0001:00045037       ?CanHandleSiblings@CMFCToolBar@@QAEHXZ 00446037 f   nafxcw:afxtoolbar.obj
 0001:00045073       ?OnGlobalFontsChanged@CMFCToolBar@@UAEXXZ 00446073 f   nafxcw:afxtoolbar.obj
 0001:0004509e       ?RemoveResetStateButton@CMFCToolBar@@IAEHI@Z 0044609e f   nafxcw:afxtoolbar.obj
 0001:00045103       ?InsertResetStateButton@CMFCToolBar@@IAEHABVCMFCToolBarButton@@H@Z 00446103 f   nafxcw:afxtoolbar.obj
 0001:00045192       ??0?$CList@II@@QAE@H@Z     00446192 f i nafxcw:afxtoolbar.obj
 0001:000451ba       ??1?$CList@II@@UAE@XZ      004461ba f i nafxcw:afxtoolbar.obj
 0001:000451c5       ??0?$CMap@IIHH@@QAE@H@Z    004461c5 f i nafxcw:afxtoolbar.obj
 0001:000451f1       ??1?$CMap@IIHH@@UAE@XZ     004461f1 f i nafxcw:afxtoolbar.obj
 0001:000451fc       ??0?$CMap@IAAIPAVCMFCToolBarButton@@AAPAV1@@@QAE@H@Z 004461fc f i nafxcw:afxtoolbar.obj
 0001:00045228       ?RemoveAll@?$CMap@PAVCWnd@@PAV1@PAVCHwndRenderTarget@@PAV2@@@QAEXXZ 00446228 f i nafxcw:wincore.obj
 0001:00045228       ?RemoveAll@?$CMap@IIII@@QAEXXZ 00446228 f i nafxcw:afxpopupmenubar.obj
 0001:00045228       ?RemoveAll@?$CMap@IAAIPAVCMFCToolBarButton@@AAPAV1@@@QAEXXZ 00446228 f i nafxcw:afxtoolbar.obj
 0001:00045228       ?RemoveAll@?$CMap@PAUHICON__@@PAU1@HH@@QAEXXZ 00446228 f i nafxcw:afxbasetabctrl.obj
 0001:00045228       ?RemoveAll@?$CMap@IIPAVCMFCRibbonStatusBarPane@@PAV1@@@QAEXXZ 00446228 f i nafxcw:afxribbonstatusbarpane.obj
 0001:00045228       ?RemoveAll@?$CMap@PAUHMENU__@@AAPAU1@PAXAAPAX@@QAEXXZ 00446228 f i nafxcw:afxmenuhash.obj
 0001:00045228       ?RemoveAll@?$CMap@HHII@@QAEXXZ 00446228 f i nafxcw:afxvslistbox.obj
 0001:00045228       ?RemoveAll@?$CMap@PAVCWnd@@PAV1@PAVCImageList@@PAV2@@@QAEXXZ 00446228 f i nafxcw:afxmdiclientareawnd.obj
 0001:00045228       ?RemoveAll@?$CMap@IIHH@@QAEXXZ 00446228 f i nafxcw:afxtoolbar.obj
 0001:00045228       ?RemoveAll@?$CMap@IIPAUHICON__@@PAU1@@@QAEXXZ 00446228 f i nafxcw:afxtabctrl.obj
 0001:00045228       ?RemoveAll@?$CMap@IIPAUHWND__@@PAU1@@@QAEXXZ 00446228 f i nafxcw:afxpaneframewnd.obj
 0001:00045228       ?RemoveAll@?$CMap@IIKK@@QAEXXZ 00446228 f i nafxcw:afxcolormenubutton.obj
 0001:00045228       ?RemoveAll@?$CMap@HHHH@@QAEXXZ 00446228 f i nafxcw:afxoutlookbartabctrl.obj
 0001:00045228       ?RemoveAll@?$CMap@IIPAVCPane@@PAV1@@@QAEXXZ 00446228 f i nafxcw:afxdockingmanager.obj
 0001:00045272       ??1?$CMap@IAAIPAVCMFCToolBarButton@@AAPAV1@@@UAE@XZ 00446272 f i nafxcw:afxtoolbar.obj
 0001:0004527d       ??_E?$CList@II@@UAEPAXI@Z  0044627d f i nafxcw:afxtoolbar.obj
 0001:0004527d       ??_G?$CList@II@@UAEPAXI@Z  0044627d f i nafxcw:afxtoolbar.obj
 0001:000452a4       ??_G?$CMap@IIHH@@UAEPAXI@Z 004462a4 f i nafxcw:afxtoolbar.obj
 0001:000452a4       ??_E?$CMap@IIHH@@UAEPAXI@Z 004462a4 f i nafxcw:afxtoolbar.obj
 0001:000452cb       ??_E?$CMap@IAAIPAVCMFCToolBarButton@@AAPAV1@@@UAEPAXI@Z 004462cb f i nafxcw:afxtoolbar.obj
 0001:000452cb       ??_G?$CMap@IAAIPAVCMFCToolBarButton@@AAPAV1@@@UAEPAXI@Z 004462cb f i nafxcw:afxtoolbar.obj
 0001:000452f2       ?LoadMenuA@CMenu@@QAEHI@Z  004462f2 f i nafxcw:afxtoolbar.obj
 0001:0004531b       ?GetItemID@CMFCToolBar@@QBEIH@Z 0044631b f   nafxcw:afxtoolbar.obj
 0001:00045333       ?GetItemRect@CMFCToolBar@@UBEXHPAUtagRECT@@@Z 00446333 f   nafxcw:afxtoolbar.obj
 0001:00045375       ?GetInvalidateItemRect@CMFCToolBar@@UBEXHPAUtagRECT@@@Z 00446375 f   nafxcw:afxtoolbar.obj
 0001:000453d9       ?GetButtonStyle@CMFCToolBar@@QBEIH@Z 004463d9 f   nafxcw:afxtoolbar.obj
 0001:000453f1       ?DoPaint@CMFCToolBar@@MAEXPAVCDC@@@Z 004463f1 f   nafxcw:afxtoolbar.obj
 0001:00045c12       ?InvalidateButton@CMFCToolBar@@QAEPAVCMFCToolBarButton@@H@Z 00446c12 f   nafxcw:afxtoolbar.obj
 0001:00045cfe       ?OnCancelMode@CMFCToolBar@@IAEXXZ 00446cfe f   nafxcw:afxtoolbar.obj
 0001:00045e23       ?OnSysColorChange@CMFCToolBar@@IAEXXZ 00446e23 f   nafxcw:afxtoolbar.obj
 0001:00045e59       ?Enable@CMFCToolBarCmdUI@@UAEXH@Z 00446e59 f   nafxcw:afxtoolbar.obj
 0001:00045ea3       ?SetCheck@CMFCToolBarCmdUI@@UAEXH@Z 00446ea3 f   nafxcw:afxtoolbar.obj
 0001:00045f01       ?OnUpdateCmdUI@CMFCToolBar@@UAEXPAVCFrameWnd@@H@Z 00446f01 f   nafxcw:afxtoolbar.obj
 0001:00045fc2       ?OnDragLeave@CMFCToolBar@@MAEXXZ 00446fc2 f   nafxcw:afxtoolbar.obj
 0001:00046047       ?OnDragOver@CMFCToolBar@@MAEKPAVCOleDataObject@@KVCPoint@@@Z 00447047 f   nafxcw:afxtoolbar.obj
 0001:000461bd       ?OnDrop@CMFCToolBar@@MAEHPAVCOleDataObject@@KVCPoint@@@Z 004471bd f   nafxcw:afxtoolbar.obj
 0001:000463a0       ?SetCustomizeMode@CMFCToolBar@@SGHH@Z 004473a0 f   nafxcw:afxtoolbar.obj
 0001:000464df       ?FindDropIndex@CMFCToolBar@@MBEHVCPoint@@AAVCRect@@@Z 004474df f   nafxcw:afxtoolbar.obj
 0001:00046850       ?OnContextMenu@CMFCToolBar@@IAEXPAVCWnd@@VCPoint@@@Z 00447850 f   nafxcw:afxtoolbar.obj
 0001:00046aab       ?OnCtlColor@CMFCToolBar@@IAEPAUHBRUSH__@@PAVCDC@@PAVCWnd@@I@Z 00447aab f   nafxcw:afxtoolbar.obj
 0001:00046b2c       ?OnSetCursor@CMFCToolBar@@IAEHPAVCWnd@@II@Z 00447b2c f   nafxcw:afxtoolbar.obj
 0001:00046c49       ?WrapToolBar@CMFCToolBar@@QAEHHHPAVCDC@@HH@Z 00447c49 f   nafxcw:afxtoolbar.obj
 0001:00046e5e       ?SizeToolBar@CMFCToolBar@@IAEXHH@Z 00447e5e f   nafxcw:afxtoolbar.obj
 0001:00047013       ?AddRemoveSeparator@CMFCToolBar@@MAEXPBVCMFCToolBarButton@@ABVCPoint@@1@Z 00448013 f   nafxcw:afxtoolbar.obj
 0001:000470cb       ?RestoreOriginalstate@CMFCToolBar@@UAEHXZ 004480cb f   nafxcw:afxtoolbar.obj
 0001:000471df       ?EnableContextMenuItems@CMFCToolBar@@MAEHPAVCMFCToolBarButton@@PAVCMenu@@@Z 004481df f   nafxcw:afxtoolbar.obj
 0001:0004734c       ?OnChangeHot@CMFCToolBar@@UAEXH@Z 0044834c f   nafxcw:afxtoolbar.obj
 0001:0004753f       ?PrevMenu@CMFCToolBar@@UAEHXZ 0044853f f   nafxcw:afxtoolbar.obj
 0001:00047636       ?NextMenu@CMFCToolBar@@UAEHXZ 00448636 f   nafxcw:afxtoolbar.obj
 0001:0004772c       ?SetHot@CMFCToolBar@@QAEHPAVCMFCToolBarButton@@@Z 0044872c f   nafxcw:afxtoolbar.obj
 0001:000477a2       ?DropDownMenu@CMFCToolBar@@IAEHPAVCMFCToolBarButton@@@Z 004487a2 f   nafxcw:afxtoolbar.obj
 0001:00047810       ?OnSetFocus@CMFCToolBar@@IAEXPAVCWnd@@@Z 00448810 f   nafxcw:afxtoolbar.obj
 0001:000478a0       ?OnToolbarNewMenu@CMFCToolBar@@IAEXXZ 004488a0 f   nafxcw:afxtoolbar.obj
 0001:00047970       ?SetLargeIcons@CMFCToolBar@@SGXH@Z 00448970 f   nafxcw:afxtoolbar.obj
 0001:00047bda       ?OnWindowPosChanging@CMFCToolBar@@IAEXPAUtagWINDOWPOS@@@Z 00448bda f   nafxcw:afxtoolbar.obj
 0001:00047c12       ?OnKillFocus@CMFCToolBar@@IAEXPAVCWnd@@@Z 00448c12 f   nafxcw:afxtoolbar.obj
 0001:00047c55       ?CleanUpImages@CMFCToolBar@@SGXXZ 00448c55 f   nafxcw:afxtoolbar.obj
 0001:00047cbe       ?OnGetButton@CMFCToolBar@@IAEJIJ@Z 00448cbe f   nafxcw:afxtoolbar.obj
 0001:00047cf9       ?OnAfterDock@CMFCToolBar@@MAEXPAVCBasePane@@PBUtagRECT@@W4AFX_DOCK_METHOD@@@Z 00448cf9 f   nafxcw:afxtoolbar.obj
 0001:00047d75       ?AccNotifyObjectFocusEvent@CMFCToolBar@@MAEXH@Z 00448d75 f   nafxcw:afxtoolbar.obj
 0001:00047dc3       ?AdjustSize@CMFCToolBar@@QAEXXZ 00448dc3 f   nafxcw:afxtoolbar.obj
 0001:0004811c       ?OnCalcSeparatorRect@CMFCToolBar@@MAEXPAVCMFCToolBarButton@@AAVCRect@@H@Z 0044911c f   nafxcw:afxtoolbar.obj
 0001:0004818f       ?OnShowWindow@CMFCToolBar@@IAEXHI@Z 0044918f f   nafxcw:afxtoolbar.obj
 0001:000481ea       ?OnRButtonDown@CMFCToolBar@@IAEXIVCPoint@@@Z 004491ea f   nafxcw:afxtoolbar.obj
 0001:00048237       ?RedrawCustomizeButton@CMFCToolBar@@IAEXXZ 00449237 f   nafxcw:afxtoolbar.obj
 0001:000482b9       ?Find@?$CList@II@@QBEPAU__POSITION@@IPAU2@@Z 004492b9 f i nafxcw:afxtoolbar.obj
 0001:000482f1       ?GetAssocAt@?$CMap@IAAIPAVCMFCToolBarButton@@AAPAV1@@@IBEPAVCAssoc@1@AAI00@Z 004492f1 f i nafxcw:afxtoolbar.obj
 0001:00048344       ??6CArchive@@QAEAAV0@H@Z   00449344 f i nafxcw:afxtoolbar.obj
 0001:0004834f       ??5CArchive@@QAEAAV0@AAH@Z 0044934f f i nafxcw:afxtoolbar.obj
 0001:0004835a       ?Clear@CAccessibilityData@@QAEXXZ 0044935a f i nafxcw:afxtoolbar.obj
 0001:000483cb       ?IsCommandPermitted@CMFCToolBar@@SGHI@Z 004493cb f i nafxcw:afxtoolbar.obj
 0001:000483e8       ?IsBasicCommand@CMFCToolBar@@SGHI@Z 004493e8 f i nafxcw:afxtoolbar.obj
 0001:00048406       ?InsertButton@CMFCToolBar@@MAEHPAVCMFCToolBarButton@@H@Z 00449406 f   nafxcw:afxtoolbar.obj
 0001:000484a5       ?SetButtonStyle@CMFCToolBar@@UAEXHI@Z 004494a5 f   nafxcw:afxtoolbar.obj
 0001:000484f9       ?OnLButtonDown@CMFCToolBar@@IAEXIVCPoint@@@Z 004494f9 f   nafxcw:afxtoolbar.obj
 0001:00048b57       ?OnMouseMove@CMFCToolBar@@IAEXIVCPoint@@@Z 00449b57 f   nafxcw:afxtoolbar.obj
 0001:00048f82       ?OnLButtonUp@CMFCToolBar@@IAEXIVCPoint@@@Z 00449f82 f   nafxcw:afxtoolbar.obj
 0001:000492f4       ?OnWindowPosChanged@CMFCToolBar@@IAEXPAUtagWINDOWPOS@@@Z 0044a2f4 f   nafxcw:afxtoolbar.obj
 0001:00049379       ?NotifyControlCommand@CMFCToolBar@@MAEHPAVCMFCToolBarButton@@HHIJ@Z 0044a379 f   nafxcw:afxtoolbar.obj
 0001:000493ca       ?StretchPane@CMFCToolBar@@UAE?AVCSize@@HH@Z 0044a3ca f   nafxcw:afxtoolbar.obj
 0001:000494a6       ?OnLButtonDblClk@CMFCToolBar@@IAEXIVCPoint@@@Z 0044a4a6 f   nafxcw:afxtoolbar.obj
 0001:00049539       ?ShowCommandMessageString@CMFCToolBar@@MAEXI@Z 0044a539 f   nafxcw:afxtoolbar.obj
 0001:000495a9       ?OnMouseLeave@CMFCToolBar@@IAEJIJ@Z 0044a5a9 f   nafxcw:afxtoolbar.obj
 0001:000496e7       ?ToolBarMouseHookProc@CMFCToolBar@@KGJHIJ@Z 0044a6e7 f   nafxcw:afxtoolbar.obj
 0001:00049839       ?SetHelpMode@CMFCToolBar@@SGXH@Z 0044a839 f   nafxcw:afxtoolbar.obj
 0001:000498bf       ?AddBasicCommand@CMFCToolBar@@SGXI@Z 0044a8bf f   nafxcw:afxtoolbar.obj
 0001:000498e9       ?AdjustLayout@CMFCToolBar@@UAEXXZ 0044a8e9 f   nafxcw:afxtoolbar.obj
 0001:00049acb       ?ProcessCommand@CMFCToolBar@@QAEHPAVCMFCToolBarButton@@@Z 0044aacb f   nafxcw:afxtoolbar.obj
 0001:00049b20       ?Deactivate@CMFCToolBar@@UAEXXZ 0044ab20 f   nafxcw:afxtoolbar.obj
 0001:00049b7d       ?IsCommandRarelyUsed@CMFCToolBar@@SGHI@Z 0044ab7d f   nafxcw:afxtoolbar.obj
 0001:00049be6       ?OnSetAccData@CMFCToolBar@@UAEHJ@Z 0044abe6 f   nafxcw:afxtoolbar.obj
 0001:00049c57       ?Lookup@?$CMap@IAAIPAVCMFCToolBarButton@@AAPAV1@@@QBEHAAIAAPAVCMFCToolBarButton@@@Z 0044ac57 f i nafxcw:afxtoolbar.obj
 0001:00049c80       ?NewAssoc@?$CMap@IAAIPAVCMFCToolBarButton@@AAPAV1@@@IAEPAVCAssoc@1@AAI@Z 0044ac80 f i nafxcw:afxtoolbar.obj
 0001:00049c80       ?NewAssoc@?$CMap@PAUHMENU__@@AAPAU1@PAXAAPAX@@IAEPAVCAssoc@1@AAPAUHMENU__@@@Z 0044ac80 f i nafxcw:afxmenuhash.obj
 0001:00049cf6       ?GetResourceOffset@CMFCToolBarImages@@QBEHI@Z 0044acf6 f i nafxcw:afxtoolbar.obj
 0001:00049d22       ?CreateEx@CMFCToolBar@@UAEHPAVCWnd@@KKVCRect@@I@Z 0044ad22 f   nafxcw:afxtoolbar.obj
 0001:00049e0c       ?LoadBitmapEx@CMFCToolBar@@UAEHAAVCMFCToolBarInfo@@H@Z 0044ae0c f   nafxcw:afxtoolbar.obj
 0001:0004a064       ?OnToolbarAppearance@CMFCToolBar@@IAEXXZ 0044b064 f   nafxcw:afxtoolbar.obj
 0001:0004a109       ?OnToolbarImageAndText@CMFCToolBar@@IAEXXZ 0044b109 f   nafxcw:afxtoolbar.obj
 0001:0004a1f4       ?OnToolbarText@CMFCToolBar@@IAEXXZ 0044b1f4 f   nafxcw:afxtoolbar.obj
 0001:0004a25b       ?OnToolbarReset@CMFCToolBar@@IAEXXZ 0044b25b f   nafxcw:afxtoolbar.obj
 0001:0004a314       ?OnHelpHitTest@CMFCToolBar@@IAEJIJ@Z 0044b314 f   nafxcw:afxtoolbar.obj
 0001:0004a3d1       ?CalcMaxButtonHeight@CMFCToolBar@@MAEHXZ 0044b3d1 f   nafxcw:afxtoolbar.obj
 0001:0004a4f0       ?TranslateChar@CMFCToolBar@@UAEHI@Z 0044b4f0 f   nafxcw:afxtoolbar.obj
 0001:0004a569       ?SmartUpdate@CMFCToolBar@@MAEHABVCObList@@@Z 0044b569 f   nafxcw:afxtoolbar.obj
 0001:0004a85b       ?UpdateTooltips@CMFCToolBar@@IAEXXZ 0044b85b f   nafxcw:afxtoolbar.obj
 0001:0004a96b       ?OnUpdateToolTips@CMFCToolBar@@IAEJIJ@Z 0044b96b f   nafxcw:afxtoolbar.obj
 0001:0004a996       ?RedrawUnderlines@CMFCToolBar@@SGXXZ 0044b996 f   nafxcw:afxtoolbar.obj
 0001:0004aa57       ?SpanExcluding@?$CStringT@DV?$StrTraitMFC@DV?$ChTraitsCRT@D@ATL@@@@@ATL@@QBE?AV12@PBD@Z 0044ba57 f i nafxcw:afxtoolbar.obj
 0001:0004aa94       ??A?$CMap@IAAIPAVCMFCToolBarButton@@AAPAV1@@@QAEAAPAVCMFCToolBarButton@@AAI@Z 0044ba94 f i nafxcw:afxtoolbar.obj
 0001:0004aaf8       ?Create@CMFCToolBar@@UAEHPAVCWnd@@KI@Z 0044baf8 f   nafxcw:afxtoolbar.obj
 0001:0004ab36       ?AdjustLocations@CMFCToolBar@@MAEXXZ 0044bb36 f   nafxcw:afxtoolbar.obj
 0001:0004b025       ?RestoreFocus@CMFCToolBar@@UAEXXZ 0044c025 f   nafxcw:afxtoolbar.obj
 0001:0004b06a       ?Remove@?$CStringT@DV?$StrTraitMFC@DV?$ChTraitsCRT@D@ATL@@@@@ATL@@QAEHD@Z 0044c06a f i nafxcw:afxtoolbar.obj
 0001:0004b0e2       ?Serialize@?$CMap@IAAIPAVCMFCToolBarButton@@AAPAV1@@@UAEXAAVCArchive@@@Z 0044c0e2 f i nafxcw:afxtoolbar.obj
 0001:0004b183       ?SetButtons@CMFCToolBar@@UAEHPBIHH@Z 0044c183 f   nafxcw:afxtoolbar.obj
 0001:0004b4a4       ?LoadToolBarEx@CMFCToolBar@@UAEHIAAVCMFCToolBarInfo@@H@Z 0044c4a4 f   nafxcw:afxtoolbar.obj
 0001:0004b6a2       ?SaveState@CMFCToolBar@@UAEHPBDHI@Z 0044c6a2 f   nafxcw:afxtoolbar.obj
 0001:0004b8d4       ?RemoveStateFromRegistry@CMFCToolBar@@UAEHPBDHI@Z 0044c8d4 f   nafxcw:afxtoolbar.obj
 0001:0004b9a2       ?LoadState@CMFCToolBar@@UAEHPBDHI@Z 0044c9a2 f   nafxcw:afxtoolbar.obj
 0001:0004bc5d       ?RebuildAccelerationKeys@CMFCToolBar@@IAEXXZ 0044cc5d f   nafxcw:afxtoolbar.obj
 0001:0004bd05       ?LoadLargeIconsState@CMFCToolBar@@SGHPBD@Z 0044cd05 f   nafxcw:afxtoolbar.obj
 0001:0004bdcf       ?Format@?$CStringT@DV?$StrTraitMFC@DV?$ChTraitsCRT@D@ATL@@@@@ATL@@QAAXIZZ 0044cdcf f i nafxcw:afxtoolbar.obj
 0001:0004be33       ??0CMFCToolBar@@QAE@XZ     0044ce33 f   nafxcw:afxtoolbar.obj
 0001:0004c172       ?AllowDestroyEmptyTabbedPane@CMFCOutlookBar@@UBEHXZ 0044d172 f i nafxcw:afxoutlookbar.obj
 0001:0004c172       ?DoesAllowDynInsertBefore@CBasePane@@UBEHXZ 0044d172 f i nafxcw:afxtoolbar.obj
 0001:0004c17a       ?GetParentDockSite@CBasePane@@UBEPAVCDockSite@@XZ 0044d17a f i nafxcw:afxtoolbar.obj
 0001:0004c181       ?GetRecentVisibleState@CBasePane@@UBEHXZ 0044d181 f i nafxcw:afxtoolbar.obj
 0001:0004c181       ?IsDisabled@CMFCRibbonBaseElement@@UBEHXZ 0044d181 f i nafxcw:afxbaseribbonelement.obj
 0001:0004c185       ?SetRestoredFromRegistry@CBasePane@@UAEXH@Z 0044d185 f i nafxcw:afxtoolbar.obj
 0001:0004c194       ?GetOccDialogInfo@CDialog@@MAEPAU_AFX_OCC_DIALOG_INFO@@XZ 0044d194 f i nafxcw:dlgcore.obj
 0001:0004c194       ?GetPaneStyle@CBasePane@@UBEKXZ 0044d194 f i nafxcw:afxtoolbar.obj
 0001:0004c19b       ?CanBeResized@CBasePane@@UBEHXZ 0044d19b f i nafxcw:afxtoolbar.obj
 0001:0004c1a5       ?CanAutoHide@CBasePane@@UBEHXZ 0044d1a5 f i nafxcw:afxtoolbar.obj
 0001:0004c1af       ?SetPaneAlignment@CBasePane@@UAEXK@Z 0044d1af f i nafxcw:afxtoolbar.obj
 0001:0004c1cb       ?SetPaneStyle@CBasePane@@UAEXK@Z 0044d1cb f i nafxcw:afxtoolbar.obj
 0001:0004c1dd       ?SetOriginalColor@CMFCColorPickerCtrl@@QAEXK@Z 0044d1dd f i nafxcw:afxcolorpickerctrl.obj
 0001:0004c1dd       ?SetControlBarStyle@CBasePane@@UAEXK@Z 0044d1dd f i nafxcw:afxtoolbar.obj
 0001:0004c1ef       ?IsHorizontal@CBasePane@@UBEHXZ 0044d1ef f i nafxcw:afxtoolbar.obj
 0001:0004c1fd       ?IsDragMode@CPane@@UBEHXZ  0044d1fd f i nafxcw:afxtoolbar.obj
 0001:0004c204       ?GetMinLength@CPane@@UBEHXZ 0044d204 f i nafxcw:afxtoolbar.obj
 0001:0004c210       ?GetFirstVisibleTabNum@CMFCBaseTabCtrl@@UBEHXZ 0044d210 f i nafxcw:afxbasetabctrl.obj
 0001:0004c210       ?GetDockingTabsBordersSize@CMFCVisualManager@@UAEHXZ 0044d210 f i nafxcw:afxvisualmanageroffice2007.obj
 0001:0004c210       ?GetResizeStep@CPane@@UBEHXZ 0044d210 f i nafxcw:afxtoolbar.obj
 0001:0004c210       ?GetToolbarDisabledColor@CMFCVisualManager@@UBEKXZ 0044d210 f i nafxcw:afxvisualmanager.obj
 0001:0004c210       ?GetMDITabsBordersSize@CMFCVisualManager@@UAEHXZ 0044d210 f i nafxcw:afxvisualmanageroffice2007.obj
 0001:0004c214       ?DoesAllowSiblingBars@CPane@@UBEHXZ 0044d214 f i nafxcw:afxtoolbar.obj
 0001:0004c220       ?SetExclusiveRowMode@CPane@@UAEXH@Z 0044d220 f i nafxcw:afxtoolbar.obj
 0001:0004c232       ?GetParentPanel@CMFCRibbonDefaultPanelButton@@UBEPAVCMFCRibbonPanel@@XZ 0044d232 f i nafxcw:afxribbonpanel.obj
 0001:0004c232       ?GetExclusiveRowMode@CPane@@UBEHXZ 0044d232 f i nafxcw:afxtoolbar.obj
 0001:0004c239       ?FloatPane@CBasePane@@UAEHVCRect@@W4AFX_DOCK_METHOD@@_N@Z 0044d239 f i nafxcw:afxbasepane.obj
 0001:0004c239       ?OnNcPaint@CMFCVisualManager@@UAEHPAVCWnd@@ABVCObList@@VCRect@@@Z 0044d239 f i nafxcw:afxvisualmanager.obj
 0001:0004c239       ?DockToFrameWindow@CBasePane@@UAEHKPBUtagRECT@@KPAV1@HH@Z 0044d239 f i nafxcw:afxbasepane.obj
 0001:0004c239       ?DockToFrameWindow@CPane@@UAEHKPBUtagRECT@@KPAVCBasePane@@HH@Z 0044d239 f i nafxcw:afxtoolbar.obj
 0001:0004c23e       ?DockPaneStandard@CPane@@UAEPAV1@AAH@Z 0044d23e f i nafxcw:afxtoolbar.obj
 0001:0004c24f       ?CanBeDocked@CPane@@UBEHPAVCBasePane@@@Z 0044d24f f i nafxcw:afxtoolbar.obj
 0001:0004c27f       ?GetMinSize@CMFCBaseToolBar@@UBEXAAVCSize@@@Z 0044d27f f i nafxcw:afxtoolbar.obj
 0001:0004c2b3       ?IsResourceChanged@CMFCToolBar@@UBEHXZ 0044d2b3 f i nafxcw:afxtoolbar.obj
 0001:0004c2ba       ?IsFloating@CMFCToolBar@@UBEHXZ 0044d2ba f i nafxcw:afxtoolbar.obj
 0001:0004c2c1       ?CanBeClosed@CMFCToolBar@@UBEHXZ 0044d2c1 f i nafxcw:afxtoolbar.obj
 0001:0004c2cd       ?DeleteItem@CComboBox@@UAEXPAUtagDELETEITEMSTRUCT@@@Z 0044d2cd f i nafxcw:winctrl1.obj
 0001:0004c2cd       ?OnShowEditbox@CMFCToolBarEditBoxButton@@MAEXH@Z 0044d2cd f i nafxcw:afxtoolbareditboxbutton.obj
 0001:0004c2cd       ?OnDrawBorder@CMFCPropertyGridCtrl@@MAEXPAVCDC@@@Z 0044d2cd f i nafxcw:afxpropertygridctrl.obj
 0001:0004c2cd       ?OnPressButtons@CDockablePane@@MAEXI@Z 0044d2cd f i nafxcw:afxdockablepane.obj
 0001:0004c2cd       ?SetCheck@CTestCmdUI@@UAEXH@Z 0044d2cd f i nafxcw:wincore.obj
 0001:0004c2cd       ?OnMovePaneDivider@CBasePane@@UAEXPAVCPaneDivider@@@Z 0044d2cd f i nafxcw:afxtoolbar.obj
 0001:0004c2cd       ?SetCheck@CMFCTasksPaneToolBarCmdUI@@UAEXH@Z 0044d2cd f i nafxcw:afxtaskspane.obj
 0001:0004c2cd       ?OnShow@CMFCToolBarButton@@UAEXH@Z 0044d2cd f i nafxcw:afxtoolbarbutton.obj
 0001:0004c2cd       ?EnableGripper@CBasePane@@UAEXH@Z 0044d2cd f i nafxcw:afxtoolbar.obj
 0001:0004c2cd       ?OnBeforeChangeTool@CMFCToolBarsCustomizeDialog@@MAEXPAVCUserTool@@@Z 0044d2cd f i nafxcw:afxtoolbarscustomizedialog.obj
 0001:0004c2cd       ?MeasureItem@CComboBox@@UAEXPAUtagMEASUREITEMSTRUCT@@@Z 0044d2cd f i nafxcw:winctrl1.obj
 0001:0004c2cd       ?StoreRecentDockSiteInfo@CPaneFrameWnd@@UAEXPAVCPane@@@Z 0044d2cd f i nafxcw:afxpaneframewnd.obj
 0001:0004c2cd       ?OnAfterAddItem@CVSListBoxBase@@UAEXH@Z 0044d2cd f i nafxcw:afxvslistbox.obj
 0001:0004c2cd       ?DrawItem@CComboBox@@UAEXPAUtagDRAWITEMSTRUCT@@@Z 0044d2cd f i nafxcw:winctrl1.obj
 0001:0004c2cd       ?OnAfterRenameItem@CVSListBoxBase@@UAEXH@Z 0044d2cd f i nafxcw:afxvslistbox.obj
 0001:0004c2cd       ?Serialize@CMFCToolBarMenuButtonsButton@@UAEXAAVCArchive@@@Z 0044d2cd f i nafxcw:afxtoolbarmenubuttonsbutton.obj
 0001:0004c2cd       ?OnShow@CMFCRibbonBaseElement@@UAEXH@Z 0044d2cd f i nafxcw:afxbaseribbonelement.obj
 0001:0004c2cd       ?Show@CSmartDockingGroupGuide@@UAEXH@Z 0044d2cd f i nafxcw:afxsmartdockingguide.obj
 0001:0004c2cd       ?SetText@CTestCmdUI@@UAEXPBD@Z 0044d2cd f i nafxcw:wincore.obj
 0001:0004c2cd       ?OnAfterChangeTool@CMFCToolBarsCustomizeDialog@@MAEXPAVCUserTool@@@Z 0044d2cd f i nafxcw:afxtoolbarscustomizedialog.obj
 0001:0004c2cd       ?OnAfterAnimation@CMFCOutlookBar@@UAEXH@Z 0044d2cd f i nafxcw:afxoutlookbar.obj
 0001:0004c2cd       ?OnRemoveFromMiniFrame@CBasePane@@UAEXPAVCPaneFrameWnd@@@Z 0044d2cd f i nafxcw:afxtoolbar.obj
 0001:0004c2cd       ?SetRadio@CMFCTasksPaneToolBarCmdUI@@UAEXH@Z 0044d2cd f i nafxcw:afxtaskspane.obj
 0001:0004c2cd       ?OnDblClk@CMFCToolBarButton@@UAEXPAVCWnd@@@Z 0044d2cd f i nafxcw:afxtoolbarbutton.obj
 0001:0004c2cd       ?ConvertToTabbedDocument@CPane@@UAEXH@Z 0044d2cd f i nafxcw:afxpane.obj
 0001:0004c2cd       ?OnAfterMoveItemUp@CVSListBoxBase@@UAEXH@Z 0044d2cd f i nafxcw:afxvslistbox.obj
 0001:0004c2cd       ?OnAfterMoveItemDown@CVSListBoxBase@@UAEXH@Z 0044d2cd f i nafxcw:afxvslistbox.obj
 0001:0004c2cd       ?DoPaint@CDummyDockablePane@@EAEXPAVCDC@@@Z 0044d2cd f i nafxcw:afxdragframeimpl.obj
 0001:0004c2cd       ?OnAfterChangeParent@CMFCBaseToolBar@@UAEXPAVCWnd@@@Z 0044d2cd f i nafxcw:afxbasetoolbar.obj
 0001:0004c2cd       ?DoPaint@CDockBar@@UAEXPAVCDC@@@Z 0044d2cd f i nafxcw:bardock.obj
 0001:0004c2cd       ?OnHighlight@CMFCRibbonBaseElement@@MAEXH@Z 0044d2cd f i nafxcw:afxbaseribbonelement.obj
 0001:0004c2cd       ?OnDefaultMenuLoaded@CMFCMenuBar@@UAEXPAUHMENU__@@@Z 0044d2cd f i nafxcw:afxmenubar.obj
 0001:0004c2cd       ?SetText@CToolCmdUI@@UAEXPBD@Z 0044d2cd f i nafxcw:bartool.obj
 0001:0004c2cd       ?OnBeforeStretch@CPane@@MAEXAAH@Z 0044d2cd f i nafxcw:afxtoolbar.obj
 0001:0004c2cd       ?MeasureItem@CCheckListBox@@UAEXPAUtagMEASUREITEMSTRUCT@@@Z 0044d2cd f i nafxcw:winctrl3.obj
 0001:0004c2cd       ?DrawItem@CStatic@@UAEXPAUtagDRAWITEMSTRUCT@@@Z 0044d2cd f i nafxcw:winctrl1.obj
 0001:0004c2cd       ?DeleteItem@CListBox@@UAEXPAUtagDELETEITEMSTRUCT@@@Z 0044d2cd f i nafxcw:winctrl1.obj
 0001:0004c2cd       ?OnFillBackground@CMFCToolBar@@UAEXPAVCDC@@@Z 0044d2cd f i nafxcw:afxtoolbar.obj
 0001:0004c2cd       ?OnSetFocus@CMFCRibbonBaseElement@@MAEXH@Z 0044d2cd f i nafxcw:afxbaseribbonelement.obj
 0001:0004c2cd       ?DrawItem@CListBox@@UAEXPAUtagDRAWITEMSTRUCT@@@Z 0044d2cd f i nafxcw:winctrl1.obj
 0001:0004c2cd       ?OnScroll@CMFCOutlookBar@@UAEXH@Z 0044d2cd f i nafxcw:afxoutlookbar.obj
 0001:0004c2cd       ?DrawItem@CListCtrl@@UAEXPAUtagDRAWITEMSTRUCT@@@Z 0044d2cd f i nafxcw:winctrl2.obj
 0001:0004c2cd       ?OnAfterChangeParent@CBasePane@@UAEXPAVCWnd@@@Z 0044d2cd f i nafxcw:afxpane.obj
 0001:0004c2cd       ?AdjustSizeImmediate@CMFCPopupMenuBar@@UAEXH@Z 0044d2cd f i nafxcw:afxpopupmenubar.obj
 0001:0004c2cd       ?OnCheck@CMFCRibbonBaseElement@@MAEXH@Z 0044d2cd f i nafxcw:afxbaseribbonelement.obj
 0001:0004c2cd       ?OnAfterStretch@CPane@@MAEXH@Z 0044d2cd f i nafxcw:afxpane.obj
 0001:0004c2cd       ?OnResizePane@CDockingPanesRow@@UAEXPAVCBasePane@@@Z 0044d2cd f i nafxcw:afxdockingpanesrow.obj
 0001:0004c2cd       ?Serialize@CMFCToolBarSystemMenuButton@@UAEXAAVCArchive@@@Z 0044d2cd f i nafxcw:afxtoolbarsystemmenubutton.obj
 0001:0004c2cd       ?MeasureItem@CListBox@@UAEXPAUtagMEASUREITEMSTRUCT@@@Z 0044d2cd f i nafxcw:winctrl1.obj
 0001:0004c2cd       ?UndockPane@CBasePane@@UAEXH@Z 0044d2cd f i nafxcw:afxbasepane.obj
 0001:0004c2cd       ?SetRadio@CTestCmdUI@@UAEXH@Z 0044d2cd f i nafxcw:wincore.obj
 0001:0004c2cd       ?OnCalcTextSize@CMFCRibbonBaseElement@@UAEXPAVCDC@@@Z 0044d2cd f i nafxcw:afxbaseribbonelement.obj
 0001:0004c2cd       ?OnRTLChanged@CMFCRibbonBaseElement@@UAEXH@Z 0044d2cd f i nafxcw:afxbaseribbonelement.obj
 0001:0004c2cd       ?OnSize@CMFCToolBarButton@@UAEXH@Z 0044d2cd f i nafxcw:afxtoolbarbutton.obj
 0001:0004c2cd       ?AccNotifyObjectFocusEvent@CBasePane@@UAEXH@Z 0044d2cd f i nafxcw:afxbasetoolbar.obj
 0001:0004c2cd       ?GetRecentSiblingPaneInfo@CDockablePane@@QAEXAAV?$CList@IAAI@@@Z 0044d2cd f i nafxcw:afxdockablepane.obj
 0001:0004c2cd       ?OnSetFont@CDialog@@UAEXPAVCFont@@@Z 0044d2cd f i nafxcw:dlgcore.obj
 0001:0004c2cd       ?OnChangeHot@CMFCPopupMenu@@MAEXH@Z 0044d2cd f i nafxcw:afxpopupmenu.obj
 0001:0004c2cd       ?OnControlActivating@CFileDialog@@MAEXK@Z 0044d2cd f i nafxcw:dlgfile.obj
 0001:0004c2cd       ?OnActivateTab@CBaseTabbedPane@@MAEXH@Z 0044d2cd f i nafxcw:afxtabbedpane.obj
 0001:0004c2cd       ?DrawItem@CButton@@UAEXPAUtagDRAWITEMSTRUCT@@@Z 0044d2cd f i nafxcw:winctrl1.obj
 0001:0004c2cd       ?OnChooseItem@CMFCPopupMenu@@MAEXI@Z 0044d2cd f i nafxcw:afxpopupmenu.obj
 0001:0004c2cd       ?MeasureItem@CMenu@@UAEXPAUtagMEASUREITEMSTRUCT@@@Z 0044d2cd f i nafxcw:winmenu.obj
 0001:0004c2cd       ?DrawItem@CMenu@@UAEXPAUtagDRAWITEMSTRUCT@@@Z 0044d2cd f i nafxcw:winmenu.obj
 0001:0004c2cd       ?OnEnable@CMFCRibbonBaseElement@@MAEXH@Z 0044d2cd f i nafxcw:afxbaseribbonelement.obj
 0001:0004c2cd       ?SetActive@CMFCRibbonPanelMenu@@UAEXH@Z 0044d2cd f i nafxcw:afxribbonminitoolbar.obj
 0001:0004c2cd       ?DrawItem@CHeaderCtrl@@UAEXPAUtagDRAWITEMSTRUCT@@@Z 0044d2cd f i nafxcw:winctrl2.obj
 0001:0004c2cd       ?OnButtonClicked@CFileDialog@@MAEXK@Z 0044d2cd f i nafxcw:dlgfile.obj
 0001:0004c2cd       ?DrawItem@CTabCtrl@@UAEXPAUtagDRAWITEMSTRUCT@@@Z 0044d2cd f i nafxcw:winctrl2.obj
 0001:0004c2d0       ?IsPureMenuButton@CMFCToolBar@@MBEHPAVCMFCToolBarButton@@@Z 0044d2d0 f i nafxcw:afxtoolbar.obj
 0001:0004c2d9       ?GetPaneIcon@CBasePane@@UAEPAUHICON__@@H@Z 0044d2d9 f i nafxcw:afxtoolbar.obj
 0001:0004c2f2       ?GetRowHeight@CMFCToolBar@@UBEHXZ 0044d2f2 f i nafxcw:afxtoolbar.obj
 0001:0004c399       ?GetColumnWidth@CMFCToolBar@@UBEHXZ 0044d399 f i nafxcw:afxtoolbar.obj
 0001:0004c3c6       ?GetCommandTarget@CMFCToolBar@@MBEPAVCWnd@@XZ 0044d3c6 f i nafxcw:afxtoolbar.obj
 0001:0004c3fc       ??1CMFCToolBar@@UAE@XZ     0044d3fc f   nafxcw:afxtoolbar.obj
 0001:0004c564       ?RemoveButton@CMFCToolBar@@UAEHH@Z 0044d564 f   nafxcw:afxtoolbar.obj
 0001:0004c6c5       ?CalcLayout@CMFCToolBar@@MAE?AVCSize@@KH@Z 0044d6c5 f   nafxcw:afxtoolbar.obj
 0001:0004c8b2       ?CreateDroppedButton@CMFCToolBar@@MAEPAVCMFCToolBarButton@@PAVCOleDataObject@@@Z 0044d8b2 f   nafxcw:afxtoolbar.obj
 0001:0004c9d7       ?OnCopyImage@CMFCToolBar@@IAEXXZ 0044d9d7 f   nafxcw:afxtoolbar.obj
 0001:0004ca7c       ?OnSetDefaultButtonText@CMFCToolBar@@UAEHPAVCMFCToolBarButton@@@Z 0044da7c f   nafxcw:afxtoolbar.obj
 0001:0004cb1c       ?EnableCustomizeButton@CMFCToolBar@@QAEXHHABV?$CStringT@DV?$StrTraitMFC@DV?$ChTraitsCRT@D@ATL@@@@@ATL@@H@Z 0044db1c f   nafxcw:afxtoolbar.obj
 0001:0004cbfa       ?OnPromptReset@CMFCToolBar@@IAEJIJ@Z 0044dbfa f   nafxcw:afxtoolbar.obj
 0001:0004ccc8       ?SetRoundedRgn@CMFCToolBar@@IAEXXZ 0044dcc8 f   nafxcw:afxtoolbar.obj
 0001:0004cd78       ?CreateObject@CMFCToolBar@@SGPAVCObject@@XZ 0044dd78 f   nafxcw:afxtoolbar.obj
 0001:0004cda8       ??_GCMFCPrintPreviewToolBar@@UAEPAXI@Z 0044dda8 f i nafxcw:afxpreviewviewex.obj
 0001:0004cda8       ??_GCMFCTasksPaneToolBar@@UAEPAXI@Z 0044dda8 f i nafxcw:afxtaskspane.obj
 0001:0004cda8       ??_ECMFCToolBar@@UAEPAXI@Z 0044dda8 f i nafxcw:afxtoolbar.obj
 0001:0004cda8       ??_GCMFCImageEditorPaletteBar@@UAEPAXI@Z 0044dda8 f i nafxcw:afximageeditordialog.obj
 0001:0004cda8       ??_ECMFCTasksPaneToolBar@@UAEPAXI@Z 0044dda8 f i nafxcw:afxtaskspane.obj
 0001:0004cda8       ??_ECMFCPrintPreviewToolBar@@UAEPAXI@Z 0044dda8 f i nafxcw:afxpreviewviewex.obj
 0001:0004cda8       ??_GCMFCToolBar@@UAEPAXI@Z 0044dda8 f i nafxcw:afxtoolbar.obj
 0001:0004cda8       ??_ECMFCImageEditorPaletteBar@@UAEPAXI@Z 0044dda8 f i nafxcw:afximageeditordialog.obj
 0001:0004cdc9       ?SetButtonText@CMFCToolBar@@QAEHHPBD@Z 0044ddc9 f   nafxcw:afxtoolbar.obj
 0001:0004cdf7       ?OnCreate@CMFCToolBar@@IAEHPAUtagCREATESTRUCTA@@@Z 0044ddf7 f   nafxcw:afxtoolbar.obj
 0001:0004cf42       ?Serialize@CMFCToolBar@@UAEXAAVCArchive@@@Z 0044df42 f   nafxcw:afxtoolbar.obj
 0001:0004d18c       ?PreTranslateMessage@CMFCToolBar@@MAEHPAUtagMSG@@@Z 0044e18c f   nafxcw:afxtoolbar.obj
 0001:0004d288       ?OnSize@CMFCToolBar@@IAEXIHH@Z 0044e288 f   nafxcw:afxtoolbar.obj
 0001:0004d35c       ?SetToolBarBtnText@CMFCToolBar@@QAEXIPBDHH@Z 0044e35c f   nafxcw:afxtoolbar.obj
 0001:0004d3a9       ?OnNeedTipText@CMFCToolBar@@IAEHIPAUtagNMHDR@@PAJ@Z 0044e3a9 f   nafxcw:afxtoolbar.obj
 0001:0004d4be       ?OnChangeVisualManager@CMFCToolBar@@UAEXXZ 0044e4be f   nafxcw:afxtoolbar.obj
 0001:0004d51e       ?GetButtonText@CMFCToolBar@@QBE?AV?$CStringT@DV?$StrTraitMFC@DV?$ChTraitsCRT@D@ATL@@@@@ATL@@H@Z 0044e51e f   nafxcw:afxtoolbar.obj
 0001:0004d55f       ?OnToolHitTest@CMFCToolBar@@MBEHVCPoint@@PAUtagTOOLINFOA@@@Z 0044e55f f   nafxcw:afxtoolbar.obj
 0001:0004d877       ?SetText@CMFCToolBarCmdUI@@UAEXPBD@Z 0044e877 f   nafxcw:afxtoolbar.obj
 0001:0004d962       ?OnGetButtonText@CMFCToolBar@@IAEJIJ@Z 0044e962 f   nafxcw:afxtoolbar.obj
 0001:0004d9a7       ?GetThisMessageMap@CMFCToolBar@@KGPBUAFX_MSGMAP@@XZ 0044e9a7 f   nafxcw:afxtoolbar.obj
 0001:0004d9a7       ?GetMessageMap@CMFCToolBar@@MBEPBUAFX_MSGMAP@@XZ 0044e9a7 f   nafxcw:afxtoolbar.obj
 0001:0004d9ad       ?IsShowAllCommands@CMFCMenuBar@@SGHXZ 0044e9ad f i nafxcw:afxpopupmenu.obj
 0001:0004d9d4       ?SetOffset@CMFCPopupMenuBar@@QAEXH@Z 0044e9d4 f i nafxcw:afxpopupmenu.obj
 0001:0004d9f6       ??0CMFCShadowWnd@@AAE@PAVCMFCPopupMenu@@H@Z 0044e9f6 f i nafxcw:afxpopupmenu.obj
 0001:0004da44       ??1CMFCShadowWnd@@EAE@XZ   0044ea44 f i nafxcw:afxpopupmenu.obj
 0001:0004da7b       ??_GCMFCShadowWnd@@EAEPAXI@Z 0044ea7b f i nafxcw:afxpopupmenu.obj
 0001:0004da7b       ??_ECMFCShadowWnd@@EAEPAXI@Z 0044ea7b f i nafxcw:afxpopupmenu.obj
 0001:0004da9c       ?GetRuntimeClass@CMFCPopupMenu@@UBEPAUCRuntimeClass@@XZ 0044ea9c f   nafxcw:afxpopupmenu.obj
 0001:0004daa2       ?Initialize@CMFCPopupMenu@@IAEXXZ 0044eaa2 f   nafxcw:afxpopupmenu.obj
 0001:0004dcad       ?OnPaint@CMFCPopupMenu@@IAEXXZ 0044ecad f   nafxcw:afxpopupmenu.obj
 0001:0004dd09       ?PostNcDestroy@CMFCPopupMenu@@MAEXXZ 0044ed09 f   nafxcw:afxpopupmenu.obj
 0001:0004dd45       ?GetParentPopupMenu@CMFCPopupMenu@@QBEPAV1@XZ 0044ed45 f   nafxcw:afxpopupmenu.obj
 0001:0004dd96       ?GetParentToolBar@CMFCPopupMenu@@QBEPAVCMFCToolBar@@XZ 0044ed96 f   nafxcw:afxpopupmenu.obj
 0001:0004ddb1       ?GetSelItem@CMFCPopupMenu@@QAEPAVCMFCToolBarMenuButton@@XZ 0044edb1 f   nafxcw:afxpopupmenu.obj
 0001:0004ddce       ?InsertItem@CMFCPopupMenu@@QAEHABVCMFCToolBarMenuButton@@H@Z 0044edce f   nafxcw:afxpopupmenu.obj
 0001:0004dde6       ?InsertSeparator@CMFCPopupMenu@@QAEHH@Z 0044ede6 f   nafxcw:afxpopupmenu.obj
 0001:0004ddfe       ?GetMenuItemCount@CMFCPopupMenu@@QBEHXZ 0044edfe f   nafxcw:afxpopupmenu.obj
 0001:0004de0d       ?GetMenuItem@CMFCPopupMenu@@QBEPAVCMFCToolBarMenuButton@@H@Z 0044ee0d f   nafxcw:afxpopupmenu.obj
 0001:0004de22       ?RemoveItem@CMFCPopupMenu@@QAEHH@Z 0044ee22 f   nafxcw:afxpopupmenu.obj
 0001:0004de3a       ?RemoveAllItems@CMFCPopupMenu@@QAEXXZ 0044ee3a f   nafxcw:afxpopupmenu.obj
 0001:0004de4c       ?IsScrollUpAvailable@CMFCPopupMenu@@MAEHXZ 0044ee4c f   nafxcw:afxpopupmenu.obj
 0001:0004de62       ?IsScrollDnAvailable@CMFCPopupMenu@@MAEHXZ 0044ee62 f   nafxcw:afxpopupmenu.obj
 0001:0004dedc       ?CollapseSubmenus@CMFCPopupMenu@@IAEXXZ 0044eedc f   nafxcw:afxpopupmenu.obj
 0001:0004df10       ?HideRarelyUsedCommands@CMFCPopupMenu@@QBEHXZ 0044ef10 f   nafxcw:afxpopupmenu.obj
 0001:0004df1c       ?OnCmdMsg@CMFCPopupMenu@@UAEHIHPAXPAUAFX_CMDHANDLERINFO@@@Z 0044ef1c f   nafxcw:afxpopupmenu.obj
 0001:0004df5a       ?NotifyParentDlg@CMFCPopupMenu@@IAEHH@Z 0044ef5a f   nafxcw:afxpopupmenu.obj
 0001:0004dfd9       ?SetQuickMode@CMFCPopupMenu@@QAEXXZ 0044efd9 f   nafxcw:afxpopupmenu.obj
 0001:0004dff9       ?SetParentRibbonElement@CMFCPopupMenu@@QAEXPAVCMFCRibbonBaseElement@@@Z 0044eff9 f   nafxcw:afxpopupmenu.obj
 0001:0004e00e       ?GetParentArea@CMFCPopupMenu@@UAEPAVCWnd@@AAVCRect@@@Z 0044f00e f   nafxcw:afxpopupmenu.obj
 0001:0004e067       ?GetBorderSize@CMFCPopupMenu@@MBEHXZ 0044f067 f   nafxcw:afxpopupmenu.obj
 0001:0004e076       ?OnNcHitTest@CMFCPopupMenu@@IAEJVCPoint@@@Z 0044f076 f   nafxcw:afxpopupmenu.obj
 0001:0004e154       ?EnableResize@CMFCPopupMenu@@QAEXVCSize@@@Z 0044f154 f   nafxcw:afxpopupmenu.obj
 0001:0004e19a       ?EnableVertResize@CMFCPopupMenu@@QAEXH@Z 0044f19a f   nafxcw:afxpopupmenu.obj
 0001:0004e1c1       ?MapWindowPoints@CWnd@@QBEXPAV1@PAUtagRECT@@@Z 0044f1c1 f i nafxcw:afxpopupmenu.obj
 0001:0004e1e3       ?OnMouseMove@CWnd@@IAEXIVCPoint@@@Z 0044f1e3 f i nafxcw:afxpopupmenu.obj
 0001:0004e1e3       ?OnNcLButtonDblClk@CPaneFrameWnd@@IAEXIVCPoint@@@Z 0044f1e3 f i nafxcw:afxpaneframewnd.obj
 0001:0004e1e3       ?OnSize@CPaneDivider@@IAEXIHH@Z 0044f1e3 f i nafxcw:afxpanedivider.obj
 0001:0004e1e3       ?OnSize@CDockSite@@IAEXIHH@Z 0044f1e3 f i nafxcw:afxdocksite.obj
 0001:0004e1e3       ?OnNcLButtonDown@CWnd@@IAEXIVCPoint@@@Z 0044f1e3 f i nafxcw:afxpopupmenu.obj
 0001:0004e1eb       ?Repos@CMFCShadowWnd@@AAEXXZ 0044f1eb f   nafxcw:afxpopupmenu.obj
 0001:0004e2e7       ?OnCreate@CMFCPopupMenu@@IAEHPAUtagCREATESTRUCTA@@@Z 0044f2e7 f   nafxcw:afxpopupmenu.obj
 0001:0004e44a       ?RecalcLayout@CMFCPopupMenu@@UAEXH@Z 0044f44a f   nafxcw:afxpopupmenu.obj
 0001:0004f229       ?SaveState@CMFCPopupMenu@@UAEXXZ 00450229 f   nafxcw:afxpopupmenu.obj
 0001:0004f295       ?CloseMenu@CMFCPopupMenu@@QAEXH@Z 00450295 f   nafxcw:afxpopupmenu.obj
 0001:0004f328       ?ActivatePopupMenu@CMFCPopupMenu@@SGHPAVCFrameWnd@@PAV1@@Z 00450328 f   nafxcw:afxpopupmenu.obj
 0001:0004f485       ?OnActivateApp@CMFCPopupMenu@@IAEXHK@Z 00450485 f   nafxcw:afxpopupmenu.obj
 0001:0004f4ce       ?OnMouseMove@CMFCPopupMenu@@IAEXIVCPoint@@@Z 004504ce f   nafxcw:afxpopupmenu.obj
 0001:0004f5ca       ?UpdateBottomWindows@CMFCPopupMenu@@IAEXH@Z 004505ca f   nafxcw:afxpopupmenu.obj
 0001:0004f6f7       ?DoPaint@CMFCPopupMenu@@MAEXPAVCDC@@@Z 004506f7 f   nafxcw:afxpopupmenu.obj
 0001:0004fbcf       ?DrawFade@CMFCPopupMenu@@MAEXPAVCDC@@@Z 00450bcf f   nafxcw:afxpopupmenu.obj
 0001:0004ffe7       ?PostCommand@CMFCPopupMenu@@QAEHI@Z 00450fe7 f   nafxcw:afxpopupmenu.obj
 0001:0005002b       ?AdjustScroll@CMFCPopupMenu@@IAEHH@Z 0045102b f   nafxcw:afxpopupmenu.obj
 0001:000502f2       ?CheckArea@CMFCPopupMenu@@QBE?AW4MENUAREA_TYPE@1@ABVCPoint@@@Z 004512f2 f   nafxcw:afxpopupmenu.obj
 0001:0005042f       ?OnLButtonDown@CMFCPopupMenu@@IAEXIVCPoint@@@Z 0045142f f   nafxcw:afxpopupmenu.obj
 0001:00050492       ?OnLButtonUp@CMFCPopupMenu@@IAEXIVCPoint@@@Z 00451492 f   nafxcw:afxpopupmenu.obj
 0001:000504d1       ?PreTranslateMessage@CMFCPopupMenu@@UAEHPAUtagMSG@@@Z 004514d1 f   nafxcw:afxpopupmenu.obj
 0001:0005059d       ?OnNotify@CMFCPopupMenu@@MAEHIJPAJ@Z 0045159d f   nafxcw:afxpopupmenu.obj
 0001:00050605       ?UpdateShadow@CMFCPopupMenu@@QAEXPAUtagRECT@@@Z 00451605 f   nafxcw:afxpopupmenu.obj
 0001:00050a16       ?UpdateAllShadows@CMFCPopupMenu@@SGXPAUtagRECT@@@Z 00451a16 f   nafxcw:afxpopupmenu.obj
 0001:00050a4d       ?OnShowWindow@CMFCPopupMenu@@IAEXHI@Z 00451a4d f   nafxcw:afxpopupmenu.obj
 0001:00050a6c       ?OnSetCursor@CMFCPopupMenu@@IAEHPAVCWnd@@II@Z 00451a6c f   nafxcw:afxpopupmenu.obj
 0001:00050aed       ?SetScrollBar@CMFCPopupMenu@@IAEXXZ 00451aed f   nafxcw:afxpopupmenu.obj
 0001:00050d0a       ?OnVScroll@CMFCPopupMenu@@IAEXIIPAVCScrollBar@@@Z 00451d0a f   nafxcw:afxpopupmenu.obj
 0001:00050e3e       ?OnMouseWheel@CMFCPopupMenu@@IAEHIFVCPoint@@@Z 00451e3e f   nafxcw:afxpopupmenu.obj
 0001:00050e9c       ?StartResize@CMFCPopupMenu@@IAEHXZ 00451e9c f   nafxcw:afxpopupmenu.obj
 0001:000511ca       ?FindMenuWithConnectedFloaty@CMFCPopupMenu@@KGPAV1@XZ 004521ca f   nafxcw:afxpopupmenu.obj
 0001:0005120a       ?TriggerResize@CMFCPopupMenu@@QAEXXZ 0045220a f   nafxcw:afxpopupmenu.obj
 0001:0005126e       ?OnWindowPosChanged@CMFCPopupMenu@@IAEXPAUtagWINDOWPOS@@@Z 0045226e f   nafxcw:afxpopupmenu.obj
 0001:000512b9       ?OnSize@CMFCPopupMenu@@IAEXIHH@Z 004522b9 f   nafxcw:afxpopupmenu.obj
 0001:000513b8       ?OnDestroy@CMFCPopupMenu@@IAEXXZ 004523b8 f   nafxcw:afxpopupmenu.obj
 0001:0005169d       ?OnTimer@CMFCPopupMenu@@IAEXI@Z 0045269d f   nafxcw:afxpopupmenu.obj
 0001:0005191c       ?ShowAllCommands@CMFCPopupMenu@@QAEXXZ 0045291c f   nafxcw:afxpopupmenu.obj
 0001:00051a18       ?OnNcLButtonDown@CMFCPopupMenu@@IAEXIVCPoint@@@Z 00452a18 f   nafxcw:afxpopupmenu.obj
 0001:00051a5a       ?OnKeyDown@CMFCPopupMenu@@IAEXIII@Z 00452a5a f   nafxcw:afxpopupmenu.obj
 0001:00051e09       ?GetThisMessageMap@CMFCPopupMenu@@KGPBUAFX_MSGMAP@@XZ 00452e09 f   nafxcw:afxpopupmenu.obj
 0001:00051e09       ?GetMessageMap@CMFCPopupMenu@@MBEPBUAFX_MSGMAP@@XZ 00452e09 f   nafxcw:afxpopupmenu.obj
 0001:00051e0f       ?InitMenuBar@CMFCPopupMenu@@MAEHXZ 00452e0f f   nafxcw:afxpopupmenu.obj
 0001:0005235b       ?TearOff@CMFCPopupMenu@@MAEHVCPoint@@@Z 0045335b f   nafxcw:afxpopupmenu.obj
 0001:0005266c       ?OnSize@CMFCShadowWnd@@IAEXIHH@Z 0045366c f   nafxcw:afxpopupmenu.obj
 0001:000527c1       ??0CMFCPopupMenu@@QAE@XZ   004537c1 f   nafxcw:afxpopupmenu.obj
 0001:0005292c       ?GetMenuBar@CMFCPopupMenu@@UAEPAVCMFCPopupMenuBar@@XZ 0045392c f i nafxcw:afxpopupmenu.obj
 0001:00052933       ?InCommand@CMFCPopupMenu@@UAEHXZ 00453933 f i nafxcw:afxpopupmenu.obj
 0001:00052947       ?IsIdle@CMFCPopupMenu@@UBEHXZ 00453947 f i nafxcw:afxpopupmenu.obj
 0001:0005295b       ??1CMFCPopupMenu@@UAE@XZ   0045395b f   nafxcw:afxpopupmenu.obj
 0001:00052a6f       ?CreateTearOffBar@CMFCPopupMenu@@MAEPAVCPane@@PAVCFrameWnd@@IPBD@Z 00453a6f f   nafxcw:afxpopupmenu.obj
 0001:00052da3       ??_GCMFCPopupMenu@@UAEPAXI@Z 00453da3 f i nafxcw:afxpopupmenu.obj
 0001:00052da3       ??_ECMFCPopupMenu@@UAEPAXI@Z 00453da3 f i nafxcw:afxpopupmenu.obj
 0001:00052dc4       ?GetMessageMap@CMFCShadowWnd@@MBEPBUAFX_MSGMAP@@XZ 00453dc4 f   nafxcw:afxpopupmenu.obj
 0001:00052dca       ?Create@CMFCShadowWnd@@UAEHXZ 00453dca f   nafxcw:afxpopupmenu.obj
 0001:00052ea1       ??0CMFCPopupMenu@@IAE@PAVCMFCToolBarsMenuPropertyPage@@PBD@Z 00453ea1 f   nafxcw:afxpopupmenu.obj
 0001:0005300e       ?Create@CMFCPopupMenu@@UAEHPAVCWnd@@HHPAUHMENU__@@HH@Z 0045400e f   nafxcw:afxpopupmenu.obj
 0001:00053356       ?GetRuntimeClass@CMFCPopupMenuBar@@UBEPAUCRuntimeClass@@XZ 00454356 f   nafxcw:afxpopupmenubar.obj
 0001:0005335c       ?DrawSeparator@CMFCPopupMenuBar@@MAEXPAVCDC@@ABVCRect@@H@Z 0045435c f   nafxcw:afxpopupmenubar.obj
 0001:0005338b       ?DrawDragCursor@CMFCPopupMenuBar@@MAEXPAVCDC@@@Z 0045438b f   nafxcw:afxpopupmenubar.obj
 0001:00053499       ?OnIdleUpdateCmdUI@CMFCPopupMenuBar@@IAEJIJ@Z 00454499 f   nafxcw:afxpopupmenubar.obj
 0001:00053506       ?OnToolbarImageAndText@CMFCPopupMenuBar@@IAEXXZ 00454506 f   nafxcw:afxpopupmenubar.obj
 0001:0005355f       ?OnToolbarText@CMFCPopupMenuBar@@IAEXXZ 0045455f f   nafxcw:afxpopupmenubar.obj
 0001:00053596       ??0?$CMap@IIII@@QAE@H@Z    00454596 f i nafxcw:afxpopupmenubar.obj
 0001:000535c2       ??_E?$CMap@IIII@@UAEPAXI@Z 004545c2 f i nafxcw:afxpopupmenubar.obj
 0001:000535c2       ??_G?$CMap@IIII@@UAEPAXI@Z 004545c2 f i nafxcw:afxpopupmenubar.obj
 0001:000535e9       ??0CMFCPopupMenuBar@@QAE@XZ 004545e9 f   nafxcw:afxpopupmenubar.obj
 0001:000536dc       ?GetLockedImageSize@CMFCToolBar@@QBE?AVCSize@@XZ 004546dc f i nafxcw:afxpopupmenubar.obj
 0001:00053708       ?GetCurrentMenuImageSize@CMFCPopupMenuBar@@UBE?AVCSize@@XZ 00454708 f i nafxcw:afxpopupmenubar.obj
 0001:00053739       ?AllowSelectDisabled@CMFCPopupMenuBar@@MBEHXZ 00454739 f i nafxcw:afxpopupmenubar.obj
 0001:0005373f       ??1CMFCPopupMenuBar@@UAE@XZ 0045473f f   nafxcw:afxpopupmenubar.obj
 0001:0005378e       ?AdjustLocations@CMFCPopupMenuBar@@MAEXXZ 0045478e f   nafxcw:afxpopupmenubar.obj
 0001:00053a0d       ?FindDropIndex@CMFCPopupMenuBar@@MBEHVCPoint@@AAVCRect@@@Z 00454a0d f   nafxcw:afxpopupmenubar.obj
 0001:00053afd       ?OnChangeHot@CMFCPopupMenuBar@@MAEXH@Z 00454afd f   nafxcw:afxpopupmenubar.obj
 0001:00053e15       ?OnDestroy@CMFCPopupMenuBar@@IAEXXZ 00454e15 f   nafxcw:afxpopupmenubar.obj
 0001:00053eb4       ?OnTimer@CMFCPopupMenuBar@@IAEXI@Z 00454eb4 f   nafxcw:afxpopupmenubar.obj
 0001:00054099       ?StartPopupMenuTimer@CMFCPopupMenuBar@@QAEXPAVCMFCToolBarMenuButton@@H@Z 00455099 f   nafxcw:afxpopupmenubar.obj
 0001:000540f9       ?OnSetDefaultButtonText@CMFCPopupMenuBar@@MAEHPAVCMFCToolBarButton@@@Z 004550f9 f   nafxcw:afxpopupmenubar.obj
 0001:00054151       ?FindDestintationToolBar@CMFCPopupMenuBar@@QAEPAVCMFCToolBar@@VCPoint@@@Z 00455151 f   nafxcw:afxpopupmenubar.obj
 0001:0005425b       ?OnDragOver@CMFCPopupMenuBar@@MAEKPAVCOleDataObject@@KVCPoint@@@Z 0045525b f   nafxcw:afxpopupmenubar.obj
 0001:000542c6       ?OnFillBackground@CMFCPopupMenuBar@@MAEXPAVCDC@@@Z 004552c6 f   nafxcw:afxpopupmenubar.obj
 0001:000543ec       ?SetButtonStyle@CMFCPopupMenuBar@@UAEXHI@Z 004553ec f   nafxcw:afxpopupmenubar.obj
 0001:000544c9       ?CloseDelayedSubMenu@CMFCPopupMenuBar@@UAEXXZ 004554c9 f   nafxcw:afxpopupmenubar.obj
 0001:000544f6       ?RestoreDelayedSubMenu@CMFCPopupMenuBar@@UAEXXZ 004554f6 f   nafxcw:afxpopupmenubar.obj
 0001:00054565       ?SetInCommand@CMFCPopupMenuBar@@IAEXH@Z 00455565 f   nafxcw:afxpopupmenubar.obj
 0001:000545c2       ?AdjustLayout@CMFCPopupMenuBar@@MAEXXZ 004555c2 f   nafxcw:afxpopupmenubar.obj
 0001:00054626       ?OnLButtonDblClk@CMFCPopupMenuBar@@IAEXIVCPoint@@@Z 00455626 f   nafxcw:afxpopupmenubar.obj
 0001:0005467d       ?OnCalcSeparatorRect@CMFCPopupMenuBar@@MAEXPAVCMFCToolBarButton@@AAVCRect@@H@Z 0045567d f   nafxcw:afxpopupmenubar.obj
 0001:000546fb       ?OnAfterButtonDelete@CMFCPopupMenuBar@@MAEXXZ 004556fb f   nafxcw:afxpopupmenubar.obj
 0001:0005471c       ?CreateObject@CMFCPopupMenuBar@@SGPAVCObject@@XZ 0045571c f   nafxcw:afxpopupmenubar.obj
 0001:0005474c       ??_ECMFCPopupMenuBar@@UAEPAXI@Z 0045574c f i nafxcw:afxpopupmenubar.obj
 0001:0005474c       ??_GCMFCPopupMenuBar@@UAEPAXI@Z 0045574c f i nafxcw:afxpopupmenubar.obj
 0001:0005476d       ?InvokeMenuCommand@CMFCPopupMenuBar@@IAEXIPBVCMFCToolBarButton@@@Z 0045576d f   nafxcw:afxpopupmenubar.obj
 0001:00054a17       ?OnLButtonDown@CMFCPopupMenuBar@@IAEXIVCPoint@@@Z 00455a17 f   nafxcw:afxpopupmenubar.obj
 0001:00054ae7       ?OnLButtonUp@CMFCPopupMenuBar@@IAEXIVCPoint@@@Z 00455ae7 f   nafxcw:afxpopupmenubar.obj
 0001:00054bdd       ?EnableContextMenuItems@CMFCPopupMenuBar@@MAEHPAVCMFCToolBarButton@@PAVCMenu@@@Z 00455bdd f   nafxcw:afxpopupmenubar.obj
 0001:00054c90       ?OnMouseMove@CMFCPopupMenuBar@@IAEXIVCPoint@@@Z 00455c90 f   nafxcw:afxpopupmenubar.obj
 0001:00054da7       ?GetCommandTarget@CMFCPopupMenuBar@@MBEPAVCWnd@@XZ 00455da7 f   nafxcw:afxpopupmenubar.obj
 0001:00054dea       ?ShowCommandMessageString@CMFCPopupMenuBar@@MAEXI@Z 00455dea f   nafxcw:afxpopupmenubar.obj
 0001:00054e1c       ?Lookup@?$CMap@IIHH@@QBEHIAAH@Z 00455e1c f i nafxcw:afxtoolbar.obj
 0001:00054e1c       ?Lookup@?$CMap@IIPAUHWND__@@PAU1@@@QBEHIAAPAUHWND__@@@Z 00455e1c f i nafxcw:afxpaneframewnd.obj
 0001:00054e1c       ?Lookup@?$CMap@IIII@@QBEHIAAI@Z 00455e1c f i nafxcw:afxpopupmenubar.obj
 0001:00054e1c       ?Lookup@?$CMap@IIPAUHICON__@@PAU1@@@QBEHIAAPAUHICON__@@@Z 00455e1c f i nafxcw:afxtabctrl.obj
 0001:00054e1c       ?Lookup@?$CMap@IIPAVCPane@@PAV1@@@QBEHIAAPAVCPane@@@Z 00455e1c f i nafxcw:afxdockingmanager.obj
 0001:00054e45       ?GetMenuUserImage@CCommandManager@@QBEHI@Z 00455e45 f i nafxcw:afxpopupmenubar.obj
 0001:00054e65       ?OnSendCommand@CMFCPopupMenuBar@@MAEHPBVCMFCToolBarButton@@@Z 00455e65 f   nafxcw:afxpopupmenubar.obj
 0001:00054f7b       ?CalcSize@CMFCPopupMenuBar@@MAE?AVCSize@@H@Z 00455f7b f   nafxcw:afxpopupmenubar.obj
 0001:000551c7       ?CreateDroppedButton@CMFCPopupMenuBar@@MAEPAVCMFCToolBarButton@@PAVCOleDataObject@@@Z 004561c7 f   nafxcw:afxpopupmenubar.obj
 0001:000552a2       ?ExportToMenu@CMFCPopupMenuBar@@UBEPAUHMENU__@@XZ 004562a2 f   nafxcw:afxpopupmenubar.obj
 0001:000553fb       ?OnKey@CMFCPopupMenuBar@@MAEHI@Z 004563fb f   nafxcw:afxpopupmenubar.obj
 0001:0005590b       ?OnCreate@CMFCPopupMenuBar@@IAEHPAUtagCREATESTRUCTA@@@Z 0045690b f   nafxcw:afxpopupmenubar.obj
 0001:000559e8       ??A?$CMap@IIKK@@QAEAAKI@Z  004569e8 f i nafxcw:afxcolorbar.obj
 0001:000559e8       ??A?$CMap@IIPAUHWND__@@PAU1@@@QAEAAPAUHWND__@@I@Z 004569e8 f i nafxcw:afxpaneframewnd.obj
 0001:000559e8       ??A?$CMap@IIPAVCPane@@PAV1@@@QAEAAPAVCPane@@I@Z 004569e8 f i nafxcw:afxdockingmanager.obj
 0001:000559e8       ??A?$CMap@IIPAVCMFCRibbonStatusBarPane@@PAV1@@@QAEAAPAVCMFCRibbonStatusBarPane@@I@Z 004569e8 f i nafxcw:afxribbonstatusbarpane.obj
 0001:000559e8       ??A?$CMap@IIII@@QAEAAII@Z  004569e8 f i nafxcw:afxpopupmenubar.obj
 0001:000559e8       ??A?$CMap@IIHH@@QAEAAHI@Z  004569e8 f i nafxcw:afxtoolbar.obj
 0001:000559e8       ??A?$CMap@IIPAUHICON__@@PAU1@@@QAEAAPAUHICON__@@I@Z 004569e8 f i nafxcw:afxtabctrl.obj
 0001:00055a4c       ?Serialize@?$CMap@IIII@@UAEXAAVCArchive@@@Z 00456a4c f i nafxcw:afxpopupmenubar.obj
 0001:00055a4c       ?Serialize@?$CMap@IIKK@@UAEXAAVCArchive@@@Z 00456a4c f i nafxcw:afxcolormenubutton.obj
 0001:00055af4       ?GetMessageMap@CMFCPopupMenuBar@@MBEPBUAFX_MSGMAP@@XZ 00456af4 f   nafxcw:afxpopupmenubar.obj
 0001:00055af4       ?GetThisMessageMap@CMFCPopupMenuBar@@KGPBUAFX_MSGMAP@@XZ 00456af4 f   nafxcw:afxpopupmenubar.obj
 0001:00055afa       ?ImportFromMenu@CMFCPopupMenuBar@@UAEHPAUHMENU__@@H@Z 00456afa f   nafxcw:afxpopupmenubar.obj
 0001:00056073       ?OnToolHitTest@CMFCPopupMenuBar@@MBEHVCPoint@@PAUtagTOOLINFOA@@@Z 00457073 f   nafxcw:afxpopupmenubar.obj
 0001:000561e6       ?CreateNewTool@CUserToolsManager@@QAEPAVCUserTool@@XZ 004571e6 f   nafxcw:afxusertoolsmanager.obj
 0001:0005624e       ?RemoveTool@CUserToolsManager@@QAEHPAVCUserTool@@@Z 0045724e f   nafxcw:afxusertoolsmanager.obj
 0001:000562da       ?MoveToolUp@CUserToolsManager@@QAEHPAVCUserTool@@@Z 004572da f   nafxcw:afxusertoolsmanager.obj
 0001:0005631b       ?MoveToolDown@CUserToolsManager@@QAEHPAVCUserTool@@@Z 0045731b f   nafxcw:afxusertoolsmanager.obj
 0001:0005635b       ?FindTool@CUserToolsManager@@QBEPAVCUserTool@@I@Z 0045735b f   nafxcw:afxusertoolsmanager.obj
 0001:00056392       ?InvokeTool@CUserToolsManager@@QAEHI@Z 00457392 f   nafxcw:afxusertoolsmanager.obj
 0001:000563ae       ?SetAt@?$CSimpleStringT@D$0A@@ATL@@QAEXHD@Z 004573ae f i nafxcw:docmgr.obj
 0001:000563ed       ?AlwaysSaveSelection@CMFCPopupMenuBar@@MBEHXZ 004573ed f   nafxcw:afxpopupmenubar.obj
 0001:000563ed       ?IsOwnerDrawMenuCheck@CMFCVisualManager@@UAEHXZ 004573ed f   nafxcw:afxvisualmanageroffice2007.obj
 0001:000563ed       ?AllowShowOnList@CMFCOutlookBarToolBar@@UBEHXZ 004573ed f   nafxcw:afxoutlookbartabctrl.obj
 0001:000563ed       ?IsButtonExtraSizeAvailable@CMFCTasksPaneToolBar@@UBEHXZ 004573ed f   nafxcw:afxtaskspane.obj
 0001:000563ed       ?HasAutoHideMode@CBaseTabbedPane@@UBEHXZ 004573ed f   nafxcw:afxbasetabbedpane.obj
 0001:000563ed       ?AlwaysSaveSelection@CMFCToolBar@@MBEHXZ 004573ed f   nafxcw:afxtoolbar.obj
 0001:000563ed       ?InitInstance@CWinThread@@UAEHXZ 004573ed f   nafxcw:thrdcore.obj
 0001:000563ed       ?GetOccDialogInfo@CWnd@@MAEPAU_AFX_OCC_DIALOG_INFO@@XZ 004573ed f   nafxcw:wincore.obj
 0001:000563ed       ?IsSeparator@CMFCRibbonBaseElement@@UBEHXZ 004573ed f   nafxcw:afxbaseribbonelement.obj
 0001:000563ed       ?IsRibbonMiniToolBar@CMFCPopupMenu@@MBEHXZ 004573ed f   nafxcw:afxpopupmenu.obj
 0001:000563ed       ?DoesAllowDynInsertBefore@CMFCCaptionBar@@UBEHXZ 004573ed f   nafxcw:afxcaptionbar.obj
 0001:000563ed       ?IsInFloatingMultiPaneFrameWnd@CBasePane@@UBEHXZ 004573ed f   nafxcw:afxbasepane.obj
 0001:000563ed       ?HaveHotBorder@CMFCToolBarSystemMenuButton@@UBEHXZ 004573ed f   nafxcw:afxtoolbarsystemmenubutton.obj
 0001:000563ed       ?IsThemeBackgroundPartiallyTransparentFail@CThemeHelper@@CAHPAXHH@Z 004573ed f   nafxcw:ThemeHelper.obj
 0001:000563ed       ?HasMenu@CMFCRibbonBaseElement@@UBEHXZ 004573ed f   nafxcw:afxbaseribbonelement.obj
 0001:000563ed       ?IsRibbonPanel@CMFCPopupMenuBar@@UBEHXZ 004573ed f   nafxcw:afxpopupmenubar.obj
 0001:000563ed       ?IsTabbed@CMFCOutlookBarToolBar@@UBEHXZ 004573ed f   nafxcw:afxoutlookbartabctrl.obj
 0001:000563ed       ?AllowSelectDisabled@CMFCToolBar@@MBEHXZ 004573ed f   nafxcw:afxtoolbar.obj
 0001:000563ed       ?GetGroupOffset@CMFCRibbonGallery@@UBEHXZ 004573ed f   nafxcw:afxribbonpalettegallery.obj
 0001:000563ed       ?AllowShowOnPaneMenu@CAutoHideDockSite@@UBEHXZ 004573ed f   nafxcw:afxautohidedocksite.obj
 0001:000563ed       ?IsRibbonPanelInRegularMode@CMFCPopupMenuBar@@UBEHXZ 004573ed f   nafxcw:afxpopupmenubar.obj
 0001:000563ed       ?AllowChangeTextLabels@CMFCColorBar@@MBEHXZ 004573ed f   nafxcw:afxcolorbar.obj
 0001:000563ed       ___init_dummy              004573ed f   libcmt:setlocal.obj
 0001:000563ed       ?AllowShowOnPaneMenu@CMFCTasksPaneToolBar@@UBEHXZ 004573ed f   nafxcw:afxtaskspane.obj
 0001:000563ed       ?IsFrameWnd@CWnd@@UBEHXZ   004573ed f   nafxcw:wincore.obj
 0001:000563ed       ?GetCaptionHeight@CBasePane@@UBEHXZ 004573ed f   nafxcw:afxtoolbar.obj
 0001:000563ed       ?HasCompactMode@CMFCRibbonBaseElement@@UBEHXZ 004573ed f   nafxcw:afxbaseribbonelement.obj
 0001:000563ed       ?IsWindowsThemingSupported@CMFCVisualManager@@UBEHXZ 004573ed f   nafxcw:afxvisualmanager.obj
 0001:000563ed       ?OnWizardBack@CPropertyPage@@UAEJXZ 004573ed f   nafxcw:dlgprop.obj
 0001:000563ed       ?HaveHotBorder@CMFCToolBarMenuButtonsButton@@UBEHXZ 004573ed f   nafxcw:afxtoolbarmenubuttonsbutton.obj
 0001:000563ed       ?AllowChangeTextLabels@CMFCMenuBar@@UBEHXZ 004573ed f   nafxcw:afxmenubar.obj
 0001:000563ed       ?IsButtonExtraSizeAvailable@CMFCPopupMenuBar@@MBEHXZ 004573ed f   nafxcw:afxpopupmenubar.obj
 0001:000563ed       ?IsOwnerDrawCaption@CMFCVisualManager@@UAEHXZ 004573ed f   nafxcw:afxvisualmanager.obj
 0001:000563ed       ?IsAccessibilityCompatible@CDockablePane@@UAEHXZ 004573ed f   nafxcw:afxdockablepane.obj
 0001:000563ed       ?IsLayeredRibbonKeyTip@CMFCVisualManager@@UBEHXZ 004573ed f   nafxcw:afxvisualmanager.obj
 0001:000563ed       ?AllowShowOnPaneMenu@CMFCMenuBar@@UBEHXZ 004573ed f   nafxcw:afxmenubar.obj
 0001:000563ed       ?IsActiveTabCloseButton@CMFCBaseTabCtrl@@UBEHXZ 004573ed f   nafxcw:afxbasetabctrl.obj
 0001:000563ed       ?IsOneNoteStyle@CMFCBaseTabCtrl@@UBEHXZ 004573ed f   nafxcw:afxbasetabctrl.obj
 0001:000563ed       ?CanFocus@CMFCToolBar@@UBEHXZ 004573ed f   nafxcw:afxtoolbar.obj
 0001:000563ed       ?AllowShowOnPaneMenu@CMFCPrintPreviewToolBar@@MBEHXZ 004573ed f   nafxcw:afxpreviewviewex.obj
 0001:000563ed       ?IsBlank@CDocItem@@UBEHXZ  004573ed f   nafxcw:oledoc1.obj
 0001:000563ed       ?CanBeStored@CMFCToolBarSystemMenuButton@@UBEHXZ 004573ed f   nafxcw:afxtoolbarsystemmenubutton.obj
 0001:000563ed       ___init_collate            004573ed f   libcmt:initcoll.obj
 0001:000563ed       ?IsTabStop@CRibbonUndoLabel@@UBEHXZ 004573ed f   nafxcw:afxribbonundobutton.obj
 0001:000563ed       ?HasFocus@CMFCRibbonBaseElement@@UBEHXZ 004573ed f   nafxcw:afxbaseribbonelement.obj
 0001:000563ed       ?IsAlwaysClose@CMFCPopupMenu@@UBEHXZ 004573ed f   nafxcw:afxpopupmenu.obj
 0001:000563ed       ?IsFixedSize@CMFCRibbonPanel@@MBEHXZ 004573ed f   nafxcw:afxribbonpanel.obj
 0001:000563ed       ?IsEditable@CMFCCustomizeButton@@UBEHXZ 004573ed f   nafxcw:afxcustomizebutton.obj
 0001:000563ed       ?AllowShowOnList@CMFCPopupMenuBar@@MBEHXZ 004573ed f   nafxcw:afxpopupmenubar.obj
 0001:000563ed       ?IsDockBar@CControlBar@@UBEHXZ 004573ed f   nafxcw:barcore.obj
 0001:000563ed       ?IsHighlightOneNoteTabs@CMFCVisualManager@@UBEHXZ 004573ed f   nafxcw:afxvisualmanager.obj
 0001:000563ed       ?AlwaysHighlight3DTabs@CMFCVisualManager@@UBEHXZ 004573ed f   nafxcw:afxvisualmanageroffice2007.obj
 0001:000563ed       ?OnColorOK@CColorDialog@@MAEHXZ 004573ed f   nafxcw:dlgclr.obj
 0001:000563ed       ?OnAutoRepeat@CMFCRibbonBaseElement@@UAEHXZ 004573ed f   nafxcw:afxbaseribbonelement.obj
 0001:000563ed       ?GetHwnd@CMFCToolBarButton@@UAEPAUHWND__@@XZ 004573ed f   nafxcw:afxtoolbarbutton.obj
 0001:000563ed       ?IsFlatTab@CMFCBaseTabCtrl@@UBEHXZ 004573ed f   nafxcw:afxbasetabctrl.obj
 0001:000563ed       ?IsResizable@CDockSite@@UBEHXZ 004573ed f   nafxcw:afxdocksite.obj
 0001:000563ed       ?GetTypeLibCache@CCmdTarget@@UAEPAVCTypeLibCache@@XZ 004573ed f   nafxcw:cmdtarg.obj
 0001:000563ed       ?AllowShowOnPaneMenu@CMFCPopupMenuBar@@MBEHXZ 004573ed f   nafxcw:afxpopupmenubar.obj
 0001:000563ed       ?GetRibbonQuickAccessToolBarChevronOffset@CMFCVisualManager@@UAEHXZ 004573ed f   nafxcw:afxvisualmanager.obj
 0001:000563ed       ?IsLeftRightRounded@CMFCBaseTabCtrl@@UBEHXZ 004573ed f   nafxcw:afxbasetabctrl.obj
 0001:000563ed       ?IsShowTooltipOnBottom@CMFCRibbonTab@@UBEHXZ 004573ed f   nafxcw:afxribboncategory.obj
 0001:000563ed       ?HaveHotBorder@CMFCToolBarMenuButton@@UBEHXZ 004573ed f   nafxcw:afxtoolbarmenubutton.obj
 0001:000563ed       ?OnWizardNext@CPropertyPage@@UAEJXZ 004573ed f   nafxcw:dlgprop.obj
 0001:000563ed       ?IsFlatFrame@CMFCBaseTabCtrl@@UBEHXZ 004573ed f   nafxcw:afxbasetabctrl.obj
 0001:000563ed       ?CanBeStretched@CMFCToolBarButton@@UBEHXZ 004573ed f   nafxcw:afxtoolbarbutton.obj
 0001:000563ed       __matherr                  004573ed f   libcmt:_matherr_.obj
 0001:000563ed       ?GetRibbonQuickAccessToolBarRightMargin@CMFCVisualManager@@UAEHXZ 004573ed f   nafxcw:afxvisualmanageroffice2007.obj
 0001:000563ed       ?CanBeStored@CMFCCustomizeButton@@UBEHXZ 004573ed f   nafxcw:afxcustomizebutton.obj
 0001:000563ed       ?IsDefaultPanelButton@CMFCRibbonButton@@UBEHXZ 004573ed f   nafxcw:afxribbonbar.obj
 0001:000563ed       ?CanBeClosed@CMFCMenuBar@@UBEHXZ 004573ed f   nafxcw:afxmenubar.obj
 0001:000563ed       ?IsAccessibilityCompatible@CDockSite@@UAEHXZ 004573ed f   nafxcw:afxdocksite.obj
 0001:000563ed       ?AllowShowOnList@CMFCOutlookBarPane@@MBEHXZ 004573ed f   nafxcw:afxoutlookbarpane.obj
 0001:000563ed       ?DoesAllowDynInsertBefore@CDockSite@@UBEHXZ 004573ed f   nafxcw:afxdocksite.obj
 0001:000563ed       ?IsExclusive@CMFCToolBarMenuButton@@UBEHXZ 004573ed f   nafxcw:afxtoolbarmenubutton.obj
 0001:000563ed       ?IsAppThemedFail@CThemeHelper@@CAHXZ 004573ed f   nafxcw:ThemeHelper.obj
 0001:000563ed       ?IsResizable@CPane@@UBEHXZ 004573ed f   nafxcw:afxtoolbar.obj
 0001:000563ed       ?AllowShowOnPaneMenu@CMFCOutlookBarPane@@MBEHXZ 004573ed f   nafxcw:afxoutlookbarpane.obj
 0001:000563ed       ?IsApplicationButton@CMFCRibbonButton@@UBEHXZ 004573ed f   nafxcw:afxribbonbar.obj
 0001:000563ed       ?CanBeAttached@CBasePane@@UBEHXZ 004573ed f   nafxcw:afxtoolbar.obj
 0001:000563ed       ?CanBeStored@CMFCToolBarMenuButtonsButton@@UBEHXZ 004573ed f   nafxcw:afxtoolbarmenubuttonsbutton.obj
 0001:000563ed       ?IsButtonExtraSizeAvailable@CMFCImageEditorPaletteBar@@EBEHXZ 004573ed f   nafxcw:afximageeditordialog.obj
 0001:000563ed       ?IsBorder@CMFCToolBarSystemMenuButton@@UBEHXZ 004573ed f   nafxcw:afxtoolbarsystemmenubutton.obj
 0001:000563ed       ?AllowShowOnPaneMenu@CMFCAutoHideBar@@UBEHXZ 004573ed f   nafxcw:afxautohidebar.obj
 0001:000563ed       ?IsItemMenuLook@CMFCRibbonGallery@@MBEHXZ 004573ed f   nafxcw:afxribbonpalettegallery.obj
 0001:000563ed       ?HasOverlappedAutoHideButtons@CMFCVisualManager@@UBEHXZ 004573ed f   nafxcw:afxvisualmanageroffice2007.obj
 0001:000563ed       ?HasLargeMode@CMFCRibbonBaseElement@@UBEHXZ 004573ed f   nafxcw:afxbaseribbonelement.obj
 0001:000563ed       ?CanBeAddedToQuickAccessToolBar@CMFCRibbonLabel@@MBEHXZ 004573ed f   nafxcw:afxribbonlabel.obj
 0001:000563ed       ?CanBeStretchedHorizontally@CMFCRibbonBaseElement@@UAEHXZ 004573ed f   nafxcw:afxbaseribbonelement.obj
 0001:000563ed       ?IsTabStop@CMFCRibbonLabel@@MBEHXZ 004573ed f   nafxcw:afxribbonlabel.obj
 0001:000563ed       ?IsHighlightWholeMenuItem@CMFCVisualManager@@UAEHXZ 004573ed f   nafxcw:afxvisualmanager.obj
 0001:000563ed       ?IsToolBox@CMFCTasksPane@@UBEHXZ 004573ed f   nafxcw:afxtaskspane.obj
 0001:000563ed       ?DoesAllowDynInsertBefore@CMFCOutlookBar@@UBEHXZ 004573ed f   nafxcw:afxoutlookbar.obj
 0001:000563ed       ?CanFloat@CMFCOutlookBarPane@@MBEHXZ 004573ed f   nafxcw:afxoutlookbarpane.obj
 0001:000563ed       ?IsShowTooltipOnBottom@CMFCRibbonCaptionButton@@MBEHXZ 004573ed f   nafxcw:afxribbonbar.obj
 0001:000563ed       ?IsGalleryIcon@CMFCRibbonBaseElement@@UBEHXZ 004573ed f   nafxcw:afxbaseribbonelement.obj
 0001:000563ed       ?IsTabStop@CMFCRibbonSeparator@@MBEHXZ 004573ed f   nafxcw:afxbaseribbonelement.obj
 0001:000563ed       ?HasLargeMode@CMFCRibbonEdit@@UBEHXZ 004573ed f   nafxcw:afxribbonedit.obj
 0001:000563ed       ?GetTypeInfoCount@CCmdTarget@@UAEIXZ 004573ed f   nafxcw:cmdtarg.obj
 0001:000563ed       ?IsMainPanel@CMFCRibbonPanel@@UBEHXZ 004573ed f   nafxcw:afxribbonpanel.obj
 0001:000563ed       ?AllowShowOnList@CMFCTasksPaneToolBar@@UBEHXZ 004573ed f   nafxcw:afxtaskspane.obj
 0001:000563ed       ?GetDockingPaneCaptionExtraHeight@CMFCVisualManager@@UBEHXZ 004573ed f   nafxcw:afxvisualmanageroffice2007.obj
 0001:000563ed       ?IsVS2005Style@CMFCBaseTabCtrl@@UBEHXZ 004573ed f   nafxcw:afxbasetabctrl.obj
 0001:000563ed       ?OnClickUp@CMFCToolBarButton@@UAEHXZ 004573ed f   nafxcw:afxtoolbarbutton.obj
 0001:000563ed       ?CanBeStretched@CMFCRibbonEdit@@UAEHXZ 004573ed f   nafxcw:afxribbonedit.obj
 0001:000563ed       ?IsReadOnly@CMDIChildWndEx@@UAEHXZ 004573ed f   nafxcw:afxmdichildwndex.obj
 0001:000563ed       ?OpenThemeDataFail@CThemeHelper@@CAPAXPAUHWND__@@PB_W@Z 004573ed f   nafxcw:ThemeHelper.obj
 0001:000563ed       ?IsWholeRowHeight@CMFCRibbonBaseElement@@UBEHXZ 004573ed f   nafxcw:afxbaseribbonelement.obj
 0001:000563ed       ?AllowShowOnPaneMenu@CMFCDropDownToolBar@@UBEHXZ 004573ed f   nafxcw:afxdropdowntoolbar.obj
 0001:000563ed       ?OnFileNameOK@CFileDialog@@MAEHXZ 004573ed f   nafxcw:dlgfile.obj
 0001:000563ed       ?AllowAltCustomization@CMFCPopupMenuBar@@MBEHXZ 004573ed f   nafxcw:afxpopupmenubar.obj
 0001:000563ed       ?AllowShowOnPaneMenu@CMFCOutlookBarToolBar@@UBEHXZ 004573ed f   nafxcw:afxoutlookbartabctrl.obj
 0001:000563ed       ?IsButtonExtraSizeAvailable@CMFCMenuBar@@UBEHXZ 004573ed f   nafxcw:afxmenubar.obj
 0001:000563ed       ?IsAutoHideMode@CBasePane@@UBEHXZ 004573ed f   nafxcw:afxtoolbar.obj
 0001:000563ed       ?HasButton@CMFCToolBarMenuButton@@UBEHXZ 004573ed f   nafxcw:afxtoolbarmenubutton.obj
 0001:000563ed       ?IsDroppedDown@CMFCToolBarButton@@UBEHXZ 004573ed f   nafxcw:afxtoolbarbutton.obj
 0001:000563ed       ?IsEmptyMenuAllowed@CMFCToolBarMenuButton@@UBEHXZ 004573ed f   nafxcw:afxtoolbarmenubutton.obj
 0001:000563ed       ?IsInFloatingMultiPaneFrameWnd@CPane@@UBEHXZ 004573ed f   nafxcw:afxtoolbar.obj
 0001:000563ed       ?CanBeTabbedDocument@CBasePane@@UBEHXZ 004573ed f   nafxcw:afxbasepane.obj
 0001:000563ed       ?IsEditable@CHelpComboBoxButton@@UBEHXZ 004573ed f   nafxcw:afxmenubar.obj
 0001:000563ed       ?OnClickMenuItem@CMFCToolBarMenuButton@@UAEHXZ 004573ed f   nafxcw:afxtoolbarmenubutton.obj
 0001:000563f0       ?DrawThemeParentBackgroundFail@CThemeHelper@@CAJPAUHWND__@@PAUHDC__@@PAUtagRECT@@@Z 004573f0 f   nafxcw:ThemeHelper.obj
 0001:000563f0       ?GetThemePartSizeFail@CThemeHelper@@CAJPAXPAUHDC__@@HHPAUtagRECT@@W4THEMESIZE@@PAUtagSIZE@@@Z 004573f0 f   nafxcw:ThemeHelper.obj
 0001:000563f0       ?CloseThemeDataFail@CThemeHelper@@CAJPAX@Z 004573f0 f   nafxcw:ThemeHelper.obj
 0001:000563f0       ?DrawThemeBackgroundFail@CThemeHelper@@CAJPAXPAUHDC__@@HHPBUtagRECT@@2@Z 004573f0 f   nafxcw:ThemeHelper.obj
 0001:000563f6       ?GetProc@CThemeHelper@@CAPAXPBDPAX@Z 004573f6 f   nafxcw:ThemeHelper.obj
 0001:0005644a       ?IsAppThemed@CThemeHelper@@SAHXZ 0045744a f   nafxcw:ThemeHelper.obj
 0001:00056490       ?OpenThemeData@CThemeHelper@@SAPAXPAUHWND__@@PB_W@Z 00457490 f   nafxcw:ThemeHelper.obj
 0001:000564dc       ?CloseThemeData@CThemeHelper@@SAJPAX@Z 004574dc f   nafxcw:ThemeHelper.obj
 0001:00056525       ?DrawThemeBackground@CThemeHelper@@SAJPAXPAUHDC__@@HHPBUtagRECT@@2@Z 00457525 f   nafxcw:ThemeHelper.obj
 0001:0005657d       ?GetThemePartSize@CThemeHelper@@SAJPAXPAUHDC__@@HHPAUtagRECT@@W4THEMESIZE@@PAUtagSIZE@@@Z 0045757d f   nafxcw:ThemeHelper.obj
 0001:000565d8       ?IsThemeBackgroundPartiallyTransparent@CThemeHelper@@SAHPAXHH@Z 004575d8 f   nafxcw:ThemeHelper.obj
 0001:00056627       ?DrawThemeParentBackground@CThemeHelper@@SAJPAUHWND__@@PAUHDC__@@PAUtagRECT@@@Z 00457627 f   nafxcw:ThemeHelper.obj
 0001:00056676       ?RecurseDeleteKey@CRegKey@ATL@@QAEJPBD@Z 00457676 f i nafxcw:olereg.obj
 0001:00056762       ?GetRuntimeClass@CByteArray@@UBEPAUCRuntimeClass@@XZ 00457762 f   nafxcw:array_b.obj
 0001:00056768       ??0CByteArray@@QAE@XZ      00457768 f   nafxcw:array_b.obj
 0001:0005677f       ??1CByteArray@@UAE@XZ      0045777f f   nafxcw:array_b.obj
 0001:0005678f       ?SetSize@CByteArray@@QAEXHH@Z 0045778f f   nafxcw:array_b.obj
 0001:000568a1       ?Serialize@CByteArray@@UAEXAAVCArchive@@@Z 004578a1 f   nafxcw:array_b.obj
 0001:00056921       ?CreateObject@CByteArray@@SGPAVCObject@@XZ 00457921 f   nafxcw:array_b.obj
 0001:00056945       ??_GCByteArray@@UAEPAXI@Z  00457945 f i nafxcw:array_b.obj
 0001:00056945       ??_ECByteArray@@UAEPAXI@Z  00457945 f i nafxcw:array_b.obj
 0001:00056966       ??0CFixedAllocNoSync@@QAE@II@Z 00457966 f   nafxcw:fixalloc.obj
 0001:00056994       ?FreeAll@CFixedAllocNoSync@@QAEXXZ 00457994 f   nafxcw:fixalloc.obj
 0001:000569ab       ??1CFixedAllocNoSync@@QAE@XZ 004579ab f   nafxcw:fixalloc.obj
 0001:000569b0       ?Alloc@CFixedAllocNoSync@@QAEPAXXZ 004579b0 f   nafxcw:fixalloc.obj
 0001:000569f2       ?RemoveAll@CObList@@QAEXXZ 004579f2 f   nafxcw:list_o.obj
 0001:000569f2       ?RemoveAll@CPtrList@@QAEXXZ 004579f2 f   nafxcw:list_p.obj
 0001:00056a14       ?RemoveHead@CPtrList@@QAEPAXXZ 00457a14 f   nafxcw:list_p.obj
 0001:00056a14       ?RemoveHead@CObList@@QAEPAVCObject@@XZ 00457a14 f   nafxcw:list_o.obj
 0001:00056a45       ?FindIndex@CObList@@QBEPAU__POSITION@@H@Z 00457a45 f   nafxcw:list_o.obj
 0001:00056a45       ?FindIndex@?$CList@KK@@QBEPAU__POSITION@@H@Z 00457a45 f   nafxcw:afxtoolbarcomboboxbutton.obj
 0001:00056a45       ?FindIndex@CStringList@@QBEPAU__POSITION@@H@Z 00457a45 f   nafxcw:list_s.obj
 0001:00056a68       ?GetRuntimeClass@CObList@@UBEPAUCRuntimeClass@@XZ 00457a68 f   nafxcw:list_o.obj
 0001:00056a6e       ??0CObList@@QAE@H@Z        00457a6e f   nafxcw:list_o.obj
 0001:00056a96       ??1CObList@@UAE@XZ         00457a96 f   nafxcw:list_o.obj
 0001:00056aa1       ?AddHead@CPtrList@@QAEPAU__POSITION@@PAX@Z 00457aa1 f   nafxcw:list_p.obj
 0001:00056aa1       ?AddHead@CObList@@QAEPAU__POSITION@@PAVCObject@@@Z 00457aa1 f   nafxcw:list_o.obj
 0001:00056ad0       ?AddTail@CObList@@QAEXPAV1@@Z 00457ad0 f   nafxcw:list_o.obj
 0001:00056b06       ?InsertAfter@CObList@@QAEPAU__POSITION@@PAU2@PAVCObject@@@Z 00457b06 f   nafxcw:list_o.obj
 0001:00056b44       ?Serialize@CObList@@UAEXAAVCArchive@@@Z 00457b44 f   nafxcw:list_o.obj
 0001:00056ba1       ?CreateObject@CObList@@SGPAVCObject@@XZ 00457ba1 f   nafxcw:list_o.obj
 0001:00056bba       ??_ECObList@@UAEPAXI@Z     00457bba f i nafxcw:list_o.obj
 0001:00056bba       ??_GCObList@@UAEPAXI@Z     00457bba f i nafxcw:list_o.obj
 0001:00056be1       ?Init@CInitGDIPlus@CImage@ATL@@QAE_NXZ 00457be1 f i nafxcw:afxmdichildwndex.obj
 0001:00056c3f       ?ReleaseGDIPlus@CInitGDIPlus@CImage@ATL@@QAEXXZ 00457c3f f i nafxcw:afxmdichildwndex.obj
 0001:00056c68       ?IncreaseCImageCount@CInitGDIPlus@CImage@ATL@@QAEXXZ 00457c68 f i nafxcw:afxmdichildwndex.obj
 0001:00056c85       ?DecreaseCImageCount@CInitGDIPlus@CImage@ATL@@QAEXXZ 00457c85 f i nafxcw:afxmdichildwndex.obj
 0001:00056cab       ?GetDC@CDCCache@CImage@ATL@@QAEPAUHDC__@@XZ 00457cab f i nafxcw:afxmdichildwndex.obj
 0001:00056cd3       ?ReleaseDC@CDCCache@CImage@ATL@@QAEXPAUHDC__@@@Z 00457cd3 f i nafxcw:afxmdichildwndex.obj
 0001:00056d05       ??0CImage@ATL@@QAE@XZ      00457d05 f i nafxcw:afxmdichildwndex.obj
 0001:00056d45       ?Detach@CImage@ATL@@QAEPAUHBITMAP__@@XZ 00457d45 f i nafxcw:afxmdichildwndex.obj
 0001:00056d69       ?GetDC@CImage@ATL@@QBEPAUHDC__@@XZ 00457d69 f i nafxcw:afxmdichildwndex.obj
 0001:00056d96       ?ReleaseDC@CImage@ATL@@QBEXXZ 00457d96 f i nafxcw:afxmdichildwndex.obj
 0001:00056dbf       ?UpdateBitmapInfo@CImage@ATL@@AAEXW4DIBOrientation@12@@Z 00457dbf f i nafxcw:afxmdichildwndex.obj
 0001:00056e86       ?IsOwnerDrawCaption@CFrameImpl@@IAEHXZ 00457e86 f i nafxcw:afxmdichildwndex.obj
 0001:00056ead       ?AreMDITabs@CMDIFrameWndEx@@QBEHPAH@Z 00457ead f i nafxcw:afxmdichildwndex.obj
 0001:00056ef6       ?GetRuntimeClass@CMDIChildWndEx@@UBEPAUCRuntimeClass@@XZ 00457ef6 f   nafxcw:afxmdichildwndex.obj
 0001:00056efc       ?OnSetText@CMDIChildWndEx@@IAEJIJ@Z 00457efc f   nafxcw:afxmdichildwndex.obj
 0001:00056f46       ?OnSetIcon@CMDIChildWndEx@@IAEJIJ@Z 00457f46 f   nafxcw:afxmdichildwndex.obj
 0001:00056f71       ?PreCreateWindow@CMDIChildWndEx@@MAEHAAUtagCREATESTRUCTA@@@Z 00457f71 f   nafxcw:afxmdichildwndex.obj
 0001:00056f94       ?AddPane@CMDIChildWndEx@@QAEHPAVCBasePane@@H@Z 00457f94 f   nafxcw:afxmdichildwndex.obj
 0001:00056fb2       ?InsertPane@CMDIChildWndEx@@QAEHPAVCBasePane@@0H@Z 00457fb2 f   nafxcw:afxmdichildwndex.obj
 0001:00056fc3       ?RemovePaneFromDockManager@CMDIChildWndEx@@QAEXPAVCBasePane@@HHH0@Z 00457fc3 f   nafxcw:afxmdichildwndex.obj
 0001:00056fd4       ?DockPane@CMDIChildWndEx@@QAEXPAVCBasePane@@IPBUtagRECT@@@Z 00457fd4 f   nafxcw:afxmdichildwndex.obj
 0001:0005704c       ?PaneFromPoint@CMDIChildWndEx@@QBEPAVCBasePane@@VCPoint@@H_NPAUCRuntimeClass@@@Z 0045804c f   nafxcw:afxmdichildwndex.obj
 0001:00057073       ?IsPointNearDockSite@CMDIChildWndEx@@QBEHVCPoint@@AAKAAH@Z 00458073 f   nafxcw:afxmdichildwndex.obj
 0001:00057093       ?OnMoveMiniFrame@CMDIChildWndEx@@UAEHPAVCWnd@@@Z 00458093 f   nafxcw:afxmdichildwndex.obj
 0001:000570a4       ?OnSysCommand@CMDIChildWndEx@@IAEXIJ@Z 004580a4 f   nafxcw:afxmdichildwndex.obj
 0001:000570dc       ?OnIdleUpdateCmdUI@CMDIChildWndEx@@IAEJIJ@Z 004580dc f   nafxcw:afxmdichildwndex.obj
 0001:000570f5       ?OnChangeVisualManager@CMDIChildWndEx@@IAEJIJ@Z 004580f5 f   nafxcw:afxmdichildwndex.obj
 0001:00057118       ?OnTaskbarTabThumbnailActivate@CMDIChildWndEx@@UAEXIPAVCWnd@@H@Z 00458118 f   nafxcw:afxmdichildwndex.obj
 0001:00057147       ?OnTaskbarTabThumbnailMouseActivate@CMDIChildWndEx@@UAEHPAVCWnd@@II@Z 00458147 f   nafxcw:afxmdichildwndex.obj
 0001:0005717c       ?GetRuntimeClass@CMDITabProxyWnd@@UBEPAUCRuntimeClass@@XZ 0045817c f   nafxcw:afxmdichildwndex.obj
 0001:00057182       ??0CMDITabProxyWnd@@QAE@XZ 00458182 f   nafxcw:afxmdichildwndex.obj
 0001:0005719a       ?OnActivate@CMDITabProxyWnd@@IAEXIPAVCWnd@@H@Z 0045819a f   nafxcw:afxmdichildwndex.obj
 0001:000571b5       ?OnMouseActivate@CMDITabProxyWnd@@IAEHPAVCWnd@@II@Z 004581b5 f   nafxcw:afxmdichildwndex.obj
 0001:000571d2       ?OnClose@CMDITabProxyWnd@@IAEXXZ 004581d2 f   nafxcw:afxmdichildwndex.obj
 0001:000571e4       ?SetParent@CWnd@@QAEPAV1@PAV1@@Z 004581e4 f i nafxcw:afxmdichildwndex.obj
 0001:00057207       ?DrawImage@Graphics@Gdiplus@@QAE?AW4Status@2@PAVImage@2@HHHH@Z 00458207 f i nafxcw:afxmdichildwndex.obj
 0001:00057241       ??_EImage@Gdiplus@@UAEPAXI@Z 00458241 f i nafxcw:afxmdichildwndex.obj
 0001:00057241       ??_GImage@Gdiplus@@UAEPAXI@Z 00458241 f i nafxcw:afxmdichildwndex.obj
 0001:00057241       ??_EBitmap@Gdiplus@@UAEPAXI@Z 00458241 f i nafxcw:afxmdichildwndex.obj
 0001:00057241       ??_GBitmap@Gdiplus@@UAEPAXI@Z 00458241 f i nafxcw:afxmdichildwndex.obj
 0001:0005726a       ?AlphaBlend@CImage@ATL@@QBEHPAUHDC__@@HHHHHHHHEE@Z 0045826a f i nafxcw:afxmdichildwndex.obj
 0001:000572ca       ?AlphaBlend@CImage@ATL@@QBEHPAUHDC__@@ABUtagRECT@@1EE@Z 004582ca f i nafxcw:afxmdichildwndex.obj
 0001:00057320       ?IsOLEContainerMode@CDockingManager@@QBEHXZ 00458320 f i nafxcw:afxmdichildwndex.obj
 0001:00057341       ??0CMDIChildWndEx@@IAE@XZ  00458341 f   nafxcw:afxmdichildwndex.obj
 0001:000573ec       ?CanShowOnMDITabs@CMDIChildWndEx@@UAEHXZ 004583ec f i nafxcw:afxmdichildwndex.obj
 0001:000573f8       ??1CMDIChildWndEx@@MAE@XZ  004583f8 f   nafxcw:afxmdichildwndex.obj
 0001:00057456       ?PreTranslateMessage@CMDIChildWndEx@@UAEHPAUtagMSG@@@Z 00458456 f   nafxcw:afxmdichildwndex.obj
 0001:000574d4       ?OnCreate@CMDIChildWndEx@@IAEHPAUtagCREATESTRUCTA@@@Z 004584d4 f   nafxcw:afxmdichildwndex.obj
 0001:000576ca       ?IsRegisteredWithTaskbarTabs@CMDIChildWndEx@@QAEHXZ 004586ca f   nafxcw:afxmdichildwndex.obj
 0001:000576e1       ?IsTaskbarTabsSupportEnabled@CMDIChildWndEx@@QAEHXZ 004586e1 f   nafxcw:afxmdichildwndex.obj
 0001:00057744       ?InvalidateIconicBitmaps@CMDIChildWndEx@@QAEHXZ 00458744 f   nafxcw:afxmdichildwndex.obj
 0001:000577f9       ?UpdateTaskbarTabIcon@CMDIChildWndEx@@UAEXPAUHICON__@@@Z 004587f9 f   nafxcw:afxmdichildwndex.obj
 0001:00057828       ?SetTaskbarTabOrder@CMDIChildWndEx@@QAEXPAV1@@Z 00458828 f   nafxcw:afxmdichildwndex.obj
 0001:00057886       ?SetTaskbarTabActive@CMDIChildWndEx@@QAEXXZ 00458886 f   nafxcw:afxmdichildwndex.obj
 0001:000578de       ?OnMDIActivate@CMDIChildWndEx@@IAEXHPAVCWnd@@0@Z 004588de f   nafxcw:afxmdichildwndex.obj
 0001:00057a3d       ?ActivateFrame@CMDIChildWndEx@@UAEXH@Z 00458a3d f   nafxcw:afxmdichildwndex.obj
 0001:00057ae4       ?GetFrameIcon@CMDIChildWndEx@@UBEPAUHICON__@@XZ 00458ae4 f   nafxcw:afxmdichildwndex.obj
 0001:00057b0a       ?OnSize@CMDIChildWndEx@@IAEXIHH@Z 00458b0a f   nafxcw:afxmdichildwndex.obj
 0001:00057ca7       ?OnSetPreviewMode@CMDIChildWndEx@@UAEXHPAUCPrintPreviewState@@@Z 00458ca7 f   nafxcw:afxmdichildwndex.obj
 0001:00057d18       ?AdjustClientArea@CMDIChildWndEx@@IAEXXZ 00458d18 f   nafxcw:afxmdichildwndex.obj
 0001:00057e11       ?RecalcLayout@CMDIChildWndEx@@UAEXH@Z 00458e11 f   nafxcw:afxmdichildwndex.obj
 0001:00057f96       ?OnSizing@CMDIChildWndEx@@IAEXIPAUtagRECT@@@Z 00458f96 f   nafxcw:afxmdichildwndex.obj
 0001:00058017       ?UnregisterTaskbarTab@CMDIChildWndEx@@QAEXH@Z 00459017 f   nafxcw:afxmdichildwndex.obj
 0001:000580a1       ?OnGetMinMaxInfo@CMDIChildWndEx@@IAEXPAUtagMINMAXINFO@@@Z 004590a1 f   nafxcw:afxmdichildwndex.obj
 0001:000580e9       ?OnStyleChanged@CMDIChildWndEx@@IAEXHPAUtagSTYLESTRUCT@@@Z 004590e9 f   nafxcw:afxmdichildwndex.obj
 0001:00058447       ?GetDocumentName@CMDIChildWndEx@@UAEPBDPAPAVCObject@@@Z 00459447 f   nafxcw:afxmdichildwndex.obj
 0001:0005845d       ?OnWindowPosChanged@CMDIChildWndEx@@IAEXPAUtagWINDOWPOS@@@Z 0045945d f   nafxcw:afxmdichildwndex.obj
 0001:000584b6       ?OnNcPaint@CMDIChildWndEx@@IAEXXZ 004594b6 f   nafxcw:afxmdichildwndex.obj
 0001:00058507       ?OnNcActivate@CMDIChildWndEx@@IAEHH@Z 00459507 f   nafxcw:afxmdichildwndex.obj
 0001:0005859a       ?OnNcMouseMove@CMDIChildWndEx@@IAEXIVCPoint@@@Z 0045959a f   nafxcw:afxmdichildwndex.obj
 0001:000585c2       ?OnNcHitTest@CMDIChildWndEx@@IAEJVCPoint@@@Z 004595c2 f   nafxcw:afxmdichildwndex.obj
 0001:000585eb       ?OnNcCalcSize@CMDIChildWndEx@@IAEXHPAUtagNCCALCSIZE_PARAMS@@@Z 004595eb f   nafxcw:afxmdichildwndex.obj
 0001:00058650       ?OnLButtonUp@CMDIChildWndEx@@IAEXIVCPoint@@@Z 00459650 f   nafxcw:afxmdichildwndex.obj
 0001:00058675       ?OnMouseMove@CMDIChildWndEx@@IAEXIVCPoint@@@Z 00459675 f   nafxcw:afxmdichildwndex.obj
 0001:0005869a       ?OnLButtonDown@CMDIChildWndEx@@IAEXIVCPoint@@@Z 0045969a f   nafxcw:afxmdichildwndex.obj
 0001:000586bf       ?AddTabbedPane@CMDIChildWndEx@@QAEXPAVCDockablePane@@@Z 004596bf f   nafxcw:afxmdichildwndex.obj
 0001:00058737       ?OnNcRButtonUp@CMDIChildWndEx@@IAEXIVCPoint@@@Z 00459737 f   nafxcw:afxmdichildwndex.obj
 0001:0005877f       ?GetTaskbarPreviewWnd@CMDIChildWndEx@@UAEPAVCWnd@@XZ 0045977f f   nafxcw:afxmdichildwndex.obj
 0001:000587ec       ?OnPressTaskbarThmbnailCloseButton@CMDIChildWndEx@@UAEXXZ 004597ec f   nafxcw:afxmdichildwndex.obj
 0001:00058846       ?GetTaskbarThumbnailClipRect@CMDIChildWndEx@@UBE?AVCRect@@XZ 00459846 f   nafxcw:afxmdichildwndex.obj
 0001:0005886d       ?SetTaskbarThumbnailClipRect@CMDIChildWndEx@@MAEHVCRect@@@Z 0045986d f   nafxcw:afxmdichildwndex.obj
 0001:00058911       ?ActivateTopLevelFrame@CMDIChildWndEx@@MAEXXZ 00459911 f   nafxcw:afxmdichildwndex.obj
 0001:00058961       ?CreateObject@CMDITabProxyWnd@@SGPAVCObject@@XZ 00459961 f   nafxcw:afxmdichildwndex.obj
 0001:0005898e       ??_ECMDITabProxyWnd@@UAEPAXI@Z 0045998e f i nafxcw:afxmdichildwndex.obj
 0001:0005898e       ??_GCMDITabProxyWnd@@UAEPAXI@Z 0045998e f i nafxcw:afxmdichildwndex.obj
 0001:000589b5       ?IsMDIChildActive@CMDITabProxyWnd@@IAEHXZ 004599b5 f   nafxcw:afxmdichildwndex.obj
 0001:000589f7       ?OnSysCommand@CMDITabProxyWnd@@IAEXIJ@Z 004599f7 f   nafxcw:afxmdichildwndex.obj
 0001:00058a5b       ?Clone@Image@Gdiplus@@UAEPAV12@XZ 00459a5b f i nafxcw:afxmdichildwndex.obj
 0001:00058a9f       ??1CImage@ATL@@UAE@XZ      00459a9f f i nafxcw:afxmdichildwndex.obj
 0001:00058ac1       ?CreateEx@CImage@ATL@@QAEHHHHKPBKK@Z 00459ac1 f i nafxcw:afxmdichildwndex.obj
 0001:00058bc9       ?CreateObject@CMDIChildWndEx@@SGPAVCObject@@XZ 00459bc9 f   nafxcw:afxmdichildwndex.obj
 0001:00058bf9       ??_GCMDIChildWndEx@@MAEPAXI@Z 00459bf9 f i nafxcw:afxmdichildwndex.obj
 0001:00058bf9       ??_ECMDIChildWndEx@@MAEPAXI@Z 00459bf9 f i nafxcw:afxmdichildwndex.obj
 0001:00058c1a       ?AdjustDockingLayout@CMDIChildWndEx@@UAEXPAX@Z 00459c1a f   nafxcw:afxmdichildwndex.obj
 0001:00058c45       ?OnDestroy@CMDIChildWndEx@@IAEXXZ 00459c45 f   nafxcw:afxmdichildwndex.obj
 0001:00058dea       ?OnTaskbarTabThumbnailStretch@CMDIChildWndEx@@UAEHPAUHBITMAP__@@ABVCRect@@01@Z 00459dea f   nafxcw:afxmdichildwndex.obj
 0001:00058f3f       ?GetClientBitmap@CMDITabProxyWnd@@QAEPAUHBITMAP__@@HHH@Z 00459f3f f   nafxcw:afxmdichildwndex.obj
 0001:00059247       ?OnSendIconicThumbnail@CMDITabProxyWnd@@IAEJIJ@Z 0045a247 f   nafxcw:afxmdichildwndex.obj
 0001:000592cf       ?OnSendIconicLivePreviewBitmap@CMDITabProxyWnd@@IAEJIJ@Z 0045a2cf f   nafxcw:afxmdichildwndex.obj
 0001:000593bf       ??_ECImage@ATL@@UAEPAXI@Z  0045a3bf f i nafxcw:afxmdichildwndex.obj
 0001:000593bf       ??_GCImage@ATL@@UAEPAXI@Z  0045a3bf f i nafxcw:afxmdichildwndex.obj
 0001:000593e0       ?SetTaskbarTabProperties@CMDIChildWndEx@@QAEXK@Z 0045a3e0 f   nafxcw:afxmdichildwndex.obj
 0001:00059462       ?GetFrameText@CMDIChildWndEx@@UBE?AV?$CStringT@DV?$StrTraitMFC@DV?$ChTraitsCRT@D@ATL@@@@@ATL@@XZ 0045a462 f   nafxcw:afxmdichildwndex.obj
 0001:000594a6       ?OnUpdateFrameTitle@CMDIChildWndEx@@UAEXH@Z 0045a4a6 f   nafxcw:afxmdichildwndex.obj
 0001:00059588       ?GetTitle@CFrameWnd@@QBE?AV?$CStringT@DV?$StrTraitMFC@DV?$ChTraitsCRT@D@ATL@@@@@ATL@@XZ 0045a588 f i nafxcw:afxmdichildwndex.obj
 0001:000595ae       ?GetMessageMap@CMDIChildWndEx@@MBEPBUAFX_MSGMAP@@XZ 0045a5ae f   nafxcw:afxmdichildwndex.obj
 0001:000595b4       ?RegisterTaskbarTab@CMDIChildWndEx@@UAEXPAV1@@Z 0045a5b4 f   nafxcw:afxmdichildwndex.obj
 0001:000597bf       ?GetMessageMap@CMDITabProxyWnd@@MBEPBUAFX_MSGMAP@@XZ 0045a7bf f   nafxcw:afxmdichildwndex.obj
 0001:000597c5       ?SetTaskbarTabText@CMDIChildWndEx@@MAEXPBD@Z 0045a7c5 f   nafxcw:afxmdichildwndex.obj
 0001:00059915       ?GetRuntimeClass@COleDocIPFrameWndEx@@UBEPAUCRuntimeClass@@XZ 0045a915 f   nafxcw:afxoledocipframewndex.obj
 0001:0005991b       ??0COleDocIPFrameWndEx@@IAE@XZ 0045a91b f   nafxcw:afxoledocipframewndex.obj
 0001:0005996b       ?OnShowCustomizePane@COleDocIPFrameWndEx@@UAEHPAVCMFCPopupMenu@@I@Z 0045a96b f i nafxcw:afxoledocipframewndex.obj
 0001:00059988       ??1COleDocIPFrameWndEx@@MAE@XZ 0045a988 f   nafxcw:afxoledocipframewndex.obj
 0001:000599d1       ?OnMenuChar@COleDocIPFrameWndEx@@IAEJIIPAVCMenu@@@Z 0045a9d1 f   nafxcw:afxoledocipframewndex.obj
 0001:00059a07       ?ShowPopupMenu@COleDocIPFrameWndEx@@IAEHPAVCMFCPopupMenu@@@Z 0045aa07 f   nafxcw:afxoledocipframewndex.obj
 0001:00059a47       ?OnClosePopupMenu@COleDocIPFrameWndEx@@UAEXPAVCMFCPopupMenu@@@Z 0045aa47 f   nafxcw:afxoledocipframewndex.obj
 0001:00059a6c       ?OnCommand@COleDocIPFrameWndEx@@MAEHIJ@Z 0045aa6c f   nafxcw:afxoledocipframewndex.obj
 0001:00059ad7       ?LoadFrame@COleDocIPFrameWndEx@@UAEHIKPAVCWnd@@PAUCCreateContext@@@Z 0045aad7 f   nafxcw:afxoledocipframewndex.obj
 0001:00059b0b       ?OnToolbarCreateNew@COleDocIPFrameWndEx@@IAEJIJ@Z 0045ab0b f   nafxcw:afxoledocipframewndex.obj
 0001:00059b2d       ?OnToolbarDelete@COleDocIPFrameWndEx@@IAEJIJ@Z 0045ab2d f   nafxcw:afxoledocipframewndex.obj
 0001:00059b44       ?OnClose@COleDocIPFrameWndEx@@IAEXXZ 0045ab44 f   nafxcw:afxoledocipframewndex.obj
 0001:00059b5c       ?AddPane@COleDocIPFrameWndEx@@QAEHPAVCBasePane@@H@Z 0045ab5c f   nafxcw:afxoledocipframewndex.obj
 0001:00059b7a       ?InsertPane@COleDocIPFrameWndEx@@QAEHPAVCBasePane@@0H@Z 0045ab7a f   nafxcw:afxoledocipframewndex.obj
 0001:00059b8b       ?RemovePaneFromDockManager@COleDocIPFrameWndEx@@QAEXPAVCBasePane@@HHH0@Z 0045ab8b f   nafxcw:afxoledocipframewndex.obj
 0001:00059b9c       ?DockPane@COleDocIPFrameWndEx@@QAEXPAVCBasePane@@IPBUtagRECT@@@Z 0045ab9c f   nafxcw:afxoledocipframewndex.obj
 0001:00059bad       ?PaneFromPoint@COleDocIPFrameWndEx@@QBEPAVCBasePane@@VCPoint@@H_NPAUCRuntimeClass@@@Z 0045abad f   nafxcw:afxoledocipframewndex.obj
 0001:00059bd4       ?IsPointNearDockSite@COleDocIPFrameWndEx@@QBEHVCPoint@@AAKAAH@Z 0045abd4 f   nafxcw:afxoledocipframewndex.obj
 0001:00059bf4       ?OnMoveMiniFrame@COleDocIPFrameWndEx@@UAEHPAVCWnd@@@Z 0045abf4 f   nafxcw:afxoledocipframewndex.obj
 0001:00059c05       ?PreCreateWindow@COleDocIPFrameWndEx@@MAEHAAUtagCREATESTRUCTA@@@Z 0045ac05 f   nafxcw:afxoledocipframewndex.obj
 0001:00059c1c       ?GetPane@COleDocIPFrameWndEx@@QAEPAVCBasePane@@I@Z 0045ac1c f   nafxcw:afxoledocipframewndex.obj
 0001:00059c35       ?OnPaneCheck@COleDocIPFrameWndEx@@IAEHI@Z 0045ac35 f   nafxcw:afxoledocipframewndex.obj
 0001:00059c73       ?OnSetPreviewMode@COleDocIPFrameWndEx@@UAEXHPAUCPrintPreviewState@@@Z 0045ac73 f   nafxcw:afxoledocipframewndex.obj
 0001:00059cb3       ?RecalcLayout@COleDocIPFrameWndEx@@UAEXH@Z 0045acb3 f   nafxcw:afxoledocipframewndex.obj
 0001:00059d4b       ?OnIdleUpdateCmdUI@COleDocIPFrameWndEx@@IAEJIJ@Z 0045ad4b f   nafxcw:afxoledocipframewndex.obj
 0001:00059d8c       ?OnShowPanes@COleDocIPFrameWndEx@@UAEHH@Z 0045ad8c f   nafxcw:afxoledocipframewndex.obj
 0001:00059db9       ?OnCmdMsg@COleDocIPFrameWndEx@@UAEHIHPAXPAUAFX_CMDHANDLERINFO@@@Z 0045adb9 f   nafxcw:afxoledocipframewndex.obj
 0001:00059df7       ?CreateObject@COleDocIPFrameWndEx@@SGPAVCObject@@XZ 0045adf7 f   nafxcw:afxoledocipframewndex.obj
 0001:00059e27       ??_GCOleDocIPFrameWndEx@@MAEPAXI@Z 0045ae27 f i nafxcw:afxoledocipframewndex.obj
 0001:00059e27       ??_ECOleDocIPFrameWndEx@@MAEPAXI@Z 0045ae27 f i nafxcw:afxoledocipframewndex.obj
 0001:00059e48       ?PreTranslateMessage@COleDocIPFrameWndEx@@UAEHPAUtagMSG@@@Z 0045ae48 f   nafxcw:afxoledocipframewndex.obj
 0001:00059f97       ?OnActivate@COleDocIPFrameWndEx@@IAEXIPAVCWnd@@H@Z 0045af97 f   nafxcw:afxoledocipframewndex.obj
 0001:0005a031       ?AdjustDockingLayout@COleDocIPFrameWndEx@@UAEXPAX@Z 0045b031 f   nafxcw:afxoledocipframewndex.obj
 0001:0005a073       ?OnUpdatePaneMenu@COleDocIPFrameWndEx@@IAEXPAVCCmdUI@@@Z 0045b073 f   nafxcw:afxoledocipframewndex.obj
 0001:0005a0ad       ?OnDestroy@COleDocIPFrameWndEx@@IAEXXZ 0045b0ad f   nafxcw:afxoledocipframewndex.obj
 0001:0005a1bc       ?GetMessageMap@COleDocIPFrameWndEx@@MBEPBUAFX_MSGMAP@@XZ 0045b1bc f   nafxcw:afxoledocipframewndex.obj
 0001:0005a1c2       ?GetRuntimeClass@COleIPFrameWndEx@@UBEPAUCRuntimeClass@@XZ 0045b1c2 f   nafxcw:afxoleipframewndex.obj
 0001:0005a1c8       ??0COleIPFrameWndEx@@IAE@XZ 0045b1c8 f   nafxcw:afxoleipframewndex.obj
 0001:0005a228       ?OnShowCustomizePane@COleIPFrameWndEx@@UAEHPAVCMFCPopupMenu@@I@Z 0045b228 f i nafxcw:afxoleipframewndex.obj
 0001:0005a245       ?OnMenuButtonToolHitTest@CMDIFrameWndEx@@UAEHPAVCMFCToolBarButton@@PAUtagTOOLINFOA@@@Z 0045b245 f i nafxcw:afxmdiframewndex.obj
 0001:0005a245       ?GetToolbarButtonToolTipText@CFrameWndEx@@UAEHPAVCMFCToolBarButton@@AAV?$CStringT@DV?$StrTraitMFC@DV?$ChTraitsCRT@D@ATL@@@@@ATL@@@Z 0045b245 f i nafxcw:afxframewndex.obj
 0001:0005a245       ?OnGetIconicLivePreviewBitmap@CMDIChildWndEx@@UAEPAUHBITMAP__@@HAAVCPoint@@@Z 0045b245 f i nafxcw:afxmdichildwndex.obj
 0001:0005a245       ?OnMenuButtonToolHitTest@COleDocIPFrameWndEx@@UAEHPAVCMFCToolBarButton@@PAUtagTOOLINFOA@@@Z 0045b245 f i nafxcw:afxoledocipframewndex.obj
 0001:0005a245       ?GetToolbarButtonToolTipText@COleDocIPFrameWndEx@@UAEHPAVCMFCToolBarButton@@AAV?$CStringT@DV?$StrTraitMFC@DV?$ChTraitsCRT@D@ATL@@@@@ATL@@@Z 0045b245 f i nafxcw:afxoledocipframewndex.obj
 0001:0005a245       ?ReplaceByID@CMFCRibbonBaseElement@@MAEHIPAV1@@Z 0045b245 f i nafxcw:afxbaseribbonelement.obj
 0001:0005a245       ?OnMenuButtonToolHitTest@CFrameWndEx@@UAEHPAVCMFCToolBarButton@@PAUtagTOOLINFOA@@@Z 0045b245 f i nafxcw:afxframewndex.obj
 0001:0005a245       ?OnRenderFileData@COleDataSource@@UAEHPAUtagFORMATETC@@PAVCFile@@@Z 0045b245 f i nafxcw:oledobj2.obj
 0001:0005a245       ?OnGetIconicThumbnail@CMDIChildWndEx@@UAEPAUHBITMAP__@@HH@Z 0045b245 f i nafxcw:afxmdichildwndex.obj
 0001:0005a245       ?OnShowControlBarMenu@CMFCCaptionBar@@MAEHVCPoint@@@Z 0045b245 f i nafxcw:afxcaptionbar.obj
 0001:0005a245       ?OnMenuButtonToolHitTest@COleIPFrameWndEx@@UAEHPAVCMFCToolBarButton@@PAUtagTOOLINFOA@@@Z 0045b245 f i nafxcw:afxoleipframewndex.obj
 0001:0005a245       ?OnPostPreviewFrame@CMDIFrameWndEx@@IAEJIJ@Z 0045b245 f i nafxcw:afxmdiframewndex.obj
 0001:0005a245       ?OnClick@CMFCToolBarButton@@UAEHPAVCWnd@@H@Z 0045b245 f i nafxcw:afxtoolbarbutton.obj
 0001:0005a245       ?Create@CMFCShadowRenderer@@MAEHABVCMFCControlRendererInfo@@H@Z 0045b245 f i nafxcw:afxcontrolrenderer.obj
 0001:0005a245       ?OnClickPaletteSubItem@CMFCRibbonGallery@@MAEHPAVCMFCRibbonButton@@PAVCMFCRibbonPanelMenuBar@@@Z 0045b245 f i nafxcw:afxribbonpalettegallery.obj
 0001:0005a245       ?OnPostPreviewFrame@CFrameWndEx@@QAEJIJ@Z 0045b245 f i nafxcw:afxframewndex.obj
 0001:0005a245       ?OnShowControlBarMenu@CMFCBaseToolBar@@MAEHVCPoint@@@Z 0045b245 f i nafxcw:afxtoolbar.obj
 0001:0005a245       ?GetToolbarButtonToolTipText@COleIPFrameWndEx@@UAEHPAVCMFCToolBarButton@@AAV?$CStringT@DV?$StrTraitMFC@DV?$ChTraitsCRT@D@ATL@@@@@ATL@@@Z 0045b245 f i nafxcw:afxoleipframewndex.obj
 0001:0005a245       ?EnableModeless@XOleIPFrame@COleControlContainer@@UAGJH@Z 0045b245 f i nafxcw:occcont.obj
 0001:0005a245       ?OnRenderGlobalData@COleDataSource@@UAEHPAUtagFORMATETC@@PAPAX@Z 0045b245 f i nafxcw:oledobj2.obj
 0001:0005a245       ?GetToolbarButtonToolTipText@CMDIChildWndEx@@UAEHPAVCMFCToolBarButton@@AAV?$CStringT@DV?$StrTraitMFC@DV?$ChTraitsCRT@D@ATL@@@@@ATL@@@Z 0045b245 f i nafxcw:afxmdichildwndex.obj
 0001:0005a245       ?GetToolbarButtonToolTipText@CMDIFrameWndEx@@UAEHPAVCMFCToolBarButton@@AAV?$CStringT@DV?$StrTraitMFC@DV?$ChTraitsCRT@D@ATL@@@@@ATL@@@Z 0045b245 f i nafxcw:afxmdiframewndex.obj
 0001:0005a245       ?OnShowWindow@XOleClientSite@COleControlSite@@UAGJH@Z 0045b245 f i nafxcw:occsite.obj
 0001:0005a245       ?OnGestureTwoFingerTap@CWnd@@MAEHVCPoint@@@Z 0045b245 f i nafxcw:wincore.obj
 0001:0005a245       ?OnUserToolTip@CMFCPopupMenuBar@@MBEHPAVCMFCToolBarButton@@AAV?$CStringT@DV?$StrTraitMFC@DV?$ChTraitsCRT@D@ATL@@@@@ATL@@@Z 0045b245 f i nafxcw:afxpopupmenubar.obj
 0001:0005a245       ?OnCtlColor@CMFCToolBarButton@@UAEPAUHBRUSH__@@PAVCDC@@I@Z 0045b245 f i nafxcw:afxtoolbarbutton.obj
 0001:0005a245       ?CreateDocumentWindow@CMDIFrameWndEx@@UAEPAVCMDIChildWndEx@@PBDPAVCObject@@@Z 0045b245 f i nafxcw:afxmdiframewndex.obj
 0001:0005a245       ?OnFocus@XOleControlSite@COleControlSite@@UAGJH@Z 0045b245 f i nafxcw:occsite.obj
 0001:0005a245       ?OnShowControlBarMenu@CMFCAutoHideBar@@UAEHVCPoint@@@Z 0045b245 f i nafxcw:afxautohidebar.obj
 0001:0005a245       ?OnNcActivate@CMFCVisualManager@@UAEHPAVCWnd@@H@Z 0045b245 f i nafxcw:afxvisualmanager.obj
 0001:0005a245       ?GetWindow@CAccessibleProxy@ATL@@UAGJPAPAUHWND__@@@Z 0045b245 f i nafxcw:wincore.obj
 0001:0005a24a       ??1COleIPFrameWndEx@@MAE@XZ 0045b24a f   nafxcw:afxoleipframewndex.obj
 0001:0005a293       ?OnMenuChar@COleIPFrameWndEx@@IAEJIIPAVCMenu@@@Z 0045b293 f   nafxcw:afxoleipframewndex.obj
 0001:0005a2c9       ?ShowPopupMenu@COleIPFrameWndEx@@IAEHPAVCMFCPopupMenu@@@Z 0045b2c9 f   nafxcw:afxoleipframewndex.obj
 0001:0005a309       ?OnClosePopupMenu@COleIPFrameWndEx@@UAEXPAVCMFCPopupMenu@@@Z 0045b309 f   nafxcw:afxoleipframewndex.obj
 0001:0005a32e       ?OnCommand@COleIPFrameWndEx@@MAEHIJ@Z 0045b32e f   nafxcw:afxoleipframewndex.obj
 0001:0005a399       ?LoadFrame@COleIPFrameWndEx@@UAEHIKPAVCWnd@@PAUCCreateContext@@@Z 0045b399 f   nafxcw:afxoleipframewndex.obj
 0001:0005a3cd       ?OnContextHelp@COleIPFrameWndEx@@IAEXXZ 0045b3cd f   nafxcw:afxoleipframewndex.obj
 0001:0005a3cd       ?OnContextHelp@COleDocIPFrameWndEx@@IAEXXZ 0045b3cd f   nafxcw:afxoledocipframewndex.obj
 0001:0005a415       ?OnToolbarCreateNew@COleIPFrameWndEx@@IAEJIJ@Z 0045b415 f   nafxcw:afxoleipframewndex.obj
 0001:0005a437       ?OnToolbarDelete@COleIPFrameWndEx@@IAEJIJ@Z 0045b437 f   nafxcw:afxoleipframewndex.obj
 0001:0005a44e       ?OnClose@COleIPFrameWndEx@@IAEXXZ 0045b44e f   nafxcw:afxoleipframewndex.obj
 0001:0005a466       ?AddPane@COleIPFrameWndEx@@QAEHPAVCBasePane@@H@Z 0045b466 f   nafxcw:afxoleipframewndex.obj
 0001:0005a484       ?InsertPane@COleIPFrameWndEx@@QAEHPAVCBasePane@@0H@Z 0045b484 f   nafxcw:afxoleipframewndex.obj
 0001:0005a495       ?RemovePaneFromDockManager@COleIPFrameWndEx@@QAEXPAVCBasePane@@HHH0@Z 0045b495 f   nafxcw:afxoleipframewndex.obj
 0001:0005a4a6       ?DockPane@COleIPFrameWndEx@@QAEXPAVCBasePane@@IPBUtagRECT@@@Z 0045b4a6 f   nafxcw:afxoleipframewndex.obj
 0001:0005a4b7       ?PaneFromPoint@COleIPFrameWndEx@@QBEPAVCBasePane@@VCPoint@@H_NPAUCRuntimeClass@@@Z 0045b4b7 f   nafxcw:afxoleipframewndex.obj
 0001:0005a4de       ?IsPointNearDockSite@COleIPFrameWndEx@@QBEHVCPoint@@AAKAAH@Z 0045b4de f   nafxcw:afxoleipframewndex.obj
 0001:0005a4fe       ?OnMoveMiniFrame@COleIPFrameWndEx@@UAEHPAVCWnd@@@Z 0045b4fe f   nafxcw:afxoleipframewndex.obj
 0001:0005a50f       ?PreCreateWindow@COleIPFrameWndEx@@MAEHAAUtagCREATESTRUCTA@@@Z 0045b50f f   nafxcw:afxoleipframewndex.obj
 0001:0005a526       ?GetPane@COleIPFrameWndEx@@QAEPAVCBasePane@@I@Z 0045b526 f   nafxcw:afxoleipframewndex.obj
 0001:0005a53f       ?OnPaneCheck@COleIPFrameWndEx@@IAEHI@Z 0045b53f f   nafxcw:afxoleipframewndex.obj
 0001:0005a57d       ?OnSetPreviewMode@COleIPFrameWndEx@@UAEXHPAUCPrintPreviewState@@@Z 0045b57d f   nafxcw:afxoleipframewndex.obj
 0001:0005a5bd       ?RecalcLayout@COleIPFrameWndEx@@UAEXH@Z 0045b5bd f   nafxcw:afxoleipframewndex.obj
 0001:0005a66d       ?OnIdleUpdateCmdUI@COleIPFrameWndEx@@IAEJIJ@Z 0045b66d f   nafxcw:afxoleipframewndex.obj
 0001:0005a6ae       ?OnCreateControlBars@COleIPFrameWndEx@@MAEHPAVCFrameWnd@@0@Z 0045b6ae f   nafxcw:afxoleipframewndex.obj
 0001:0005a6ae       ?OnCreateControlBars@COleDocIPFrameWndEx@@MAEHPAVCFrameWnd@@0@Z 0045b6ae f   nafxcw:afxoledocipframewndex.obj
 0001:0005a737       ?OnShowPanes@COleIPFrameWndEx@@UAEHH@Z 0045b737 f   nafxcw:afxoleipframewndex.obj
 0001:0005a764       ?OnCmdMsg@COleIPFrameWndEx@@UAEHIHPAXPAUAFX_CMDHANDLERINFO@@@Z 0045b764 f   nafxcw:afxoleipframewndex.obj
 0001:0005a7a2       ?CreateObject@COleIPFrameWndEx@@SGPAVCObject@@XZ 0045b7a2 f   nafxcw:afxoleipframewndex.obj
 0001:0005a7d2       ??_GCOleIPFrameWndEx@@MAEPAXI@Z 0045b7d2 f i nafxcw:afxoleipframewndex.obj
 0001:0005a7d2       ??_ECOleIPFrameWndEx@@MAEPAXI@Z 0045b7d2 f i nafxcw:afxoleipframewndex.obj
 0001:0005a7f3       ?PreTranslateMessage@COleIPFrameWndEx@@UAEHPAUtagMSG@@@Z 0045b7f3 f   nafxcw:afxoleipframewndex.obj
 0001:0005a942       ?HtmlHelpA@COleIPFrameWndEx@@MAEXKI@Z 0045b942 f   nafxcw:afxoleipframewndex.obj
 0001:0005a942       ?HtmlHelpA@COleDocIPFrameWndEx@@MAEXKI@Z 0045b942 f   nafxcw:afxoledocipframewndex.obj
 0001:0005a965       ?WinHelpA@COleIPFrameWndEx@@UAEXKI@Z 0045b965 f   nafxcw:afxoleipframewndex.obj
 0001:0005a965       ?WinHelpA@COleDocIPFrameWndEx@@UAEXKI@Z 0045b965 f   nafxcw:afxoledocipframewndex.obj
 0001:0005a988       ?OnActivate@COleIPFrameWndEx@@IAEXIPAVCWnd@@H@Z 0045b988 f   nafxcw:afxoleipframewndex.obj
 0001:0005aa2c       ?AdjustDockingLayout@COleIPFrameWndEx@@UAEXPAX@Z 0045ba2c f   nafxcw:afxoleipframewndex.obj
 0001:0005aa6e       ?OnUpdatePaneMenu@COleIPFrameWndEx@@IAEXPAVCCmdUI@@@Z 0045ba6e f   nafxcw:afxoleipframewndex.obj
 0001:0005aaa8       ?OnDestroy@COleIPFrameWndEx@@IAEXXZ 0045baa8 f   nafxcw:afxoleipframewndex.obj
 0001:0005abb7       ?GetMessageMap@COleIPFrameWndEx@@MBEPBUAFX_MSGMAP@@XZ 0045bbb7 f   nafxcw:afxoleipframewndex.obj
 0001:0005abbd       ?GetRuntimeClass@CMDIFrameWndEx@@UBEPAUCRuntimeClass@@XZ 0045bbbd f   nafxcw:afxmdiframewndex.obj
 0001:0005abc3       ??1CMDIFrameWnd@@UAE@XZ    0045bbc3 f i nafxcw:afxmdiframewndex.obj
 0001:0005abc3       ??1CMDIChildWnd@@UAE@XZ    0045bbc3 f i nafxcw:afxmdichildwndex.obj
 0001:0005abc8       ?OnSetMenu@CMDIFrameWndEx@@MAEHPAUHMENU__@@@Z 0045bbc8 f   nafxcw:afxmdiframewndex.obj
 0001:0005ac59       ?OnCreateClient@CMDIFrameWndEx@@MAEHPAUtagCREATESTRUCTA@@PAUCCreateContext@@@Z 0045bc59 f   nafxcw:afxmdiframewndex.obj
 0001:0005ac92       ?OnMenuChar@CMDIFrameWndEx@@IAEJIIPAVCMenu@@@Z 0045bc92 f   nafxcw:afxmdiframewndex.obj
 0001:0005acc8       ?OnCommand@CMDIFrameWndEx@@MAEHIJ@Z 0045bcc8 f   nafxcw:afxmdiframewndex.obj
 0001:0005ad33       ?GetWindowMenuPopup@CMDIFrameWndEx@@MAEPAUHMENU__@@PAU2@@Z 0045bd33 f   nafxcw:afxmdiframewndex.obj
 0001:0005ad5b       ?LoadFrame@CMDIFrameWndEx@@UAEHIKPAVCWnd@@PAUCCreateContext@@@Z 0045bd5b f   nafxcw:afxmdiframewndex.obj
 0001:0005adb5       ?PreCreateWindow@CMDIFrameWndEx@@MAEHAAUtagCREATESTRUCTA@@@Z 0045bdb5 f   nafxcw:afxmdiframewndex.obj
 0001:0005ade6       ?OnDrawMenuImage@CMDIFrameWndEx@@UAEHPAVCDC@@PBVCMFCToolBarMenuButton@@ABVCRect@@@Z 0045bde6 f   nafxcw:afxmdiframewndex.obj
 0001:0005ae01       ?OnToolbarCreateNew@CMDIFrameWndEx@@IAEJIJ@Z 0045be01 f   nafxcw:afxmdiframewndex.obj
 0001:0005ae23       ?OnToolbarDelete@CMDIFrameWndEx@@IAEJIJ@Z 0045be23 f   nafxcw:afxmdiframewndex.obj
 0001:0005ae3a       ?OnContextHelp@CMDIFrameWndEx@@IAEXXZ 0045be3a f   nafxcw:afxmdiframewndex.obj
 0001:0005ae82       ?OnActivateApp@CMDIFrameWndEx@@IAEXHK@Z 0045be82 f   nafxcw:afxmdiframewndex.obj
 0001:0005aeab       ?OnUpdateFrameMenu@CMDIFrameWndEx@@UAEXPAUHMENU__@@@Z 0045beab f   nafxcw:afxmdiframewndex.obj
 0001:0005af3d       ?OnShowPanes@CMDIFrameWndEx@@UAEHH@Z 0045bf3d f   nafxcw:afxmdiframewndex.obj
 0001:0005af6a       ?AddPane@CMDIFrameWndEx@@QAEHPAVCBasePane@@H@Z 0045bf6a f   nafxcw:afxmdiframewndex.obj
 0001:0005afd0       ?InsertPane@CMDIFrameWndEx@@QAEHPAVCBasePane@@0H@Z 0045bfd0 f   nafxcw:afxmdiframewndex.obj
 0001:0005afe1       ?RemovePaneFromDockManager@CMDIFrameWndEx@@QAEXPAVCBasePane@@HHH0@Z 0045bfe1 f   nafxcw:afxmdiframewndex.obj
 0001:0005aff2       ?DockPane@CMDIFrameWndEx@@QAEXPAVCBasePane@@IPBUtagRECT@@@Z 0045bff2 f   nafxcw:afxmdiframewndex.obj
 0001:0005b003       ?GetPane@CMDIFrameWndEx@@QAEPAVCBasePane@@I@Z 0045c003 f   nafxcw:afxmdiframewndex.obj
 0001:0005b01c       ?PaneFromPoint@CMDIFrameWndEx@@QBEPAVCBasePane@@VCPoint@@H_NPAUCRuntimeClass@@@Z 0045c01c f   nafxcw:afxmdiframewndex.obj
 0001:0005b043       ?IsPointNearDockSite@CMDIFrameWndEx@@QBEHVCPoint@@AAKAAH@Z 0045c043 f   nafxcw:afxmdiframewndex.obj
 0001:0005b063       ?OnMoveMiniFrame@CMDIFrameWndEx@@UAEHPAVCWnd@@@Z 0045c063 f   nafxcw:afxmdiframewndex.obj
 0001:0005b074       ?NegotiateBorderSpace@CMDIFrameWndEx@@UAEHIPAUtagRECT@@@Z 0045c074 f   nafxcw:afxmdiframewndex.obj
 0001:0005b0da       ?OnExitSizeMove@CMDIFrameWndEx@@IAEJIJ@Z 0045c0da f   nafxcw:afxmdiframewndex.obj
 0001:0005b0fa       ?OnIdleUpdateCmdUI@CMDIFrameWndEx@@IAEJIJ@Z 0045c0fa f   nafxcw:afxmdiframewndex.obj
 0001:0005b113       ?LoadMDIState@CMDIFrameWndEx@@UAEHPBD@Z 0045c113 f   nafxcw:afxmdiframewndex.obj
 0001:0005b130       ?SaveMDIState@CMDIFrameWndEx@@UAEHPBD@Z 0045c130 f   nafxcw:afxmdiframewndex.obj
 0001:0005b14d       ?OnCmdMsg@CMDIFrameWndEx@@UAEHIHPAXPAUAFX_CMDHANDLERINFO@@@Z 0045c14d f   nafxcw:afxmdiframewndex.obj
 0001:0005b18b       ?OnNcPaint@CMDIFrameWndEx@@IAEXXZ 0045c18b f   nafxcw:afxmdiframewndex.obj
 0001:0005b1a9       ?OnSetText@CMDIFrameWndEx@@IAEJIJ@Z 0045c1a9 f   nafxcw:afxmdiframewndex.obj
 0001:0005b1cf       ?OnNcActivate@CMDIFrameWndEx@@IAEHH@Z 0045c1cf f   nafxcw:afxmdiframewndex.obj
 0001:0005b1fd       ?OnChangeVisualManager@CMDIFrameWndEx@@IAEJIJ@Z 0045c1fd f   nafxcw:afxmdiframewndex.obj
 0001:0005b20d       ?GetRegisteredWithTaskBarMDIChildCount@CMDIFrameWndEx@@QAEHXZ 0045c20d f   nafxcw:afxmdiframewndex.obj
 0001:0005b258       ?OnDWMCompositionChanged@CMDIFrameWndEx@@IAEJIJ@Z 0045c258 f   nafxcw:afxmdiframewndex.obj
 0001:0005b268       ?OnPowerBroadcast@CMDIFrameWndEx@@IAEJIJ@Z 0045c268 f   nafxcw:afxmdiframewndex.obj
 0001:0005b268       ?OnPowerBroadcast@CFrameWndEx@@QAEJIJ@Z 0045c268 f   nafxcw:afxframewndex.obj
 0001:0005b28c       ?OnWindowPosChanged@CMDIFrameWndEx@@IAEXPAUtagWINDOWPOS@@@Z 0045c28c f   nafxcw:afxmdiframewndex.obj
 0001:0005b319       ?PreTranslateMessage@CMDIFrameWndEx@@UAEHPAUtagMSG@@@Z 0045c319 f   nafxcw:afxmdiframewndex.obj
 0001:0005b69d       ?OnClose@CMDIFrameWndEx@@IAEXXZ 0045c69d f   nafxcw:afxmdiframewndex.obj
 0001:0005b708       ?OnClosePopupMenu@CMDIFrameWndEx@@UAEXPAVCMFCPopupMenu@@@Z 0045c708 f   nafxcw:afxmdiframewndex.obj
 0001:0005b776       ?HtmlHelpA@CMDIFrameWndEx@@MAEXKI@Z 0045c776 f   nafxcw:afxmdiframewndex.obj
 0001:0005b799       ?WinHelpA@CMDIFrameWndEx@@UAEXKI@Z 0045c799 f   nafxcw:afxmdiframewndex.obj
 0001:0005b7bc       ?OnActivate@CMDIFrameWndEx@@IAEXIPAVCWnd@@H@Z 0045c7bc f   nafxcw:afxmdiframewndex.obj
 0001:0005b802       ?GetInPlaceActiveItem@CMDIFrameWndEx@@MAEPAVCOleClientItem@@XZ 0045c802 f   nafxcw:afxmdiframewndex.obj
 0001:0005b802       ?GetInPlaceActiveItem@CFrameWndEx@@MAEPAVCOleClientItem@@XZ 0045c802 f   nafxcw:afxframewndex.obj
 0001:0005b851       ?OnSetPreviewMode@CMDIFrameWndEx@@UAEXHPAUCPrintPreviewState@@@Z 0045c851 f   nafxcw:afxmdiframewndex.obj
 0001:0005b8f3       ?AdjustDockingLayout@CMDIFrameWndEx@@UAEXPAX@Z 0045c8f3 f   nafxcw:afxmdiframewndex.obj
 0001:0005b942       ?AdjustClientArea@CMDIFrameWndEx@@UAEXXZ 0045c942 f   nafxcw:afxmdiframewndex.obj
 0001:0005b9b2       ?ActiveItemRecalcLayout@CMDIFrameWndEx@@QAEXXZ 0045c9b2 f   nafxcw:afxmdiframewndex.obj
 0001:0005ba01       ?OnCreate@CMDIFrameWndEx@@IAEHPAUtagCREATESTRUCTA@@@Z 0045ca01 f   nafxcw:afxmdiframewndex.obj
 0001:0005ba50       ?OnUpdatePaneMenu@CMDIFrameWndEx@@IAEXPAVCCmdUI@@@Z 0045ca50 f   nafxcw:afxmdiframewndex.obj
 0001:0005ba84       ?OnPaneCheck@CMDIFrameWndEx@@IAEHI@Z 0045ca84 f   nafxcw:afxmdiframewndex.obj
 0001:0005bac1       ?OnSize@CMDIFrameWndEx@@IAEXIHH@Z 0045cac1 f   nafxcw:afxmdiframewndex.obj
 0001:0005bc3c       ?OnWindowNew@CMDIFrameWndEx@@IAEXXZ 0045cc3c f   nafxcw:afxmdiframewndex.obj
 0001:0005bca6       ?OnGetMinMaxInfo@CMDIFrameWndEx@@IAEXPAUtagMINMAXINFO@@@Z 0045cca6 f   nafxcw:afxmdiframewndex.obj
 0001:0005bcde       ?CreateNewWindow@CMDIFrameWndEx@@UAEPAVCMDIChildWndEx@@PBDPAVCObject@@@Z 0045ccde f   nafxcw:afxmdiframewndex.obj
 0001:0005bd55       ?OnContextMenu@CMDIFrameWndEx@@IAEXPAVCWnd@@VCPoint@@@Z 0045cd55 f   nafxcw:afxmdiframewndex.obj
 0001:0005bf05       ?OnNcMouseMove@CMDIFrameWndEx@@IAEXIVCPoint@@@Z 0045cf05 f   nafxcw:afxmdiframewndex.obj
 0001:0005bf2d       ?OnNcHitTest@CMDIFrameWndEx@@IAEJVCPoint@@@Z 0045cf2d f   nafxcw:afxmdiframewndex.obj
 0001:0005bf56       ?OnNcCalcSize@CMDIFrameWndEx@@IAEXHPAUtagNCCALCSIZE_PARAMS@@@Z 0045cf56 f   nafxcw:afxmdiframewndex.obj
 0001:0005bf7f       ?OnLButtonUp@CMDIFrameWndEx@@IAEXIVCPoint@@@Z 0045cf7f f   nafxcw:afxmdiframewndex.obj
 0001:0005bfa4       ?OnMouseMove@CMDIFrameWndEx@@IAEXIVCPoint@@@Z 0045cfa4 f   nafxcw:afxmdiframewndex.obj
 0001:0005bfc9       ?OnLButtonDown@CMDIFrameWndEx@@IAEXIVCPoint@@@Z 0045cfc9 f   nafxcw:afxmdiframewndex.obj
 0001:0005bfee       ?TabbedDocumentToControlBar@CMDIFrameWndEx@@UAEHPAVCMDIChildWndEx@@@Z 0045cfee f   nafxcw:afxmdiframewndex.obj
 0001:0005c08d       ?OnSysColorChange@CMDIFrameWndEx@@IAEXXZ 0045d08d f   nafxcw:afxmdiframewndex.obj
 0001:0005c0b1       ?OnDestroy@CMDIFrameWndEx@@IAEXXZ 0045d0b1 f   nafxcw:afxmdiframewndex.obj
 0001:0005c1b6       ?RecalcLayout@CMDIFrameWndEx@@UAEXH@Z 0045d1b6 f   nafxcw:afxmdiframewndex.obj
 0001:0005c343       ??0CMDIFrameWndEx@@IAE@XZ  0045d343 f   nafxcw:afxmdiframewndex.obj
 0001:0005c434       ?CanConvertControlBarToMDIChild@CMDIFrameWndEx@@UAEHXZ 0045d434 f i nafxcw:afxmdiframewndex.obj
 0001:0005c43b       ?OnShowCustomizePane@CMDIFrameWndEx@@UAEHPAVCMFCPopupMenu@@I@Z 0045d43b f i nafxcw:afxmdiframewndex.obj
 0001:0005c458       ??1CMDIFrameWndEx@@MAE@XZ  0045d458 f   nafxcw:afxmdiframewndex.obj
 0001:0005c4be       ?ShowPopupMenu@CMDIFrameWndEx@@IAEHPAVCMFCPopupMenu@@@Z 0045d4be f   nafxcw:afxmdiframewndex.obj
 0001:0005c7a0       ?CreateObject@CMDIFrameWndEx@@SGPAVCObject@@XZ 0045d7a0 f   nafxcw:afxmdiframewndex.obj
 0001:0005c7d0       ??_ECMDIFrameWndEx@@MAEPAXI@Z 0045d7d0 f i nafxcw:afxmdiframewndex.obj
 0001:0005c7d0       ??_GCMDIFrameWndEx@@MAEPAXI@Z 0045d7d0 f i nafxcw:afxmdiframewndex.obj
 0001:0005c7f1       ?GetMessageMap@CMDIFrameWndEx@@MBEPBUAFX_MSGMAP@@XZ 0045d7f1 f   nafxcw:afxmdiframewndex.obj
 0001:0005c7f7       ?OnShowMDITabContextMenu@CMDIFrameWndEx@@UAEHVCPoint@@KH@Z 0045d7f7 f   nafxcw:afxmdiframewndex.obj
 0001:0005c915       ?ControlBarToTabbedDocument@CMDIFrameWndEx@@UAEPAVCMDIChildWndEx@@PAVCDockablePane@@@Z 0045d915 f   nafxcw:afxmdiframewndex.obj
 0001:0005c9f8       ?GetRuntimeClass@CFrameWndEx@@UBEPAUCRuntimeClass@@XZ 0045d9f8 f   nafxcw:afxframewndex.obj
 0001:0005c9fe       ??0CFrameWndEx@@IAE@XZ     0045d9fe f   nafxcw:afxframewndex.obj
 0001:0005ca5a       ?OnShowCustomizePane@CFrameWndEx@@UAEHPAVCMFCPopupMenu@@I@Z 0045da5a f i nafxcw:afxframewndex.obj
 0001:0005ca77       ?OnToolbarContextMenu@CMDIFrameWndEx@@IAEJIJ@Z 0045da77 f i nafxcw:afxmdiframewndex.obj
 0001:0005ca77       ?OnRenameTab@CMFCBaseTabCtrl@@UAEHHAAV?$CStringT@DV?$StrTraitMFC@DV?$ChTraitsCRT@D@ATL@@@@@ATL@@@Z 0045da77 f i nafxcw:afxtabctrl.obj
 0001:0005ca77       ?OnToolbarContextMenu@COleDocIPFrameWndEx@@IAEJIJ@Z 0045da77 f i nafxcw:afxoledocipframewndex.obj
 0001:0005ca77       ?OnToolbarContextMenu@COleIPFrameWndEx@@IAEJIJ@Z 0045da77 f i nafxcw:afxoleipframewndex.obj
 0001:0005ca77       ?OnBeforeFloat@CPane@@UAEHAAVCRect@@W4AFX_DOCK_METHOD@@@Z 0045da77 f i nafxcw:afxpane.obj
 0001:0005ca77       ?OnTearOffMenu@CFrameWndEx@@UAEHPAVCMFCPopupMenu@@PAVCPane@@@Z 0045da77 f i nafxcw:afxframewndex.obj
 0001:0005ca77       ?OnNcHitTest@CMFCToolBar@@IAEJVCPoint@@@Z 0045da77 f i nafxcw:afxtoolbar.obj
 0001:0005ca77       ?OnCreateControlBars@COleIPFrameWnd@@UAEHPAVCWnd@@0@Z 0045da77 f i nafxcw:oleipfrm.obj
 0001:0005ca77       ?OnTearOffMenu@COleIPFrameWndEx@@UAEHPAVCMFCPopupMenu@@PAVCPane@@@Z 0045da77 f i nafxcw:afxoleipframewndex.obj
 0001:0005ca77       ?OnNcHitTest@CToolBar@@IAEJVCPoint@@@Z 0045da77 f i nafxcw:bartool.obj
 0001:0005ca77       ?OnTearOffMenu@COleDocIPFrameWndEx@@UAEHPAVCMFCPopupMenu@@PAVCPane@@@Z 0045da77 f i nafxcw:afxoledocipframewndex.obj
 0001:0005ca77       ?OnTearOffMenu@CMDIFrameWndEx@@UAEHPAVCMFCPopupMenu@@PAVCPane@@@Z 0045da77 f i nafxcw:afxmdiframewndex.obj
 0001:0005ca77       ?GetGestureStatus@CWnd@@MAEKVCPoint@@@Z 0045da77 f i nafxcw:wincore.obj
 0001:0005ca77       ?OnToolbarContextMenu@CFrameWndEx@@QAEJIJ@Z 0045da77 f i nafxcw:afxframewndex.obj
 0001:0005ca77       ?OnBeforeRemoveButton@CMFCToolBar@@UAEHPAVCMFCToolBarButton@@K@Z 0045da77 f i nafxcw:afxtoolbar.obj
 0001:0005ca77       ?Unlock@CSyncObject@@UAEHJPAJ@Z 0045da77 f i nafxcw:wincore.obj
 0001:0005ca7d       ??1CFrameWndEx@@MAE@XZ     0045da7d f   nafxcw:afxframewndex.obj
 0001:0005cac6       ?OnMenuChar@CFrameWndEx@@QAEJIIPAVCMenu@@@Z 0045dac6 f   nafxcw:afxframewndex.obj
 0001:0005cafc       ?ShowPopupMenu@CFrameWndEx@@IAEHPAVCMFCPopupMenu@@@Z 0045dafc f   nafxcw:afxframewndex.obj
 0001:0005cb3c       ?OnDrawMenuImage@CFrameWndEx@@UAEHPAVCDC@@PBVCMFCToolBarMenuButton@@ABVCRect@@@Z 0045db3c f   nafxcw:afxframewndex.obj
 0001:0005cb57       ?OnCommand@CFrameWndEx@@MAEHIJ@Z 0045db57 f   nafxcw:afxframewndex.obj
 0001:0005cbc2       ?LoadFrame@CFrameWndEx@@UAEHIKPAVCWnd@@PAUCCreateContext@@@Z 0045dbc2 f   nafxcw:afxframewndex.obj
 0001:0005cc0a       ?PreCreateWindow@CFrameWndEx@@MAEHAAUtagCREATESTRUCTA@@@Z 0045dc0a f   nafxcw:afxframewndex.obj
 0001:0005cc45       ?OnContextHelp@CFrameWndEx@@QAEXXZ 0045dc45 f   nafxcw:afxframewndex.obj
 0001:0005cc8d       ?OnToolbarCreateNew@CFrameWndEx@@QAEJIJ@Z 0045dc8d f   nafxcw:afxframewndex.obj
 0001:0005ccaf       ?OnToolbarDelete@CFrameWndEx@@QAEJIJ@Z 0045dcaf f   nafxcw:afxframewndex.obj
 0001:0005ccd1       ?OnActivateApp@CFrameWndEx@@QAEXHK@Z 0045dcd1 f   nafxcw:afxframewndex.obj
 0001:0005ccfa       ?DelayUpdateFrameMenu@CFrameWndEx@@UAEXPAUHMENU__@@@Z 0045dcfa f   nafxcw:afxframewndex.obj
 0001:0005cd1c       ?OnUpdateFrameMenu@CFrameWndEx@@UAEXPAUHMENU__@@@Z 0045dd1c f   nafxcw:afxframewndex.obj
 0001:0005cdae       ?AddPane@CFrameWndEx@@QAEHPAVCBasePane@@H@Z 0045ddae f   nafxcw:afxframewndex.obj
 0001:0005ce14       ?InsertPane@CFrameWndEx@@QAEHPAVCBasePane@@0H@Z 0045de14 f   nafxcw:afxframewndex.obj
 0001:0005ce25       ?RemovePaneFromDockManager@CFrameWndEx@@QAEXPAVCBasePane@@HHH0@Z 0045de25 f   nafxcw:afxframewndex.obj
 0001:0005ce36       ?DockPane@CFrameWndEx@@QAEXPAVCBasePane@@IPBUtagRECT@@@Z 0045de36 f   nafxcw:afxframewndex.obj
 0001:0005ce47       ?PaneFromPoint@CFrameWndEx@@QBEPAVCBasePane@@VCPoint@@H_NPAUCRuntimeClass@@@Z 0045de47 f   nafxcw:afxframewndex.obj
 0001:0005ce6e       ?IsPointNearDockSite@CFrameWndEx@@QBEHVCPoint@@AAKAAH@Z 0045de6e f   nafxcw:afxframewndex.obj
 0001:0005ce8e       ?AdjustClientArea@CFrameWndEx@@MAEXXZ 0045de8e f   nafxcw:afxframewndex.obj
 0001:0005cf64       ?OnMoveMiniFrame@CFrameWndEx@@UAEHPAVCWnd@@@Z 0045df64 f   nafxcw:afxframewndex.obj
 0001:0005cf75       ?GetPane@CFrameWndEx@@QAEPAVCBasePane@@I@Z 0045df75 f   nafxcw:afxframewndex.obj
 0001:0005cf8e       ?ShowPane@CMDIFrameWndEx@@QAEXPAVCBasePane@@HHH@Z 0045df8e f   nafxcw:afxmdiframewndex.obj
 0001:0005cf8e       ?ShowPane@CFrameWndEx@@QAEXPAVCBasePane@@HHH@Z 0045df8e f   nafxcw:afxframewndex.obj
 0001:0005cfab       ?OnPaneCheck@CFrameWndEx@@QAEHI@Z 0045dfab f   nafxcw:afxframewndex.obj
 0001:0005cfe9       ?ActiveItemRecalcLayout@CFrameWndEx@@QAEXXZ 0045dfe9 f   nafxcw:afxframewndex.obj
 0001:0005d015       ?NegotiateBorderSpace@CFrameWndEx@@UAEHIPAUtagRECT@@@Z 0045e015 f   nafxcw:afxframewndex.obj
 0001:0005d06e       ?OnShowPanes@CFrameWndEx@@UAEHH@Z 0045e06e f   nafxcw:afxframewndex.obj
 0001:0005d09b       ?OnIdleUpdateCmdUI@CFrameWndEx@@QAEJIJ@Z 0045e09b f   nafxcw:afxframewndex.obj
 0001:0005d0b4       ?OnExitSizeMove@CFrameWndEx@@QAEJIJ@Z 0045e0b4 f   nafxcw:afxframewndex.obj
 0001:0005d0d4       ?OnCmdMsg@CFrameWndEx@@UAEHIHPAXPAUAFX_CMDHANDLERINFO@@@Z 0045e0d4 f   nafxcw:afxframewndex.obj
 0001:0005d112       ?OnNcPaint@CFrameWndEx@@QAEXXZ 0045e112 f   nafxcw:afxframewndex.obj
 0001:0005d130       ?OnSetText@CFrameWndEx@@QAEJIJ@Z 0045e130 f   nafxcw:afxframewndex.obj
 0001:0005d156       ?OnNcActivate@CFrameWndEx@@QAEHH@Z 0045e156 f   nafxcw:afxframewndex.obj
 0001:0005d184       ?OnChangeVisualManager@CFrameWndEx@@QAEJIJ@Z 0045e184 f   nafxcw:afxframewndex.obj
 0001:0005d194       ?OnDWMCompositionChanged@CFrameWndEx@@QAEJIJ@Z 0045e194 f   nafxcw:afxframewndex.obj
 0001:0005d1a4       ?CreateObject@CFrameWndEx@@SGPAVCObject@@XZ 0045e1a4 f   nafxcw:afxframewndex.obj
 0001:0005d1d4       ??_GCFrameWndEx@@MAEPAXI@Z 0045e1d4 f i nafxcw:afxframewndex.obj
 0001:0005d1d4       ??_ECFrameWndEx@@MAEPAXI@Z 0045e1d4 f i nafxcw:afxframewndex.obj
 0001:0005d1f5       ?PreTranslateMessage@CFrameWndEx@@UAEHPAUtagMSG@@@Z 0045e1f5 f   nafxcw:afxframewndex.obj
 0001:0005d58d       ?OnClosePopupMenu@CFrameWndEx@@UAEXPAVCMFCPopupMenu@@@Z 0045e58d f   nafxcw:afxframewndex.obj
 0001:0005d5fb       ?OnClose@CFrameWndEx@@QAEXXZ 0045e5fb f   nafxcw:afxframewndex.obj
 0001:0005d651       ?HtmlHelpA@CFrameWndEx@@MAEXKI@Z 0045e651 f   nafxcw:afxframewndex.obj
 0001:0005d674       ?WinHelpA@CFrameWndEx@@UAEXKI@Z 0045e674 f   nafxcw:afxframewndex.obj
 0001:0005d697       ?OnActivate@CFrameWndEx@@QAEXIPAVCWnd@@H@Z 0045e697 f   nafxcw:afxframewndex.obj
 0001:0005d6dd       ?AdjustDockingLayout@CFrameWndEx@@UAEXPAX@Z 0045e6dd f   nafxcw:afxframewndex.obj
 0001:0005d72c       ?OnUpdatePaneMenu@CFrameWndEx@@QAEXPAVCCmdUI@@@Z 0045e72c f   nafxcw:afxframewndex.obj
 0001:0005d766       ?OnSizing@CFrameWndEx@@QAEXIPAUtagRECT@@@Z 0045e766 f   nafxcw:afxframewndex.obj
 0001:0005d780       ?RecalcLayout@CFrameWndEx@@UAEXH@Z 0045e780 f   nafxcw:afxframewndex.obj
 0001:0005d8f7       ?OnSetPreviewMode@CFrameWndEx@@UAEXHPAUCPrintPreviewState@@@Z 0045e8f7 f   nafxcw:afxframewndex.obj
 0001:0005d997       ?OnSize@CFrameWndEx@@QAEXIHH@Z 0045e997 f   nafxcw:afxframewndex.obj
 0001:0005dad3       ?OnGetMinMaxInfo@CFrameWndEx@@QAEXPAUtagMINMAXINFO@@@Z 0045ead3 f   nafxcw:afxframewndex.obj
 0001:0005db0b       ?OnShowPopupMenu@CMDIFrameWndEx@@UAEHPAVCMFCPopupMenu@@@Z 0045eb0b f   nafxcw:afxmdiframewndex.obj
 0001:0005db0b       ?OnShowPopupMenu@CFrameWndEx@@UAEHPAVCMFCPopupMenu@@@Z 0045eb0b f   nafxcw:afxframewndex.obj
 0001:0005db36       ?OnWindowPosChanged@CFrameWndEx@@QAEXPAUtagWINDOWPOS@@@Z 0045eb36 f   nafxcw:afxframewndex.obj
 0001:0005db5f       ?OnCreate@CFrameWndEx@@QAEHPAUtagCREATESTRUCTA@@@Z 0045eb5f f   nafxcw:afxframewndex.obj
 0001:0005dba2       ?OnNcMouseMove@CFrameWndEx@@QAEXIVCPoint@@@Z 0045eba2 f   nafxcw:afxframewndex.obj
 0001:0005dc19       ?OnNcHitTest@CFrameWndEx@@QAEJVCPoint@@@Z 0045ec19 f   nafxcw:afxframewndex.obj
 0001:0005dc42       ?OnNcCalcSize@CFrameWndEx@@QAEXHPAUtagNCCALCSIZE_PARAMS@@@Z 0045ec42 f   nafxcw:afxframewndex.obj
 0001:0005dc6b       ?OnLButtonUp@CFrameWndEx@@QAEXIVCPoint@@@Z 0045ec6b f   nafxcw:afxframewndex.obj
 0001:0005dc90       ?OnMouseMove@CFrameWndEx@@QAEXIVCPoint@@@Z 0045ec90 f   nafxcw:afxframewndex.obj
 0001:0005dcb5       ?OnLButtonDown@CFrameWndEx@@QAEXIVCPoint@@@Z 0045ecb5 f   nafxcw:afxframewndex.obj
 0001:0005dcda       ?OnSysColorChange@CFrameWndEx@@QAEXXZ 0045ecda f   nafxcw:afxframewndex.obj
 0001:0005dcfe       ?OnDestroy@CFrameWndEx@@QAEXXZ 0045ecfe f   nafxcw:afxframewndex.obj
 0001:0005ddfe       ?OnUpdateFrameTitle@CFrameWndEx@@UAEXH@Z 0045edfe f   nafxcw:afxframewndex.obj
 0001:0005def3       ?GetMessageMap@CFrameWndEx@@MBEPBUAFX_MSGMAP@@XZ 0045eef3 f   nafxcw:afxframewndex.obj
 0001:0005def9       ?GetTabTextColor@CMFCVisualManager@@UAEKPBVCMFCBaseTabCtrl@@HH@Z 0045eef9 f i nafxcw:afxvisualmanageroffice2007.obj
 0001:0005deff       ?GetRibbonPopupBorderSize@CMFCVisualManager@@UBEHPBVCMFCRibbonPanelMenu@@@Z 0045eeff f i nafxcw:afxvisualmanageroffice2007.obj
 0001:0005df08       ??0CMFCToolTipInfo@@QAE@XZ 0045ef08 f i nafxcw:afxvisualmanageroffice2007.obj
 0001:0005df3d       ??4CMFCToolTipInfo@@QAEAAV0@AAV0@@Z 0045ef3d f i nafxcw:afxvisualmanageroffice2007.obj
 0001:0005df97       ?IsPressed@CMFCButton@@QBEHXZ 0045ef97 f i nafxcw:afxvisualmanageroffice2007.obj
 0001:0005dfab       ?IsQuickAccessToolbarOnTop@CMFCRibbonBar@@QBEHXZ 0045efab f i nafxcw:afxvisualmanageroffice2007.obj
 0001:0005dfbf       ?IsMainPanel@CMFCRibbonPanelMenuBar@@QBEHXZ 0045efbf f i nafxcw:afxvisualmanageroffice2007.obj
 0001:0005dfe0       ?DrawState@CDC@@QAEHVCPoint@@VCSize@@PAUHICON__@@IPAVCBrush@@@Z 0045efe0 f i nafxcw:afxvisualmanageroffice2007.obj
 0001:0005e01c       ?StringUppercase@?$ChTraitsCRT@D@ATL@@SAPADPADI@Z 0045f01c f i nafxcw:afxvisualmanageroffice2007.obj
 0001:0005e03a       ?CleanStyle@CMFCVisualManagerOffice2007@@SGXXZ 0045f03a f   nafxcw:afxvisualmanageroffice2007.obj
 0001:0005e06c       ?MakeUpper@?$CStringT@DV?$StrTraitMFC@DV?$ChTraitsCRT@D@ATL@@@@@ATL@@QAEAAV12@XZ 0045f06c f i nafxcw:afxvisualmanageroffice2007.obj
 0001:0005e096       ?OnFillMenuImageRect@CMFCVisualManager@@UAEXPAVCDC@@PAVCMFCToolBarButton@@VCRect@@W4AFX_BUTTON_STATE@1@@Z 0045f096 f i nafxcw:afxvisualmanageroffice2007.obj
 0001:0005e0c0       ?GetEnabledAlignment@CBasePane@@UBEKXZ 0045f0c0 f i nafxcw:afxtoolbar.obj
 0001:0005e0c0       ?IsOfficeXPStyleMenus@CMFCVisualManager@@UBEHXZ 0045f0c0 f i nafxcw:afxvisualmanageroffice2007.obj
 0001:0005e0c7       ?GetCaptionButtonExtraBorder@CMFCVisualManager@@UBE?AVCSize@@XZ 0045f0c7 f i nafxcw:afxvisualmanageroffice2007.obj
 0001:0005e0c7       ?GetButtonExtraBorder@CMFCVisualManager@@UBE?AVCSize@@XZ 0045f0c7 f i nafxcw:afxvisualmanageroffice2007.obj
 0001:0005e0da       ?GetMenuImageFrameOffset@CMFCVisualManager@@UBE?AVCRect@@XZ 0045f0da f i nafxcw:afxvisualmanageroffice2007.obj
 0001:0005e0f9       ?GetRuntimeClass@CMFCVisualManager@@UBEPAUCRuntimeClass@@XZ 0045f0f9 f   nafxcw:afxvisualmanager.obj
 0001:0005e0ff       ?AdjustToolbars@CMFCVisualManager@@SGXXZ 0045f0ff f   nafxcw:afxvisualmanager.obj
 0001:0005e14d       ?OnDrawBarGripper@CMFCVisualManager@@UAEXPAVCDC@@VCRect@@HPAVCBasePane@@@Z 0045f14d f   nafxcw:afxvisualmanager.obj
 0001:0005e1e9       ?OnDrawMenuBorder@CMFCVisualManager@@UAEXPAVCDC@@PAVCMFCPopupMenu@@VCRect@@@Z 0045f1e9 f   nafxcw:afxvisualmanager.obj
 0001:0005e233       ?OnDrawMenuShadow@CMFCVisualManager@@UAEXPAVCDC@@ABVCRect@@1HHHPAVCBitmap@@2H@Z 0045f233 f   nafxcw:afxvisualmanager.obj
 0001:0005e290       ?OnFillButtonInterior@CMFCVisualManager@@UAEXPAVCDC@@PAVCMFCToolBarButton@@VCRect@@W4AFX_BUTTON_STATE@1@@Z 0045f290 f   nafxcw:afxvisualmanager.obj
 0001:0005e382       ?GetToolbarHighlightColor@CMFCVisualManager@@UAEKXZ 0045f382 f   nafxcw:afxvisualmanager.obj
 0001:0005e388       ?GetToolbarDisabledTextColor@CMFCVisualManager@@UAEKXZ 0045f388 f   nafxcw:afxvisualmanager.obj
 0001:0005e38e       ?GetHighlightedMenuItemTextColor@CMFCVisualManager@@UAEKPAVCMFCToolBarMenuButton@@@Z 0045f38e f   nafxcw:afxvisualmanager.obj
 0001:0005e3ad       ?OnHighlightRarelyUsedMenuItems@CMFCVisualManager@@UAEXPAVCDC@@VCRect@@@Z 0045f3ad f   nafxcw:afxvisualmanager.obj
 0001:0005e410       ?OnDrawMenuCheck@CMFCVisualManager@@UAEXPAVCDC@@PAVCMFCToolBarMenuButton@@VCRect@@HH@Z 0045f410 f   nafxcw:afxvisualmanager.obj
 0001:0005e44f       ?OnDrawMenuItemButton@CMFCVisualManager@@UAEXPAVCDC@@PAVCMFCToolBarMenuButton@@VCRect@@HH@Z 0045f44f f   nafxcw:afxvisualmanager.obj
 0001:0005e4bf       ?OnDrawButtonBorder@CMFCVisualManager@@UAEXPAVCDC@@PAVCMFCToolBarButton@@VCRect@@W4AFX_BUTTON_STATE@1@@Z 0045f4bf f   nafxcw:afxvisualmanager.obj
 0001:0005e50e       ?OnDrawButtonSeparator@CMFCVisualManager@@UAEXPAVCDC@@PAVCMFCToolBarButton@@VCRect@@W4AFX_BUTTON_STATE@1@H@Z 0045f50e f   nafxcw:afxvisualmanager.obj
 0001:0005e550       ?OnDrawSeparator@CMFCVisualManager@@UAEXPAVCDC@@PAVCBasePane@@VCRect@@H@Z 0045f550 f   nafxcw:afxvisualmanager.obj
 0001:0005e5ed       ?OnDrawCaptionButton@CMFCVisualManager@@UAEXPAVCDC@@PAVCMFCCaptionButton@@HHHHH@Z 0045f5ed f   nafxcw:afxvisualmanager.obj
 0001:0005e726       ?OnEraseTabsFrame@CMFCVisualManager@@UAEHPAVCDC@@VCRect@@PBVCMFCBaseTabCtrl@@@Z 0045f726 f   nafxcw:afxvisualmanager.obj
 0001:0005e766       ?OnDrawTabsButtonBorder@CMFCVisualManager@@UAEXPAVCDC@@AAVCRect@@PAVCMFCButton@@IPAVCMFCBaseTabCtrl@@@Z 0045f766 f   nafxcw:afxvisualmanager.obj
 0001:0005e7c7       ?OnDrawMenuArrowOnCustomizeList@CMFCVisualManager@@UAEXPAVCDC@@VCRect@@H@Z 0045f7c7 f   nafxcw:afxvisualmanager.obj
 0001:0005e86a       ?DestroyInstance@CMFCVisualManager@@SGXH@Z 0045f86a f   nafxcw:afxvisualmanager.obj
 0001:0005e89a       ?OnDrawMenuResizeBar@CMFCVisualManager@@UAEXPAVCDC@@VCRect@@H@Z 0045f89a f   nafxcw:afxvisualmanager.obj
 0001:0005e8b5       ?OnDrawComboBorder@CMFCVisualManager@@UAEXPAVCDC@@VCRect@@HHHPAVCMFCToolBarComboBoxButton@@@Z 0045f8b5 f   nafxcw:afxvisualmanager.obj
 0001:0005e932       ?OnDrawStatusBarPaneBorder@CMFCVisualManager@@UAEXPAVCDC@@PAVCMFCStatusBar@@VCRect@@II@Z 0045f932 f   nafxcw:afxvisualmanager.obj
 0001:0005e973       ?OnDrawMiniFrameBorder@CMFCVisualManager@@UAEXPAVCDC@@PAVCPaneFrameWnd@@VCRect@@2@Z 0045f973 f   nafxcw:afxvisualmanager.obj
 0001:0005ea73       ?OnDrawFloatingToolbarBorder@CMFCVisualManager@@UAEXPAVCDC@@PAVCMFCBaseToolBar@@VCRect@@2@Z 0045fa73 f   nafxcw:afxvisualmanager.obj
 0001:0005eadd       ?GetToolbarButtonTextColor@CMFCVisualManager@@UAEKPAVCMFCToolBarButton@@W4AFX_BUTTON_STATE@1@@Z 0045fadd f   nafxcw:afxvisualmanager.obj
 0001:0005eb79       ?OnDrawOutlookPageButtonBorder@CMFCVisualManager@@UAEXPAVCDC@@AAVCRect@@HH@Z 0045fb79 f   nafxcw:afxvisualmanager.obj
 0001:0005ec06       ?GetCaptionBarTextColor@CMFCVisualManager@@UAEKPAVCMFCCaptionBar@@@Z 0045fc06 f   nafxcw:afxvisualmanager.obj
 0001:0005ec2a       ?OnDrawCaptionBarButtonBorder@CMFCVisualManager@@UAEXPAVCDC@@PAVCMFCCaptionBar@@VCRect@@HHHHH@Z 0045fc2a f   nafxcw:afxvisualmanager.obj
 0001:0005ec70       ?OnDrawHeaderCtrlBorder@CMFCVisualManager@@UAEXPAVCMFCHeaderCtrl@@PAVCDC@@AAVCRect@@HH@Z 0045fc70 f   nafxcw:afxvisualmanager.obj
 0001:0005ecd9       ?OnDrawTasksGroupAreaBorder@CMFCVisualManager@@UAEXPAVCDC@@VCRect@@HH@Z 0045fcd9 f   nafxcw:afxvisualmanager.obj
 0001:0005ed6c       ?OnDrawToolBoxFrame@CMFCVisualManager@@UAEXPAVCDC@@ABVCRect@@@Z 0045fd6c f   nafxcw:afxvisualmanager.obj
 0001:0005ed87       ?OnDrawPaneDivider@CMFCVisualManager@@UAEXPAVCDC@@PAVCPaneDivider@@VCRect@@H@Z 0045fd87 f   nafxcw:afxvisualmanager.obj
 0001:0005ee79       ?OnDrawSplitterBorder@CMFCVisualManager@@UAEXPAVCDC@@PAVCSplitterWndEx@@VCRect@@@Z 0045fe79 f   nafxcw:afxvisualmanager.obj
 0001:0005eebe       ?OnDrawSplitterBox@CMFCVisualManager@@UAEXPAVCDC@@PAVCSplitterWndEx@@AAVCRect@@@Z 0045febe f   nafxcw:afxvisualmanager.obj
 0001:0005eede       ?OnFillSplitterBackground@CMFCVisualManager@@UAEXPAVCDC@@PAVCSplitterWndEx@@VCRect@@@Z 0045fede f   nafxcw:afxvisualmanager.obj
 0001:0005eef9       ?OnDrawCheckBox@CMFCVisualManager@@UAEXPAVCDC@@VCRect@@HHH@Z 0045fef9 f   nafxcw:afxvisualmanager.obj
 0001:0005ef2e       ?OnDrawShowAllMenuItems@CMFCVisualManager@@UAEXPAVCDC@@VCRect@@W4AFX_BUTTON_STATE@1@@Z 0045ff2e f   nafxcw:afxvisualmanager.obj
 0001:0005ef55       ?GetShowAllMenuItemsHeight@CMFCVisualManager@@UAEHPAVCDC@@ABVCSize@@@Z 0045ff55 f   nafxcw:afxvisualmanager.obj
 0001:0005ef6f       ?GetTabFrameColors@CMFCVisualManager@@UAEXPBVCMFCBaseTabCtrl@@AAK11111AAPAVCBrush@@2@Z 0045ff6f f   nafxcw:afxvisualmanager.obj
 0001:0005f07d       ?OnFillOutlookBarCaption@CMFCVisualManager@@UAEXPAVCDC@@VCRect@@AAK@Z 0046007d f   nafxcw:afxvisualmanager.obj
 0001:0005f0a4       ?GetSmartDockingBaseGuideColors@CMFCVisualManager@@UAEXAAK0@Z 004600a4 f   nafxcw:afxvisualmanager.obj
 0001:0005f0c3       ?GetSmartDockingHighlightToneColor@CMFCVisualManager@@UAEKXZ 004600c3 f   nafxcw:afxvisualmanager.obj
 0001:0005f0c9       ?OnDrawPopupWindowBorder@CMFCVisualManager@@UAEXPAVCDC@@VCRect@@@Z 004600c9 f   nafxcw:afxvisualmanager.obj
 0001:0005f113       ?OnDrawPopupWindowButtonBorder@CMFCVisualManager@@UAEXPAVCDC@@VCRect@@PAVCMFCDesktopAlertWndButton@@@Z 00460113 f   nafxcw:afxvisualmanager.obj
 0001:0005f197       ?GetPropertyGridGroupColor@CMFCVisualManager@@UAEKPAVCMFCPropertyGridCtrl@@@Z 00460197 f   nafxcw:afxvisualmanager.obj
 0001:0005f1b6       ?GetPropertyGridGroupTextColor@CMFCVisualManager@@UAEKPAVCMFCPropertyGridCtrl@@@Z 004601b6 f   nafxcw:afxvisualmanager.obj
 0001:0005f1d5       ?GetMenuItemTextColor@CMFCVisualManager@@UAEKPAVCMFCToolBarMenuButton@@HH@Z 004601d5 f   nafxcw:afxvisualmanager.obj
 0001:0005f205       ?GetStatusBarPaneTextColor@CMFCVisualManager@@UAEKPAVCMFCStatusBar@@PAVCMFCStatusBarPaneInfo@@@Z 00460205 f   nafxcw:afxvisualmanager.obj
 0001:0005f237       ?OnDrawRibbonCaptionButton@CMFCVisualManager@@UAEXPAVCDC@@PAVCMFCRibbonCaptionButton@@@Z 00460237 f   nafxcw:afxvisualmanager.obj
 0001:0005f2f2       ?OnDrawRibbonButtonsGroup@CMFCVisualManager@@UAEKPAVCDC@@PAVCMFCRibbonButtonsGroup@@VCRect@@@Z 004602f2 f   nafxcw:afxvisualmanager.obj
 0001:0005f2f8       ?OnDrawRibbonApplicationButton@CMFCVisualManager@@UAEXPAVCDC@@PAVCMFCRibbonButton@@@Z 004602f8 f   nafxcw:afxvisualmanager.obj
 0001:0005f3b1       ?OnDrawRibbonDefaultPaneButton@CMFCVisualManager@@UAEXPAVCDC@@PAVCMFCRibbonButton@@@Z 004603b1 f   nafxcw:afxvisualmanager.obj
 0001:0005f3f9       ?OnDrawRibbonDefaultPaneButtonContext@CMFCVisualManager@@UAEXPAVCDC@@PAVCMFCRibbonButton@@@Z 004603f9 f   nafxcw:afxvisualmanager.obj
 0001:0005f475       ?OnFillRibbonMainPanelButton@CMFCVisualManager@@UAEKPAVCDC@@PAVCMFCRibbonButton@@@Z 00460475 f   nafxcw:afxvisualmanager.obj
 0001:0005f483       ?OnDrawRibbonMainPanelButtonBorder@CMFCVisualManager@@UAEXPAVCDC@@PAVCMFCRibbonButton@@@Z 00460483 f   nafxcw:afxvisualmanager.obj
 0001:0005f491       ?OnDrawRibbonButtonBorder@CMFCVisualManager@@UAEXPAVCDC@@PAVCMFCRibbonButton@@@Z 00460491 f   nafxcw:afxvisualmanager.obj
 0001:0005f671       ?OnDrawRibbonMainPanelFrame@CMFCVisualManager@@UAEXPAVCDC@@PAVCMFCRibbonMainPanel@@VCRect@@@Z 00460671 f   nafxcw:afxvisualmanager.obj
 0001:0005f6b1       ?OnDrawRibbonGalleryButton@CMFCVisualManager@@UAEXPAVCDC@@PAVCMFCRibbonGalleryIcon@@@Z 004606b1 f   nafxcw:afxvisualmanager.obj
 0001:0005f6dc       ?OnDrawRibbonGalleryBorder@CMFCVisualManager@@UAEXPAVCDC@@PAVCMFCRibbonGallery@@VCRect@@@Z 004606dc f   nafxcw:afxvisualmanager.obj
 0001:0005f6f8       ?RibbonCategoryColorToRGB@CMFCVisualManager@@UAEKW4AFX_RibbonCategoryColor@@@Z 004606f8 f   nafxcw:afxvisualmanager.obj
 0001:0005f7b1       ?OnDrawRibbonStatusBarPane@CMFCVisualManager@@UAEKPAVCDC@@PAVCMFCRibbonStatusBar@@PAVCMFCRibbonStatusBarPane@@@Z 004607b1 f   nafxcw:afxvisualmanager.obj
 0001:0005f84a       ?GetRibbonSliderColors@CMFCVisualManager@@UAEXPAVCMFCRibbonSlider@@HHHAAK1@Z 0046084a f   nafxcw:afxvisualmanager.obj
 0001:0005f88e       ?OnDrawRibbonSliderChannel@CMFCVisualManager@@UAEXPAVCDC@@PAVCMFCRibbonSlider@@VCRect@@@Z 0046088e f   nafxcw:afxvisualmanager.obj
 0001:0005f902       ?OnDrawRibbonQuickAccessToolBarSeparator@CMFCVisualManager@@UAEXPAVCDC@@PAVCMFCRibbonSeparator@@VCRect@@@Z 00460902 f   nafxcw:afxvisualmanager.obj
 0001:0005f966       ?OnDrawRibbonCheckBoxOnList@CMFCVisualManager@@UAEXPAVCDC@@PAVCMFCRibbonCheckBox@@VCRect@@HH@Z 00460966 f   nafxcw:afxvisualmanager.obj
 0001:0005f9c5       ?GetRibbonHyperlinkTextColor@CMFCVisualManager@@UAEKPAVCMFCRibbonLinkCtrl@@@Z 004609c5 f   nafxcw:afxvisualmanager.obj
 0001:0005fa03       ?GetRibbonStatusBarTextColor@CMFCVisualManager@@UAEKPAVCMFCRibbonStatusBar@@@Z 00460a03 f   nafxcw:afxvisualmanager.obj
 0001:0005fa03       ?GetAutoHideButtonTextColor@CMFCVisualManager@@UAEKPAVCMFCAutoHideButton@@@Z 00460a03 f   nafxcw:afxvisualmanager.obj
 0001:0005fa0b       ?GetRibbonEditBackgroundColor@CMFCVisualManager@@UAEKPAVCMFCRibbonRichEditCtrl@@HHH@Z 00460a0b f   nafxcw:afxvisualmanager.obj
 0001:0005fa2a       ?GetRegularSize@CMFCRibbonTab@@UAE?AVCSize@@PAVCDC@@@Z 00460a2a f   nafxcw:afxribboncategory.obj
 0001:0005fa2a       ?CalcSize@CPane@@UAE?AVCSize@@H@Z 00460a2a f   nafxcw:afxbasetoolbar.obj
 0001:0005fa2a       ?GetImageSize@CMFCRibbonBaseElement@@UBE?AVCSize@@W4RibbonImageType@1@@Z 00460a2a f   nafxcw:afxbaseribbonelement.obj
 0001:0005fa2a       ?GetNcBtnSize@CMFCVisualManager@@UBE?AVCSize@@H@Z 00460a2a f   nafxcw:afxvisualmanager.obj
 0001:0005fa3d       ?OnTouchInput@CWnd@@MAEHVCPoint@@HHPAUtagTOUCHINPUT@@@Z 00460a3d f   nafxcw:wincore.obj
 0001:0005fa3d       ?OnEraseMDIClientArea@CMFCVisualManager@@UAEHPAVCDC@@VCRect@@@Z 00460a3d f   nafxcw:afxvisualmanager.obj
 0001:0005fa42       ?GetToolTipInfo@CMFCVisualManager@@UAEHAAVCMFCToolTipInfo@@I@Z 00460a42 f   nafxcw:afxvisualmanager.obj
 0001:0005fa65       ?CleanUpThemes@CMFCBaseVisualManager@@IAEXXZ 00460a65 f   nafxcw:afxvisualmanager.obj
 0001:0005fb3c       ?DrawComboBorder@CMFCBaseVisualManager@@UAEHPAVCDC@@VCRect@@HHH@Z 00460b3c f   nafxcw:afxvisualmanager.obj
 0001:0005fb7e       ?DrawState@CDC@@QAEHVCPoint@@VCSize@@PAUHICON__@@IPAUHBRUSH__@@@Z 00460b7e f i nafxcw:afxvisualmanager.obj
 0001:0005fbae       ?Ellipse@CDC@@QAEHPBUtagRECT@@@Z 00460bae f i nafxcw:afxvisualmanager.obj
 0001:0005fbce       ?NewNode@?$CList@UtagPOINT@@U1@@@IAEPAUCNode@1@PAU21@0@Z 00460bce f i nafxcw:afxvisualmanager.obj
 0001:0005fc2a       ??$SerializeElements@UtagPOINT@@@@YGXAAVCArchive@@PAUtagPOINT@@H@Z 00460c2a f i nafxcw:afxvisualmanager.obj
 0001:0005fcae       ?RedrawAll@CMFCVisualManager@@SGXXZ 00460cae f   nafxcw:afxvisualmanager.obj
 0001:0005fd6d       ?AdjustFrames@CMFCVisualManager@@SGXXZ 00460d6d f   nafxcw:afxvisualmanager.obj
 0001:0005fda6       ?OnFillBarBackground@CMFCVisualManager@@UAEXPAVCDC@@PAVCBasePane@@VCRect@@2H@Z 00460da6 f   nafxcw:afxvisualmanager.obj
 0001:0005fee4       ?OnDrawPaneBorder@CMFCVisualManager@@UAEXPAVCDC@@PAVCBasePane@@AAVCRect@@@Z 00460ee4 f   nafxcw:afxvisualmanager.obj
 0001:0006004d       ?OnHighlightMenuItem@CMFCVisualManager@@UAEXPAVCDC@@PAVCMFCToolBarMenuButton@@VCRect@@AAK@Z 0046104d f   nafxcw:afxvisualmanager.obj
 0001:0006006c       ?OnDrawMenuLabel@CMFCVisualManager@@UAEKPAVCDC@@VCRect@@@Z 0046106c f   nafxcw:afxvisualmanager.obj
 0001:000600d7       ?OnFillTab@CMFCVisualManager@@UAEXPAVCDC@@VCRect@@PAVCBrush@@HHPBVCMFCBaseTabCtrl@@@Z 004610d7 f   nafxcw:afxvisualmanager.obj
 0001:0006015f       ?OnDrawTabCloseButton@CMFCVisualManager@@UAEXPAVCDC@@VCRect@@PBVCMFCBaseTabCtrl@@HHH@Z 0046115f f   nafxcw:afxvisualmanager.obj
 0001:000601d1       ?OnEraseTabsButton@CMFCVisualManager@@UAEXPAVCDC@@VCRect@@PAVCMFCButton@@PAVCMFCBaseTabCtrl@@@Z 004611d1 f   nafxcw:afxvisualmanager.obj
 0001:000601f0       ?OnDrawTabResizeBar@CMFCVisualManager@@UAEXPAVCDC@@PAVCMFCBaseTabCtrl@@HVCRect@@PAVCBrush@@PAVCPen@@@Z 004611f0 f   nafxcw:afxvisualmanager.obj
 0001:0006025b       ?OnFillCommandsListBackground@CMFCVisualManager@@UAEKPAVCDC@@VCRect@@H@Z 0046125b f   nafxcw:afxvisualmanager.obj
 0001:0006031c       ?OnDrawTearOffCaption@CMFCVisualManager@@UAEXPAVCDC@@VCRect@@H@Z 0046131c f   nafxcw:afxvisualmanager.obj
 0001:00060367       ?OnDrawMenuScrollButton@CMFCVisualManager@@UAEXPAVCDC@@VCRect@@HHHH@Z 00461367 f   nafxcw:afxvisualmanager.obj
 0001:000603f7       ?OnDrawMenuSystemButton@CMFCVisualManager@@UAEXPAVCDC@@VCRect@@IIH@Z 004613f7 f   nafxcw:afxvisualmanager.obj
 0001:00060451       ?OnDrawComboDropButton@CMFCVisualManager@@UAEXPAVCDC@@VCRect@@HHHPAVCMFCToolBarComboBoxButton@@@Z 00461451 f   nafxcw:afxvisualmanager.obj
 0001:00060565       ?OnFillOutlookPageButton@CMFCVisualManager@@UAEXPAVCDC@@ABVCRect@@HHAAK@Z 00461565 f   nafxcw:afxvisualmanager.obj
 0001:0006058e       ?OnDrawCaptionBarInfoArea@CMFCVisualManager@@UAEXPAVCDC@@PAVCMFCCaptionBar@@VCRect@@@Z 0046158e f   nafxcw:afxvisualmanager.obj
 0001:000605f9       ?OnFillCaptionBarButton@CMFCVisualManager@@UAEKPAVCDC@@PAVCMFCCaptionBar@@VCRect@@HHHHH@Z 004615f9 f   nafxcw:afxvisualmanager.obj
 0001:00060639       ?OnFillHeaderCtrlBackground@CMFCVisualManager@@UAEXPAVCMFCHeaderCtrl@@PAVCDC@@VCRect@@@Z 00461639 f   nafxcw:afxvisualmanager.obj
 0001:0006066b       ?OnDrawEditBorder@CMFCVisualManager@@UAEXPAVCDC@@VCRect@@HHPAVCMFCToolBarEditBoxButton@@@Z 0046166b f   nafxcw:afxvisualmanager.obj
 0001:0006068e       ?OnFillTasksPaneBackground@CMFCVisualManager@@UAEXPAVCDC@@VCRect@@@Z 0046168e f   nafxcw:afxvisualmanager.obj
 0001:000606ad       ?OnDrawTasksGroupIcon@CMFCVisualManager@@UAEXPAVCDC@@PAVCMFCTasksPaneTaskGroup@@HHHH@Z 004616ad f   nafxcw:afxvisualmanager.obj
 0001:00060768       ?OnDrawScrollButtons@CMFCVisualManager@@UAEXPAVCDC@@ABVCRect@@HHH@Z 00461768 f   nafxcw:afxvisualmanager.obj
 0001:00060817       ?OnDrawSpinButtons@CMFCVisualManager@@UAEXPAVCDC@@VCRect@@HHPAVCMFCSpinButtonCtrl@@@Z 00461817 f   nafxcw:afxvisualmanager.obj
 0001:000609e2       ?OnDrawControlBorder@CMFCVisualManager@@UAEXPAVCWnd@@@Z 004619e2 f   nafxcw:afxvisualmanager.obj
 0001:00060a8b       ?OnEraseTabsArea@CMFCVisualManager@@UAEXPAVCDC@@VCRect@@PBVCMFCBaseTabCtrl@@@Z 00461a8b f   nafxcw:afxvisualmanager.obj
 0001:00060a8b       ?OnFillAutoHideButtonBackground@CMFCVisualManager@@UAEXPAVCDC@@VCRect@@PAVCMFCAutoHideButton@@@Z 00461a8b f   nafxcw:afxvisualmanager.obj
 0001:00060aaa       ?OnDrawAutoHideButtonBorder@CMFCVisualManager@@UAEXPAVCDC@@VCRect@@1PAVCMFCAutoHideButton@@@Z 00461aaa f   nafxcw:afxvisualmanager.obj
 0001:00060b45       ?OnDrawOutlookBarSplitter@CMFCVisualManager@@UAEXPAVCDC@@VCRect@@@Z 00461b45 f   nafxcw:afxvisualmanager.obj
 0001:00060b7d       ?OnDrawBrowseButton@CMFCVisualManager@@UAEHPAVCDC@@VCRect@@PAVCMFCEditBrowseCtrl@@W4AFX_BUTTON_STATE@1@AAK@Z 00461b7d f   nafxcw:afxvisualmanager.obj
 0001:00060c13       ?OnFillPopupWindowBackground@CMFCVisualManager@@UAEXPAVCDC@@VCRect@@@Z 00461c13 f   nafxcw:afxvisualmanager.obj
 0001:00060c32       ?OnErasePopupWindowButton@CMFCVisualManager@@UAEXPAVCDC@@VCRect@@PAVCMFCDesktopAlertWndButton@@@Z 00461c32 f   nafxcw:afxvisualmanager.obj
 0001:00060ce3       ?OnDrawRibbonCategoryScroll@CMFCVisualManager@@UAEXPAVCDC@@PAVCRibbonCategoryScroll@@@Z 00461ce3 f   nafxcw:afxvisualmanager.obj
 0001:00060db0       ?OnDrawRibbonPanel@CMFCVisualManager@@UAEKPAVCDC@@PAVCMFCRibbonPanel@@VCRect@@2@Z 00461db0 f   nafxcw:afxvisualmanager.obj
 0001:00060e7a       ?OnDrawRibbonDefaultPaneButtonIndicator@CMFCVisualManager@@UAEXPAVCDC@@PAVCMFCRibbonButton@@VCRect@@HH@Z 00461e7a f   nafxcw:afxvisualmanager.obj
 0001:00060f2b       ?OnFillRibbonButton@CMFCVisualManager@@UAEKPAVCDC@@PAVCMFCRibbonButton@@@Z 00461f2b f   nafxcw:afxvisualmanager.obj
 0001:000610f5       ?OnFillRibbonEdit@CMFCVisualManager@@UAEXPAVCDC@@PAVCMFCRibbonRichEditCtrl@@VCRect@@HHHAAK33@Z 004620f5 f   nafxcw:afxvisualmanager.obj
 0001:000611bf       ?OnDrawRibbonMenuCheckFrame@CMFCVisualManager@@UAEXPAVCDC@@PAVCMFCRibbonButton@@VCRect@@@Z 004621bf f   nafxcw:afxvisualmanager.obj
 0001:000611f7       ?OnFillRibbonMenuFrame@CMFCVisualManager@@UAEXPAVCDC@@PAVCMFCRibbonMainPanel@@VCRect@@@Z 004621f7 f   nafxcw:afxvisualmanager.obj
 0001:00061216       ?OnDrawRibbonRecentFilesFrame@CMFCVisualManager@@UAEXPAVCDC@@PAVCMFCRibbonMainPanel@@VCRect@@@Z 00462216 f   nafxcw:afxvisualmanager.obj
 0001:0006127c       ?OnDrawRibbonProgressBar@CMFCVisualManager@@UAEXPAVCDC@@PAVCMFCRibbonProgressBar@@VCRect@@2H@Z 0046227c f   nafxcw:afxvisualmanager.obj
 0001:00061325       ?OnFillRibbonQuickAccessToolBarPopup@CMFCVisualManager@@UAEXPAVCDC@@PAVCMFCRibbonPanelMenuBar@@VCRect@@@Z 00462325 f   nafxcw:afxvisualmanager.obj
 0001:00061344       ?OnDrawPropertySheetListItem@CMFCVisualManager@@UAEKPAVCDC@@PAVCMFCPropertySheet@@VCRect@@HH@Z 00462344 f   nafxcw:afxvisualmanager.obj
 0001:0006138b       ??1CMFCBaseVisualManager@@UAE@XZ 0046238b f   nafxcw:afxvisualmanager.obj
 0001:000613ac       ?UpdateSystemColors@CMFCBaseVisualManager@@IAEXXZ 004623ac f   nafxcw:afxvisualmanager.obj
 0001:00061590       ?DrawPushButton@CMFCBaseVisualManager@@UAEHPAVCDC@@VCRect@@PAVCMFCButton@@I@Z 00462590 f   nafxcw:afxvisualmanager.obj
 0001:0006166c       ?DrawComboDropButton@CMFCBaseVisualManager@@UAEHPAVCDC@@VCRect@@HHH@Z 0046266c f   nafxcw:afxvisualmanager.obj
 0001:000616c8       ?FillReBarPane@CMFCBaseVisualManager@@UAEXPAVCDC@@PAVCBasePane@@VCRect@@@Z 004626c8 f   nafxcw:afxvisualmanager.obj
 0001:00061831       ?DrawCheckBox@CMFCBaseVisualManager@@UAEHPAVCDC@@VCRect@@HHHH@Z 00462831 f   nafxcw:afxvisualmanager.obj
 0001:000618f9       ?DrawRadioButton@CMFCBaseVisualManager@@UAEHPAVCDC@@VCRect@@HHHH@Z 004628f9 f   nafxcw:afxvisualmanager.obj
 0001:00061989       ?AddHead@?$CList@UtagPOINT@@U1@@@QAEPAU__POSITION@@UtagPOINT@@@Z 00462989 f i nafxcw:afxvisualmanager.obj
 0001:000619be       ?AddTail@?$CList@UtagPOINT@@U1@@@QAEPAU__POSITION@@UtagPOINT@@@Z 004629be f i nafxcw:afxvisualmanager.obj
 0001:000619f2       ?InsertBefore@?$CList@UtagPOINT@@U1@@@QAEPAU__POSITION@@PAU2@UtagPOINT@@@Z 004629f2 f i nafxcw:afxvisualmanager.obj
 0001:00061a3b       ?InsertAfter@?$CList@UtagPOINT@@U1@@@QAEPAU__POSITION@@PAU2@UtagPOINT@@@Z 00462a3b f i nafxcw:afxvisualmanager.obj
 0001:00061a82       ??1?$CList@UtagPOINT@@U1@@@UAE@XZ 00462a82 f i nafxcw:afxvisualmanager.obj
 0001:00061a8d       ?Serialize@?$CList@UtagPOINT@@U1@@@UAEXAAVCArchive@@@Z 00462a8d f i nafxcw:afxvisualmanager.obj
 0001:00061af6       ??_G?$CList@UtagPOINT@@U1@@@UAEPAXI@Z 00462af6 f i nafxcw:afxvisualmanager.obj
 0001:00061af6       ??_E?$CList@UtagPOINT@@U1@@@UAEPAXI@Z 00462af6 f i nafxcw:afxvisualmanager.obj
 0001:00061b1d       ??1CMFCVisualManager@@UAE@XZ 00462b1d f   nafxcw:afxvisualmanager.obj
 0001:00061b38       ?DrawPushButtonWinXP@CMFCVisualManager@@UAEHPAVCDC@@VCRect@@PAVCMFCButton@@I@Z 00462b38 f i nafxcw:afxvisualmanager.obj
 0001:00061b3d       ?DrawComboBorderWinXP@CMFCVisualManager@@UAEHPAVCDC@@VCRect@@HHH@Z 00462b3d f i nafxcw:afxvisualmanager.obj
 0001:00061b3d       ?DrawComboDropButtonWinXP@CMFCVisualManager@@UAEHPAVCDC@@VCRect@@HHH@Z 00462b3d f i nafxcw:afxvisualmanager.obj
 0001:00061b42       ?GetRibbonQuickAccessToolBarTextColor@CMFCVisualManager@@UAEKH@Z 00462b42 f i nafxcw:afxvisualmanager.obj
 0001:00061b5e       ?SetDefaultManager@CMFCVisualManager@@SGXPAUCRuntimeClass@@@Z 00462b5e f   nafxcw:afxvisualmanager.obj
 0001:00061bd4       ??0CMFCBaseVisualManager@@QAE@XZ 00462bd4 f   nafxcw:afxvisualmanager.obj
 0001:00061cac       ??_ECMFCBaseVisualManager@@UAEPAXI@Z 00462cac f i nafxcw:afxvisualmanager.obj
 0001:00061cac       ??_GCMFCBaseVisualManager@@UAEPAXI@Z 00462cac f i nafxcw:afxvisualmanager.obj
 0001:00061ccd       ??0CMFCVisualManager@@QAE@H@Z 00462ccd f   nafxcw:afxvisualmanager.obj
 0001:00061ded       ??_ECMFCVisualManager@@UAEPAXI@Z 00462ded f i nafxcw:afxvisualmanager.obj
 0001:00061ded       ??_GCMFCVisualManager@@UAEPAXI@Z 00462ded f i nafxcw:afxvisualmanager.obj
 0001:00061e0e       ?OnDrawTabContent@CMFCVisualManager@@UAEXPAVCDC@@VCRect@@HHPBVCMFCBaseTabCtrl@@K@Z 00462e0e f   nafxcw:afxvisualmanager.obj
 0001:0006206c       ?OnDrawTasksGroupCaption@CMFCVisualManager@@UAEXPAVCDC@@PAVCMFCTasksPaneTaskGroup@@HHH@Z 0046306c f   nafxcw:afxvisualmanager.obj
 0001:00062343       ?OnDrawRibbonCaption@CMFCVisualManager@@UAEXPAVCDC@@PAVCMFCRibbonBar@@VCRect@@2@Z 00463343 f   nafxcw:afxvisualmanager.obj
 0001:0006256c       ?DrawTextOnGlass@CMFCVisualManager@@UAEHPAVCDC@@V?$CStringT@DV?$StrTraitMFC@DV?$ChTraitsCRT@D@ATL@@@@@ATL@@VCRect@@KHK@Z 0046356c f   nafxcw:afxvisualmanager.obj
 0001:000625fa       ?CreateObject@CMFCVisualManager@@SGPAVCObject@@XZ 004635fa f   nafxcw:afxvisualmanager.obj
 0001:0006262b       ?OnDrawTask@CMFCVisualManager@@UAEXPAVCDC@@PAVCMFCTasksPaneTask@@PAVCImageList@@HH@Z 0046362b f   nafxcw:afxvisualmanager.obj
 0001:0006285e       ?OnDrawRibbonKeyTip@CMFCVisualManager@@UAEXPAVCDC@@PAVCMFCRibbonBaseElement@@VCRect@@V?$CStringT@DV?$StrTraitMFC@DV?$ChTraitsCRT@D@ATL@@@@@ATL@@@Z 0046385e f   nafxcw:afxvisualmanager.obj
 0001:00062902       ?DrawStatusBarProgress@CMFCBaseVisualManager@@UAEHPAVCDC@@PAVCMFCStatusBar@@VCRect@@HHKKKH@Z 00463902 f   nafxcw:afxvisualmanager.obj
 0001:00062a0e       ?OnDrawPaneCaption@CMFCVisualManager@@UAEKPAVCDC@@PAVCDockablePane@@HVCRect@@2@Z 00463a0e f   nafxcw:afxvisualmanager.obj
 0001:00062a6a       ?OnDrawTab@CMFCVisualManager@@UAEXPAVCDC@@VCRect@@HHPBVCMFCBaseTabCtrl@@@Z 00463a6a f   nafxcw:afxvisualmanager.obj
 0001:00063c6f       ?OnFillMiniFrameCaption@CMFCVisualManager@@UAEKPAVCDC@@VCRect@@PAVCPaneFrameWnd@@H@Z 00464c6f f   nafxcw:afxvisualmanager.obj
 0001:00063cee       ?OnDrawCaptionBarBorder@CMFCVisualManager@@UAEXPAVCDC@@PAVCMFCCaptionBar@@VCRect@@KH@Z 00464cee f   nafxcw:afxvisualmanager.obj
 0001:00063d7e       ?OnDrawStatusBarProgress@CMFCVisualManager@@UAEXPAVCDC@@PAVCMFCStatusBar@@VCRect@@HHKKKH@Z 00464d7e f   nafxcw:afxvisualmanager.obj
 0001:00063f0f       ?OnDrawCheckBoxEx@CMFCVisualManager@@UAEXPAVCDC@@VCRect@@HHHH@Z 00464f0f f   nafxcw:afxvisualmanager.obj
 0001:00064086       ?OnDrawExpandingBox@CMFCVisualManager@@UAEXPAVCDC@@VCRect@@HK@Z 00465086 f   nafxcw:afxvisualmanager.obj
 0001:00064151       ?OnDrawPopupWindowCaption@CMFCVisualManager@@UAEKPAVCDC@@VCRect@@PAVCMFCDesktopAlertWnd@@@Z 00465151 f   nafxcw:afxvisualmanager.obj
 0001:00064196       ?DoDrawHeaderSortArrow@CMFCVisualManager@@QAEXPAVCDC@@VCRect@@HH@Z 00465196 f   nafxcw:afxvisualmanager.obj
 0001:000642b6       ?OnDrawDefaultRibbonImage@CMFCVisualManager@@UAEXPAVCDC@@VCRect@@HHH@Z 004652b6 f   nafxcw:afxvisualmanager.obj
 0001:000643cf       ?OnDrawRibbonTabsFrame@CMFCVisualManager@@UAEKPAVCDC@@PAVCMFCRibbonBar@@VCRect@@@Z 004653cf f   nafxcw:afxvisualmanager.obj
 0001:00064455       ?OnDrawRibbonCategory@CMFCVisualManager@@UAEXPAVCDC@@PAVCMFCRibbonCategory@@VCRect@@@Z 00465455 f   nafxcw:afxvisualmanager.obj
 0001:0006458e       ?OnDrawRibbonCategoryTab@CMFCVisualManager@@UAEKPAVCDC@@PAVCMFCRibbonTab@@H@Z 0046558e f   nafxcw:afxvisualmanager.obj
 0001:00064892       ?OnDrawRibbonCategoryCaption@CMFCVisualManager@@UAEKPAVCDC@@PAVCMFCRibbonContextCaption@@@Z 00465892 f   nafxcw:afxvisualmanager.obj
 0001:00064909       ?OnDrawRibbonSliderZoomButton@CMFCVisualManager@@UAEXPAVCDC@@PAVCMFCRibbonSlider@@VCRect@@HHHH@Z 00465909 f   nafxcw:afxvisualmanager.obj
 0001:00064a60       ?OnDrawRibbonSliderThumb@CMFCVisualManager@@UAEXPAVCDC@@PAVCMFCRibbonSlider@@VCRect@@HHH@Z 00465a60 f   nafxcw:afxvisualmanager.obj
 0001:00064bbb       ?OnDrawRibbonColorPaletteBox@CMFCVisualManager@@UAEXPAVCDC@@PAVCMFCRibbonColorButton@@PAVCMFCRibbonGalleryIcon@@KVCRect@@HHHHH@Z 00465bbb f   nafxcw:afxvisualmanager.obj
 0001:00064d62       ?OnSetWindowRegion@CMFCVisualManager@@UAEHPAVCWnd@@VCSize@@@Z 00465d62 f   nafxcw:afxvisualmanager.obj
 0001:00064f09       ?OnDrawHeaderCtrlSortArrow@CMFCVisualManager@@UAEXPAVCMFCHeaderCtrl@@PAVCDC@@AAVCRect@@H@Z 00465f09 f   nafxcw:afxvisualmanager.obj
 0001:00064f36       ?GetStandardWindowsTheme@CMFCBaseVisualManager@@UAE?AW4WinXpTheme@1@XZ 00465f36 f   nafxcw:afxvisualmanager.obj
 0001:0006515b       ?OnDrawStatusBarSizeBox@CMFCVisualManager@@UAEXPAVCDC@@PAVCMFCStatusBar@@VCRect@@@Z 0046615b f   nafxcw:afxvisualmanager.obj
 0001:000651ff       ?OnDrawRibbonPanelCaption@CMFCVisualManager@@UAEXPAVCDC@@PAVCMFCRibbonPanel@@VCRect@@@Z 004661ff f   nafxcw:afxvisualmanager.obj
 0001:000652c3       ?SetAccelTable@CKeyboardManager@@KGXAAPAUtagACCEL@@AAPAUHACCEL__@@AAHQAU3@@Z 004662c3 f   nafxcw:afxkeyboardmanager.obj
 0001:0006533b       ?IsKeyPrintable@CKeyboardManager@@SGHI@Z 0046633b f   nafxcw:afxkeyboardmanager.obj
 0001:000653b8       ?TranslateCharToUpper@CKeyboardManager@@SGII@Z 004663b8 f   nafxcw:afxkeyboardmanager.obj
 0001:00065492       ?CleanUp@CKeyboardManager@@SGXXZ 00466492 f   nafxcw:afxkeyboardmanager.obj
 0001:000654c1       ?IsKeyHandled@CKeyboardManager@@SGHGEPAVCFrameWnd@@H@Z 004664c1 f   nafxcw:afxkeyboardmanager.obj
 0001:0006554d       ?UpdateAccelTable@CKeyboardManager@@QAEHPAVCMultiDocTemplate@@PAUHACCEL__@@PAVCFrameWnd@@@Z 0046654d f   nafxcw:afxkeyboardmanager.obj
 0001:0006561a       ?ResetAll@CKeyboardManager@@QAEXXZ 0046661a f   nafxcw:afxkeyboardmanager.obj
 0001:0006574a       ?UpdateAccelTable@CKeyboardManager@@QAEHPAVCMultiDocTemplate@@PAUtagACCEL@@HPAVCFrameWnd@@@Z 0046674a f   nafxcw:afxkeyboardmanager.obj
 0001:00065798       ?FindDefaultAccelerator@CKeyboardManager@@SGHIAAV?$CStringT@DV?$StrTraitMFC@DV?$ChTraitsCRT@D@ATL@@@@@ATL@@PAVCFrameWnd@@H@Z 00466798 f   nafxcw:afxkeyboardmanager.obj
 0001:000658d8       ?GetCmdMgr@@YAPAVCCommandManager@@XZ 004668d8 f   nafxcw:afxcommandmanager.obj
 0001:000658de       ?FreeAssoc@?$CMap@HHII@@IAEXPAVCAssoc@1@@Z 004668de f i nafxcw:afxmousemanager.obj
 0001:000658de       ?FreeAssoc@?$CMap@IIHH@@IAEXPAVCAssoc@1@@Z 004668de f i nafxcw:afxcommandmanager.obj
 0001:000658de       ?FreeAssoc@?$CMap@IIPAUHWND__@@PAU1@@@IAEXPAVCAssoc@1@@Z 004668de f i nafxcw:afxpaneframewnd.obj
 0001:000658de       ?FreeAssoc@?$CMap@PAUHMENU__@@AAPAU1@PAXAAPAX@@IAEXPAVCAssoc@1@@Z 004668de f i nafxcw:afxmenuhash.obj
 0001:000658de       ?FreeAssoc@?$CMap@PAVCWnd@@PAV1@PAVCImageList@@PAV2@@@IAEXPAVCAssoc@1@@Z 004668de f i nafxcw:afxmdiclientareawnd.obj
 0001:000658de       ?FreeAssoc@?$CMap@PAVCWnd@@PAV1@PAVCHwndRenderTarget@@PAV2@@@IAEXPAVCAssoc@1@@Z 004668de f i nafxcw:wincore.obj
 0001:000658fd       ??0CCommandManager@@IAE@XZ 004668fd f   nafxcw:afxcommandmanager.obj
 0001:0006593e       ??1CCommandManager@@UAE@XZ 0046693e f   nafxcw:afxcommandmanager.obj
 0001:000659ad       ?ClearAllCmdImages@CCommandManager@@QAEXXZ 004669ad f   nafxcw:afxcommandmanager.obj
 0001:000659d3       ?CleanUp@CCommandManager@@QAEXXZ 004669d3 f   nafxcw:afxcommandmanager.obj
 0001:000659d8       ?RemoveKey@?$CMap@IIPAUHWND__@@PAU1@@@QAEHI@Z 004669d8 f i nafxcw:afxpaneframewnd.obj
 0001:000659d8       ?RemoveKey@?$CMap@IIHH@@QAEHI@Z 004669d8 f i nafxcw:afxcommandmanager.obj
 0001:00065a3f       ??_ECCommandManager@@UAEPAXI@Z 00466a3f f i nafxcw:afxcommandmanager.obj
 0001:00065a3f       ??_GCCommandManager@@UAEPAXI@Z 00466a3f f i nafxcw:afxcommandmanager.obj
 0001:00065a60       ?ClearCmdImage@CCommandManager@@QAEXI@Z 00466a60 f   nafxcw:afxcommandmanager.obj
 0001:00065a6e       ?GetCmdImage@CCommandManager@@QBEHIH@Z 00466a6e f   nafxcw:afxcommandmanager.obj
 0001:00065aa2       ?SetCmdImage@CCommandManager@@QAEXIHH@Z 00466aa2 f   nafxcw:afxcommandmanager.obj
 0001:00065aee       ?EnableMenuItemImage@CCommandManager@@QAEXIHH@Z 00466aee f   nafxcw:afxcommandmanager.obj
 0001:00065b58       ?Is32BitIcons@AFX_GLOBAL_DATA@@QBEHXZ 00466b58 f i nafxcw:afxmenuimages.obj
 0001:00065b7d       ?CleanUp@CMenuImages@@SGXXZ 00466b7d f   nafxcw:afxmenuimages.obj
 0001:00065bcc       ?CreateCopy@CMenuImages@@KGXAAVCMFCToolBarImages@@K@Z 00466bcc f   nafxcw:afxmenuimages.obj
 0001:00065bf1       ?Initialize@CMenuImages@@KGHXZ 00466bf1 f   nafxcw:afxmenuimages.obj
 0001:00065d69       ?Size@CMenuImages@@SG?AVCSize@@XZ 00466d69 f   nafxcw:afxmenuimages.obj
 0001:00065dde       ?Draw@CMenuImages@@SGXPAVCDC@@W4IMAGES_IDS@1@ABVCPoint@@W4IMAGE_STATE@1@ABVCSize@@@Z 00466dde f   nafxcw:afxmenuimages.obj
 0001:00065e7c       ?Draw@CMenuImages@@SGXPAVCDC@@W4IMAGES_IDS@1@ABVCRect@@W4IMAGE_STATE@1@ABVCSize@@@Z 00466e7c f   nafxcw:afxmenuimages.obj
 0001:00065ef6       ??0?$CMap@PAUHMENU__@@AAPAU1@PAXAAPAX@@QAE@H@Z 00466ef6 f i nafxcw:afxmenuhash.obj
 0001:00065f22       ??_G?$CMap@PAUHMENU__@@AAPAU1@PAXAAPAX@@UAEPAXI@Z 00466f22 f i nafxcw:afxmenuhash.obj
 0001:00065f22       ??_E?$CMap@PAUHMENU__@@AAPAU1@PAXAAPAX@@UAEPAXI@Z 00466f22 f i nafxcw:afxmenuhash.obj
 0001:00065f49       ??$HashKey@AAPAUHMENU__@@@@YGIAAPAUHMENU__@@@Z 00466f49 f i nafxcw:afxmenuhash.obj
 0001:00065f7a       ??0CMenuHash@@QAE@XZ       00466f7a f   nafxcw:afxmenuhash.obj
 0001:00065f97       ??1CMenuHash@@UAE@XZ       00466f97 f   nafxcw:afxmenuhash.obj
 0001:00065fab       ?CleanUp@CMenuHash@@QAEXXZ 00466fab f   nafxcw:afxmenuhash.obj
 0001:00065ff2       ?RemoveKey@?$CMap@PAUHMENU__@@AAPAU1@PAXAAPAX@@QAEHAAPAUHMENU__@@@Z 00466ff2 f i nafxcw:afxmenuhash.obj
 0001:00066058       ?GetAssocAt@?$CMap@PAUHMENU__@@AAPAU1@PAXAAPAX@@IBEPAVCAssoc@1@AAPAUHMENU__@@AAI1@Z 00467058 f i nafxcw:afxmenuhash.obj
 0001:000660ab       ??_ECMenuHash@@UAEPAXI@Z   004670ab f i nafxcw:afxmenuhash.obj
 0001:000660ab       ??_GCMenuHash@@UAEPAXI@Z   004670ab f i nafxcw:afxmenuhash.obj
 0001:000660cc       ?Lookup@?$CMap@PAUHMENU__@@AAPAU1@PAXAAPAX@@QBEHAAPAUHMENU__@@AAPAX@Z 004670cc f i nafxcw:afxmenuhash.obj
 0001:000660f5       ?LoadMenuBar@CMenuHash@@QAEHPAUHMENU__@@PAVCMFCToolBar@@@Z 004670f5 f   nafxcw:afxmenuhash.obj
 0001:000661e2       ?RemoveMenu@CMenuHash@@QAEHPAUHMENU__@@@Z 004671e2 f   nafxcw:afxmenuhash.obj
 0001:00066223       ??A?$CMap@PAUHMENU__@@AAPAU1@PAXAAPAX@@QAEAAPAXAAPAUHMENU__@@@Z 00467223 f i nafxcw:afxmenuhash.obj
 0001:00066287       ?Serialize@?$CMap@PAUHMENU__@@AAPAU1@PAXAAPAX@@UAEXAAVCArchive@@@Z 00467287 f i nafxcw:afxmenuhash.obj
 0001:00066328       ?SaveMenuBar@CMenuHash@@QAEHPAUHMENU__@@PAVCMFCToolBar@@@Z 00467328 f   nafxcw:afxmenuhash.obj
 0001:00066512       ?GetSmartDockingManager@CDockingManager@@QAEPAVCSmartDockingManager@@XZ 00467512 f i nafxcw:afxpaneframewnd.obj
 0001:00066594       ?StartSDocking@CDockingManager@@QAEXPAVCWnd@@@Z 00467594 f i nafxcw:afxpaneframewnd.obj
 0001:000665d0       ?GetSize@CMFCCaptionButton@@SG?AVCSize@@XZ 004675d0 f i nafxcw:afxpaneframewnd.obj
 0001:0006662b       ?GetRuntimeClass@CPaneFrameWnd@@UBEPAUCRuntimeClass@@XZ 0046762b f   nafxcw:afxpaneframewnd.obj
 0001:00066631       ??5@YGAAVCArchive@@AAV0@AAPAVCPaneFrameWnd@@@Z 00467631 f   nafxcw:afxpaneframewnd.obj
 0001:0006664f       ?MoveDragFrame@CPaneFrameWnd@@IAEXXZ 0046764f f   nafxcw:afxpaneframewnd.obj
 0001:0006665d       ?GetPane@CPaneFrameWnd@@UBEPAVCWnd@@XZ 0046765d f   nafxcw:afxpaneframewnd.obj
 0001:00066669       ?GetFirstVisiblePane@CPaneFrameWnd@@UBEPAVCWnd@@XZ 00467669 f   nafxcw:afxpaneframewnd.obj
 0001:0006668a       ?OnDrawCaptionButtons@CPaneFrameWnd@@MAEXPAVCDC@@@Z 0046768a f   nafxcw:afxpaneframewnd.obj
 0001:00066724       ?OnNcHitTest@CPaneFrameWnd@@IAEJVCPoint@@@Z 00467724 f   nafxcw:afxpaneframewnd.obj
 0001:0006673d       ?MoveMiniFrame@CPaneFrameWnd@@IAEHXZ 0046773d f   nafxcw:afxpaneframewnd.obj
 0001:000667eb       ?CalcBorderSize@CPaneFrameWnd@@UBEXAAVCRect@@@Z 004677eb f   nafxcw:afxpaneframewnd.obj
 0001:0006683b       ?FindButton@CPaneFrameWnd@@IBEPAVCMFCCaptionButton@@I@Z 0046783b f   nafxcw:afxpaneframewnd.obj
 0001:00066876       ?RemoveAllCaptionButtons@CPaneFrameWnd@@IAEXXZ 00467876 f   nafxcw:afxpaneframewnd.obj
 0001:000668b0       ?CloseMiniFrame@CPaneFrameWnd@@MAEXXZ 004678b0 f   nafxcw:afxpaneframewnd.obj
 0001:000668e9       ?OnDockToRecentPos@CPaneFrameWnd@@UAEXXZ 004678e9 f   nafxcw:afxpaneframewnd.obj
 0001:0006696c       ?PreCreateWindow@CPaneFrameWnd@@MAEHAAUtagCREATESTRUCTA@@@Z 0046796c f   nafxcw:afxpaneframewnd.obj
 0001:00066985       ?IsCustModeAndNotFloatingToolbar@CPaneFrameWnd@@IBEHXZ 00467985 f   nafxcw:afxpaneframewnd.obj
 0001:000669b2       ?GetCaptionButtonTotalWidth@CPaneFrameWnd@@IBEHXZ 004679b2 f   nafxcw:afxpaneframewnd.obj
 0001:00066a06       ?CalcMinSize@CPaneFrameWnd@@MAEXAAVCSize@@PAUtagMINMAXINFO@@@Z 00467a06 f   nafxcw:afxpaneframewnd.obj
 0001:00066aa4       ?OnCapture@CPaneFrameWnd@@MAEXH@Z 00467aa4 f   nafxcw:afxpaneframewnd.obj
 0001:00066b3a       ?AdjustLayout@CPaneFrameWnd@@UAEXXZ 00467b3a f   nafxcw:afxpaneframewnd.obj
 0001:00066b72       ?SaveState@CPaneFrameWnd@@UAEHPBDI@Z 00467b72 f   nafxcw:afxpaneframewnd.obj
 0001:00066bae       ?LoadState@CPaneFrameWnd@@UAEHPBDI@Z 00467bae f   nafxcw:afxpaneframewnd.obj
 0001:00066bea       ?OnCheckEmptyState@CPaneFrameWnd@@IAEJIJ@Z 00467bea f   nafxcw:afxpaneframewnd.obj
 0001:00066c18       ?CanBeDockedToPane@CPaneFrameWnd@@UBEHPBVCDockablePane@@@Z 00467c18 f   nafxcw:afxpaneframewnd.obj
 0001:00066c45       ?GetDockingMode@CPaneFrameWnd@@UBE?AW4AFX_DOCK_TYPE@@XZ 00467c45 f   nafxcw:afxpaneframewnd.obj
 0001:00066c6e       ?OnClose@CPaneFrameWnd@@IAEXXZ 00467c6e f   nafxcw:afxpaneframewnd.obj
 0001:00066c76       ?OnExitSizeMove@CPaneFrameWnd@@IAEJIJ@Z 00467c76 f   nafxcw:afxpaneframewnd.obj
 0001:00066ca9       ?OnBeforeDock@CPaneFrameWnd@@UAEHXZ 00467ca9 f   nafxcw:afxpaneframewnd.obj
 0001:00066d6b       ?OnSettingChange@CPaneFrameWnd@@IAEXIPBD@Z 00467d6b f   nafxcw:afxpaneframewnd.obj
 0001:00066d8d       ?RecalcCaptionHeight@CPaneFrameWnd@@MAEXXZ 00467d8d f   nafxcw:afxpaneframewnd.obj
 0001:00066dd1       ?OnCloseMiniFrame@CPaneFrameWnd@@MAEHXZ 00467dd1 f   nafxcw:afxpaneframewnd.obj
 0001:00066e5e       ??5@YGAAVCArchive@@AAV0@AAUtagRECT@@@Z 00467e5e f i nafxcw:afxpaneframewnd.obj
 0001:00066e85       ??0CPaneFrameWnd@@QAE@XZ   00467e85 f   nafxcw:afxpaneframewnd.obj
 0001:00066fca       ?CanBeAttached@CPaneFrameWnd@@UBEHXZ 00467fca f i nafxcw:afxpaneframewnd.obj
 0001:00066ff0       ?GetPaneCount@CPaneFrameWnd@@UBEHXZ 00467ff0 f i nafxcw:afxpaneframewnd.obj
 0001:00067002       ?GetVisiblePaneCount@CPaneFrameWnd@@UBEHXZ 00468002 f i nafxcw:afxpaneframewnd.obj
 0001:00067031       ?CalcExpectedDockedRect@CPaneFrameWnd@@UAEXPAVCWnd@@VCPoint@@AAVCRect@@AAHPAPAVCDockablePane@@@Z 00468031 f i nafxcw:afxpaneframewnd.obj
 0001:00067049       ??1CPaneFrameWnd@@UAE@XZ   00468049 f   nafxcw:afxpaneframewnd.obj
 0001:0006709b       ?SaveRecentFloatingState@CPaneFrameWnd@@MAEXXZ 0046809b f   nafxcw:afxpaneframewnd.obj
 0001:0006711a       ?OnMouseActivate@CPaneFrameWnd@@IAEHPAVCWnd@@II@Z 0046811a f   nafxcw:afxpaneframewnd.obj
 0001:000671b8       ?EnterDragMode@CPaneFrameWnd@@MAEXPAUHWND__@@@Z 004681b8 f   nafxcw:afxpaneframewnd.obj
 0001:00067271       ?OnLButtonUp@CPaneFrameWnd@@IAEXIVCPoint@@@Z 00468271 f   nafxcw:afxpaneframewnd.obj
 0001:00067474       ?ConvertToTabbedDocument@CPaneFrameWnd@@UAEXXZ 00468474 f   nafxcw:afxpaneframewnd.obj
 0001:000674b3       ?DockPane@CPaneFrameWnd@@UAEPAVCDockablePane@@AAH@Z 004684b3 f   nafxcw:afxpaneframewnd.obj
 0001:00067708       ?DockPaneStandard@CPaneFrameWnd@@MAEPAVCDockablePane@@AAH@Z 00468708 f   nafxcw:afxpaneframewnd.obj
 0001:00067781       ?OnMouseMove@CPaneFrameWnd@@IAEXIVCPoint@@@Z 00468781 f   nafxcw:afxpaneframewnd.obj
 0001:00067fa1       ?OnMoving@CPaneFrameWnd@@IAEXIPAUtagRECT@@@Z 00468fa1 f   nafxcw:afxpaneframewnd.obj
 0001:00067fb6       ?OnCheckRollState@CPaneFrameWnd@@MAEXXZ 00468fb6 f   nafxcw:afxpaneframewnd.obj
 0001:000680d6       ?IsRollDown@CPaneFrameWnd@@UBEHXZ 004690d6 f   nafxcw:afxpaneframewnd.obj
 0001:00068166       ?IsRollUp@CPaneFrameWnd@@UBEHXZ 00469166 f   nafxcw:afxpaneframewnd.obj
 0001:000681d6       ?SetRollUpTimer@CPaneFrameWnd@@IAEXXZ 004691d6 f   nafxcw:afxpaneframewnd.obj
 0001:00068215       ?KillRollupTimer@CPaneFrameWnd@@IAEXXZ 00469215 f   nafxcw:afxpaneframewnd.obj
 0001:0006824d       ?OnNcCalcSize@CPaneFrameWnd@@IAEXHPAUtagNCCALCSIZE_PARAMS@@@Z 0046924d f   nafxcw:afxpaneframewnd.obj
 0001:000682b6       ?OnDrawBorder@CPaneFrameWnd@@MAEXPAVCDC@@@Z 004692b6 f   nafxcw:afxpaneframewnd.obj
 0001:00068402       ?HitTest@CPaneFrameWnd@@UAEJVCPoint@@H@Z 00469402 f   nafxcw:afxpaneframewnd.obj
 0001:00068866       ?OnSetCursor@CPaneFrameWnd@@IAEHPAVCWnd@@II@Z 00469866 f   nafxcw:afxpaneframewnd.obj
 0001:000688ea       ?OnSizing@CPaneFrameWnd@@IAEXIPAUtagRECT@@@Z 004698ea f   nafxcw:afxpaneframewnd.obj
 0001:00068b31       ?SizeToContent@CPaneFrameWnd@@UAEXXZ 00469b31 f   nafxcw:afxpaneframewnd.obj
 0001:00068be2       ?OnPaneRecalcLayout@CPaneFrameWnd@@UAEXXZ 00469be2 f   nafxcw:afxpaneframewnd.obj
 0001:00068ce9       ?SetPreDockState@CPaneFrameWnd@@UAEHW4AFX_PREDOCK_STATE@@PAVCBasePane@@W4AFX_DOCK_METHOD@@@Z 00469ce9 f   nafxcw:afxpaneframewnd.obj
 0001:00068def       ?OnMovePane@CPaneFrameWnd@@UAEXPAVCPane@@VCPoint@@@Z 00469def f   nafxcw:afxpaneframewnd.obj
 0001:00068e5b       ?OnWindowPosChanging@CPaneFrameWnd@@IAEXPAUtagWINDOWPOS@@@Z 00469e5b f   nafxcw:afxpaneframewnd.obj
 0001:00068f2d       ?OnTimer@CPaneFrameWnd@@IAEXI@Z 00469f2d f   nafxcw:afxpaneframewnd.obj
 0001:00068f7e       ?OnNcActivate@CPaneFrameWnd@@IAEHH@Z 00469f7e f   nafxcw:afxpaneframewnd.obj
 0001:00068ff4       ?AddButton@CPaneFrameWnd@@MAEXI@Z 00469ff4 f   nafxcw:afxpaneframewnd.obj
 0001:00069092       ?FindButton@CPaneFrameWnd@@IBEPAVCMFCCaptionButton@@VCPoint@@@Z 0046a092 f   nafxcw:afxpaneframewnd.obj
 0001:00069140       ?UpdateTooltips@CPaneFrameWnd@@IAEXXZ 0046a140 f   nafxcw:afxpaneframewnd.obj
 0001:00069249       ?ArrangeCaptionButtons@CPaneFrameWnd@@IAEXXZ 0046a249 f   nafxcw:afxpaneframewnd.obj
 0001:00069321       ?RedrawCaptionButton@CPaneFrameWnd@@IAEXPAVCMFCCaptionButton@@@Z 0046a321 f   nafxcw:afxpaneframewnd.obj
 0001:0006938d       ?OnLButtonDblClk@CPaneFrameWnd@@IAEXIVCPoint@@@Z 0046a38d f   nafxcw:afxpaneframewnd.obj
 0001:000693d7       ?OnCancelMode@CPaneFrameWnd@@IAEXXZ 0046a3d7 f   nafxcw:afxpaneframewnd.obj
 0001:00069519       ?GetCaptionRect@CPaneFrameWnd@@UBEXAAVCRect@@@Z 0046a519 f   nafxcw:afxpaneframewnd.obj
 0001:000695d5       ?OnNcMouseMove@CPaneFrameWnd@@IAEXIVCPoint@@@Z 0046a5d5 f   nafxcw:afxpaneframewnd.obj
 0001:00069606       ?OnTrackCaptionButtons@CPaneFrameWnd@@MAEXVCPoint@@@Z 0046a606 f   nafxcw:afxpaneframewnd.obj
 0001:000696ff       ?StopCaptionButtonsTracking@CPaneFrameWnd@@MAEXXZ 0046a6ff f   nafxcw:afxpaneframewnd.obj
 0001:00069775       ?OnGetMinMaxInfo@CPaneFrameWnd@@IAEXPAUtagMINMAXINFO@@@Z 0046a775 f   nafxcw:afxpaneframewnd.obj
 0001:000697ce       ?OnContextMenu@CPaneFrameWnd@@IAEXPAVCWnd@@VCPoint@@@Z 0046a7ce f   nafxcw:afxpaneframewnd.obj
 0001:000698ef       ?KillDockingTimer@CPaneFrameWnd@@QAEXXZ 0046a8ef f   nafxcw:afxpaneframewnd.obj
 0001:0006990d       ?OnChar@CPaneFrameWnd@@IAEXIII@Z 0046a90d f   nafxcw:afxpaneframewnd.obj
 0001:000699a8       ?SetDockState@CPaneFrameWnd@@UAEXPAVCDockingManager@@@Z 0046a9a8 f   nafxcw:afxpaneframewnd.obj
 0001:00069bea       ?RedrawAll@CPaneFrameWnd@@SGXXZ 0046abea f   nafxcw:afxpaneframewnd.obj
 0001:00069c1e       ?PaneFromPoint@CPaneFrameWnd@@UAEPAVCBasePane@@VCPoint@@HH@Z 0046ac1e f   nafxcw:afxpaneframewnd.obj
 0001:00069ca7       ?OnIdleUpdateCmdUI@CPaneFrameWnd@@IAEJIJ@Z 0046aca7 f   nafxcw:afxpaneframewnd.obj
 0001:00069d1d       ?StartTearOff@CPaneFrameWnd@@QAEHPAVCMFCPopupMenu@@@Z 0046ad1d f   nafxcw:afxpaneframewnd.obj
 0001:00069ff6       ?RemoveNonValidPanes@CPaneFrameWnd@@UAEXXZ 0046aff6 f   nafxcw:afxpaneframewnd.obj
 0001:0006a063       ?GetPaneList@CPaneFrameWnd@@KGXAAVCObList@@PAUCRuntimeClass@@H@Z 0046b063 f   nafxcw:afxpaneframewnd.obj
 0001:0006a10d       ?OnSetFocus@CPaneFrameWnd@@IAEXPAVCWnd@@@Z 0046b10d f   nafxcw:afxpaneframewnd.obj
 0001:0006a1c7       ?PreTranslateMessage@CPaneFrameWnd@@UAEHPAUtagMSG@@@Z 0046b1c7 f   nafxcw:afxpaneframewnd.obj
 0001:0006a269       ?SetCaptionButtonsToolTips@CPaneFrameWnd@@IAEXXZ 0046b269 f   nafxcw:afxpaneframewnd.obj
 0001:0006a35f       ?OnUpdateToolTips@CPaneFrameWnd@@IAEJIJ@Z 0046b35f f   nafxcw:afxpaneframewnd.obj
 0001:0006a391       ?Find@?$CList@PAVIControlSiteFactory@@PAV1@@@QBEPAU__POSITION@@PAVIControlSiteFactory@@PAU2@@Z 0046b391 f i nafxcw:occmgr.obj
 0001:0006a391       ?Find@?$CList@PAUHWND__@@PAU1@@@QBEPAU__POSITION@@PAUHWND__@@PAU2@@Z 0046b391 f i nafxcw:afxpaneframewnd.obj
 0001:0006a3c9       ??_G?$CMap@IIPAUHWND__@@PAU1@@@UAEPAXI@Z 0046b3c9 f i nafxcw:afxpaneframewnd.obj
 0001:0006a3c9       ??_E?$CMap@IIPAUHWND__@@PAU1@@@UAEPAXI@Z 0046b3c9 f i nafxcw:afxpaneframewnd.obj
 0001:0006a3f0       ?CreateObject@CPaneFrameWnd@@SGPAVCObject@@XZ 0046b3f0 f   nafxcw:afxpaneframewnd.obj
 0001:0006a420       ??_GCPaneFrameWnd@@UAEPAXI@Z 0046b420 f i nafxcw:afxpaneframewnd.obj
 0001:0006a420       ??_ECPaneFrameWnd@@UAEPAXI@Z 0046b420 f i nafxcw:afxpaneframewnd.obj
 0001:0006a441       ?OnLButtonDown@CPaneFrameWnd@@IAEXIVCPoint@@@Z 0046b441 f   nafxcw:afxpaneframewnd.obj
 0001:0006a50e       ?OnSetRollUpTimer@CPaneFrameWnd@@UAEXXZ 0046b50e f   nafxcw:afxpaneframewnd.obj
 0001:0006a544       ?OnKillRollUpTimer@CPaneFrameWnd@@UAEXXZ 0046b544 f   nafxcw:afxpaneframewnd.obj
 0001:0006a57a       ?OnSize@CPaneFrameWnd@@IAEXIHH@Z 0046b57a f   nafxcw:afxpaneframewnd.obj
 0001:0006a61e       ?SetCaptionButtons@CPaneFrameWnd@@UAEXK@Z 0046b61e f   nafxcw:afxpaneframewnd.obj
 0001:0006a6c8       ?OnNcDestroy@CPaneFrameWnd@@IAEXXZ 0046b6c8 f   nafxcw:afxpaneframewnd.obj
 0001:0006a6e8       ?OnDestroy@CPaneFrameWnd@@IAEXXZ 0046b6e8 f   nafxcw:afxpaneframewnd.obj
 0001:0006a78f       ?SetDockingTimer@CPaneFrameWnd@@QAEXI@Z 0046b78f f   nafxcw:afxpaneframewnd.obj
 0001:0006a7c0       ?OnCreate@CPaneFrameWnd@@IAEHPAUtagCREATESTRUCTA@@@Z 0046b7c0 f   nafxcw:afxpaneframewnd.obj
 0001:0006a7fe       ?CreateEx@CPaneFrameWnd@@UAEHKPBDKABUtagRECT@@PAVCWnd@@PAUCCreateContext@@@Z 0046b7fe f   nafxcw:afxpaneframewnd.obj
 0001:0006a8d7       ?FindFloatingPaneByID@CPaneFrameWnd@@SGPAVCBasePane@@I@Z 0046b8d7 f   nafxcw:afxpaneframewnd.obj
 0001:0006a90f       ?Create@CPaneFrameWnd@@UAEHPBDKABUtagRECT@@PAVCWnd@@PAUCCreateContext@@@Z 0046b90f f   nafxcw:afxpaneframewnd.obj
 0001:0006a92e       ?AddRemovePaneFromGlobalList@CPaneFrameWnd@@SGHPAVCBasePane@@H@Z 0046b92e f   nafxcw:afxpaneframewnd.obj
 0001:0006aa02       ?ReplacePane@CPaneFrameWnd@@UAEXPAVCBasePane@@0@Z 0046ba02 f   nafxcw:afxpaneframewnd.obj
 0001:0006aa58       ?OnNeedTipText@CPaneFrameWnd@@IAEHIPAUtagNMHDR@@PAJ@Z 0046ba58 f   nafxcw:afxpaneframewnd.obj
 0001:0006ab4b       ?AddPane@CPaneFrameWnd@@UAEXPAVCBasePane@@@Z 0046bb4b f   nafxcw:afxpaneframewnd.obj
 0001:0006ac74       ?RemovePane@CPaneFrameWnd@@UAEXPAVCBasePane@@HH@Z 0046bc74 f   nafxcw:afxpaneframewnd.obj
 0001:0006aced       ?OnNcPaint@CPaneFrameWnd@@IAEXXZ 0046bced f   nafxcw:afxpaneframewnd.obj
 0001:0006b1e3       ?OnPressButtons@CPaneFrameWnd@@MAEXI@Z 0046c1e3 f   nafxcw:afxpaneframewnd.obj
 0001:0006b5c9       ?Serialize@CPaneFrameWnd@@UAEXAAVCArchive@@@Z 0046c5c9 f   nafxcw:afxpaneframewnd.obj
 0001:0006b75a       ?GetThisMessageMap@CPaneFrameWnd@@KGPBUAFX_MSGMAP@@XZ 0046c75a f   nafxcw:afxpaneframewnd.obj
 0001:0006b75a       ?GetMessageMap@CPaneFrameWnd@@MBEPBUAFX_MSGMAP@@XZ 0046c75a f   nafxcw:afxpaneframewnd.obj
 0001:0006b760       ?GetCaptionText@CPaneFrameWnd@@UAE?AV?$CStringT@DV?$StrTraitMFC@DV?$ChTraitsCRT@D@ATL@@@@@ATL@@XZ 0046c760 f   nafxcw:afxpaneframewnd.obj
 0001:0006b7e3       ?Create@CDockingManager@@QAEHPAVCFrameWnd@@@Z 0046c7e3 f   nafxcw:afxdockingmanager.obj
 0001:0006b7f8       ?AddPane@CDockingManager@@QAEHPAVCBasePane@@HHH@Z 0046c7f8 f   nafxcw:afxdockingmanager.obj
 0001:0006b8b2       ?InsertPane@CDockingManager@@QAEHPAVCBasePane@@0H@Z 0046c8b2 f   nafxcw:afxdockingmanager.obj
 0001:0006b8ff       ?RemovePaneFromDockManager@CDockingManager@@QAEXPAVCBasePane@@HHH0@Z 0046c8ff f   nafxcw:afxdockingmanager.obj
 0001:0006b96e       ?AddMiniFrame@CDockingManager@@UAEHPAVCPaneFrameWnd@@@Z 0046c96e f   nafxcw:afxdockingmanager.obj
 0001:0006b9a0       ?RemoveMiniFrame@CDockingManager@@UAEHPAVCPaneFrameWnd@@@Z 0046c9a0 f   nafxcw:afxdockingmanager.obj
 0001:0006b9d0       ?PaneFromPoint@CDockingManager@@UBEPAVCBasePane@@VCPoint@@HAAKPAUCRuntimeClass@@PBV2@@Z 0046c9d0 f   nafxcw:afxdockingmanager.obj
 0001:0006ba3f       ?FindPaneByID@CDockingManager@@UAEPAVCBasePane@@IH@Z 0046ca3f f   nafxcw:afxdockingmanager.obj
 0001:0006bbbf       ?FindDockSite@CDockingManager@@UAEPAVCDockSite@@KH@Z 0046cbbf f   nafxcw:afxdockingmanager.obj
 0001:0006bc38       ?FixupVirtualRects@CDockingManager@@UAEXXZ 0046cc38 f   nafxcw:afxdockingmanager.obj
 0001:0006bc7d       ?IsPointNearDockSite@CDockingManager@@QBEHVCPoint@@AAKAAH@Z 0046cc7d f   nafxcw:afxdockingmanager.obj
 0001:0006bd50       ?FindDockSiteByPane@CDockingManager@@UAEPAVCDockSite@@PAVCPane@@@Z 0046cd50 f   nafxcw:afxdockingmanager.obj
 0001:0006bda9       ?HideAutoHidePanes@CDockingManager@@QAEXPAVCDockablePane@@H@Z 0046cda9 f   nafxcw:afxdockingmanager.obj
 0001:0006be01       ?AdjustRectToClientArea@CDockingManager@@UAEHAAVCRect@@K@Z 0046ce01 f   nafxcw:afxdockingmanager.obj
 0001:0006bedf       ?AdjustPaneFrames@CDockingManager@@UAEXXZ 0046cedf f   nafxcw:afxdockingmanager.obj
 0001:0006bf48       ?AlignByRect@CDockingManager@@IAEXABVCRect@@AAV2@KHH@Z 0046cf48 f   nafxcw:afxdockingmanager.obj
 0001:0006c0b8       ?GetPaneList@CDockingManager@@QAEXAAVCObList@@HPAUCRuntimeClass@@H@Z 0046d0b8 f   nafxcw:afxdockingmanager.obj
 0001:0006c241       ?SetDockingMode@CDockingManager@@SGXW4AFX_DOCK_TYPE@@W4AFX_SMARTDOCK_THEME@@@Z 0046d241 f   nafxcw:afxdockingmanager.obj
 0001:0006c26b       ?OnClosePopupMenu@CDockingManager@@QAEXXZ 0046d26b f   nafxcw:afxdockingmanager.obj
 0001:0006c273       ??0CSmartDockingInfo@@QAE@XZ 0046d273 f   nafxcw:afxdockingmanager.obj
 0001:0006c2c1       ??_GCCellObj@@UAEPAXI@Z    0046d2c1 f i nafxcw:afxcolorpickerctrl.obj
 0001:0006c2c1       ??_GCSmartDockingInfo@@UAEPAXI@Z 0046d2c1 f i nafxcw:afxdockingmanager.obj
 0001:0006c2c1       ??_ECSmartDockingInfo@@UAEPAXI@Z 0046d2c1 f i nafxcw:afxdockingmanager.obj
 0001:0006c2c1       ??_ECCellObj@@UAEPAXI@Z    0046d2c1 f i nafxcw:afxcolorpickerctrl.obj
 0001:0006c2dd       ??0?$CList@IAAI@@QAE@H@Z   0046d2dd f i nafxcw:afxdockingmanager.obj
 0001:0006c305       ??1?$CList@IAAI@@UAE@XZ    0046d305 f i nafxcw:afxdockingmanager.obj
 0001:0006c310       ??0?$CList@UAFX_AUTOHIDE_DOCKSITE_SAVE_INFO@@AAU1@@@QAE@H@Z 0046d310 f i nafxcw:afxdockingmanager.obj
 0001:0006c338       ??0?$CList@PAUHWND__@@AAPAU1@@@QAE@H@Z 0046d338 f i nafxcw:afxdockingmanager.obj
 0001:0006c360       ??1?$CList@PAUHWND__@@AAPAU1@@@UAE@XZ 0046d360 f i nafxcw:afxdockingmanager.obj
 0001:0006c36b       ??0?$CMap@IIPAVCPane@@PAV1@@@QAE@H@Z 0046d36b f i nafxcw:afxdockingmanager.obj
 0001:0006c397       ??1?$CMap@IIPAVCPane@@PAV1@@@UAE@XZ 0046d397 f i nafxcw:afxdockingmanager.obj
 0001:0006c3a2       ??_G?$CList@IAAI@@UAEPAXI@Z 0046d3a2 f i nafxcw:afxdockingmanager.obj
 0001:0006c3a2       ??_E?$CList@IAAI@@UAEPAXI@Z 0046d3a2 f i nafxcw:afxdockingmanager.obj
 0001:0006c3c9       ??_E?$CList@PAUHWND__@@AAPAU1@@@UAEPAXI@Z 0046d3c9 f i nafxcw:afxdockingmanager.obj
 0001:0006c3c9       ??_G?$CList@PAUHWND__@@AAPAU1@@@UAEPAXI@Z 0046d3c9 f i nafxcw:afxdockingmanager.obj
 0001:0006c3f0       ??_G?$CMap@IIPAVCPane@@PAV1@@@UAEPAXI@Z 0046d3f0 f i nafxcw:afxdockingmanager.obj
 0001:0006c3f0       ??_E?$CMap@IIPAVCPane@@PAV1@@@UAEPAXI@Z 0046d3f0 f i nafxcw:afxdockingmanager.obj
 0001:0006c417       ??$SerializeElements@UAFX_AUTOHIDE_DOCKSITE_SAVE_INFO@@@@YGXAAVCArchive@@PAUAFX_AUTOHIDE_DOCKSITE_SAVE_INFO@@H@Z 0046d417 f i nafxcw:afxdockingmanager.obj
 0001:0006c49b       ??0AFX_AUTOHIDE_DOCKSITE_SAVE_INFO@@QAE@XZ 0046d49b f i nafxcw:afxdockingmanager.obj
 0001:0006c4e1       ?PaneFromPoint@CDockingManager@@UBEPAVCBasePane@@VCPoint@@H_NPAUCRuntimeClass@@HPBV2@@Z 0046d4e1 f   nafxcw:afxdockingmanager.obj
 0001:0006c62e       ?DeterminePaneAndStatus@CDockingManager@@UAE?AW4AFX_CS_STATUS@@VCPoint@@HKPAPAVCBasePane@@PBV4@2@Z 0046d62e f   nafxcw:afxdockingmanager.obj
 0001:0006c789       ?DockPane@CDockingManager@@QAEXPAVCBasePane@@IPBUtagRECT@@@Z 0046d789 f   nafxcw:afxdockingmanager.obj
 0001:0006c8e4       ?AlignAutoHidePane@CDockingManager@@QAEXPAVCPaneDivider@@H@Z 0046d8e4 f   nafxcw:afxdockingmanager.obj
 0001:0006cb75       ?CalcExpectedDockedRect@CDockingManager@@QAEXPAVCWnd@@VCPoint@@AAVCRect@@AAHPAPAVCDockablePane@@@Z 0046db75 f   nafxcw:afxdockingmanager.obj
 0001:0006ce4d       ?OnMoveMiniFrame@CDockingManager@@UAEHPAVCWnd@@@Z 0046de4d f   nafxcw:afxdockingmanager.obj
 0001:0006d1e5       ?BringBarsToTop@CDockingManager@@QAEXKH@Z 0046e1e5 f   nafxcw:afxdockingmanager.obj
 0001:0006d25e       ?RecalcLayout@CDockingManager@@UAEXH@Z 0046e25e f   nafxcw:afxdockingmanager.obj
 0001:0006d315       ?CalcPaneOffset@CDockingManager@@IAEXPAVCAutoHideDockSite@@@Z 0046e315 f   nafxcw:afxdockingmanager.obj
 0001:0006d512       ??1AFX_AUTOHIDE_DOCKSITE_SAVE_INFO@@QAE@XZ 0046e512 f i nafxcw:afxdockingmanager.obj
 0001:0006d520       ?SetDockState@CDockingManager@@UAEXXZ 0046e520 f   nafxcw:afxdockingmanager.obj
 0001:0006ddf7       ?HideForPrintPreview@CDockingManager@@IAEXABVCObList@@@Z 0046edf7 f   nafxcw:afxdockingmanager.obj
 0001:0006df42       ?SetPrintPreviewMode@CDockingManager@@QAEXHPAUCPrintPreviewState@@@Z 0046ef42 f   nafxcw:afxdockingmanager.obj
 0001:0006e03f       ?FrameFromPoint@CDockingManager@@UBEPAVCPaneFrameWnd@@VCPoint@@PAV2@H@Z 0046f03f f   nafxcw:afxdockingmanager.obj
 0001:0006e0eb       ?SendMessageToMiniFrames@CDockingManager@@QAEHIIJ@Z 0046f0eb f   nafxcw:afxdockingmanager.obj
 0001:0006e134       ?LockUpdate@CDockingManager@@QAEXH@Z 0046f134 f   nafxcw:afxdockingmanager.obj
 0001:0006e212       ?ShowDelayShowMiniFrames@CDockingManager@@UAEXH@Z 0046f212 f   nafxcw:afxdockingmanager.obj
 0001:0006e294       ?ResortMiniFramesForZOrder@CDockingManager@@QAEXXZ 0046f294 f   nafxcw:afxdockingmanager.obj
 0001:0006e34e       ?AddHead@?$CList@IAAI@@QAEPAU__POSITION@@AAI@Z 0046f34e f i nafxcw:afxdockingmanager.obj
 0001:0006e37f       ?AddTail@?$CList@IAAI@@QAEPAU__POSITION@@AAI@Z 0046f37f f i nafxcw:afxdockingmanager.obj
 0001:0006e37f       ?AddTail@?$CList@PAUHWND__@@AAPAU1@@@QAEPAU__POSITION@@AAPAUHWND__@@@Z 0046f37f f i nafxcw:afxdockingmanager.obj
 0001:0006e3af       ?RemoveAt@?$CList@IAAI@@QAEXPAU__POSITION@@@Z 0046f3af f i nafxcw:afxdockingmanager.obj
 0001:0006e3af       ?RemoveAt@?$CList@PAUHWND__@@AAPAU1@@@QAEXPAU__POSITION@@@Z 0046f3af f i nafxcw:afxdockingmanager.obj
 0001:0006e3af       ?RemoveAt@?$CList@PAUHWND__@@PAU1@@@QAEXPAU__POSITION@@@Z 0046f3af f i nafxcw:afxpaneframewnd.obj
 0001:0006e3af       ?RemoveAt@?$CList@II@@QAEXPAU__POSITION@@@Z 0046f3af f i nafxcw:afxcommandmanager.obj
 0001:0006e3af       ?RemoveAt@?$CList@PAVCFrameWnd@@PAV1@@@QAEXPAU__POSITION@@@Z 0046f3af f i nafxcw:afxframeimpl.obj
 0001:0006e3eb       ?Serialize@?$CList@IAAI@@UAEXAAVCArchive@@@Z 0046f3eb f i nafxcw:afxdockingmanager.obj
 0001:0006e450       ?Find@?$CList@PAUHWND__@@AAPAU1@@@QBEPAU__POSITION@@AAPAUHWND__@@PAU2@@Z 0046f450 f i nafxcw:afxdockingmanager.obj
 0001:0006e487       ?Serialize@?$CList@PAUHWND__@@AAPAU1@@@UAEXAAVCArchive@@@Z 0046f487 f i nafxcw:afxdockingmanager.obj
 0001:0006e4ec       ??_GAFX_AUTOHIDE_DOCKSITE_SAVE_INFO@@QAEPAXI@Z 0046f4ec f i nafxcw:afxdockingmanager.obj
 0001:0006e516       ?NewNode@?$CList@UAFX_AUTOHIDE_DOCKSITE_SAVE_INFO@@AAU1@@@IAEPAUCNode@1@PAU21@0@Z 0046f516 f i nafxcw:afxdockingmanager.obj
 0001:0006e583       ?AutoHidePane@CDockingManager@@QAEPAVCMFCAutoHideBar@@PAVCDockablePane@@PAV2@@Z 0046f583 f   nafxcw:afxdockingmanager.obj
 0001:0006e6cd       ?AdjustDockingLayout@CDockingManager@@UAEXPAX@Z 0046f6cd f   nafxcw:afxdockingmanager.obj
 0001:0006ebea       ?Serialize@AFX_AUTOHIDE_DOCKSITE_SAVE_INFO@@QAEXAAVCArchive@@@Z 0046fbea f   nafxcw:afxdockingmanager.obj
 0001:0006edda       ?ShowPanes@CDockingManager@@UAEHH@Z 0046fdda f   nafxcw:afxdockingmanager.obj
 0001:0006ef6a       ?OnActivateFrame@CDockingManager@@UAEXH@Z 0046ff6a f   nafxcw:afxdockingmanager.obj
 0001:0006f0a6       ?AddHiddenMDITabbedBar@CDockingManager@@QAEXPAVCDockablePane@@@Z 004700a6 f   nafxcw:afxdockingmanager.obj
 0001:0006f0d0       ?RemoveHiddenMDITabbedBar@CDockingManager@@QAEXPAVCDockablePane@@@Z 004700d0 f   nafxcw:afxdockingmanager.obj
 0001:0006f108       ?AddTail@?$CList@IAAI@@QAEXPAV1@@Z 00470108 f i nafxcw:afxdockingmanager.obj
 0001:0006f13b       ?RemoveAll@?$CList@UAFX_AUTOHIDE_DOCKSITE_SAVE_INFO@@AAU1@@@QAEXXZ 0047013b f i nafxcw:afxdockingmanager.obj
 0001:0006f173       ??1?$CList@UAFX_AUTOHIDE_DOCKSITE_SAVE_INFO@@AAU1@@@UAE@XZ 00470173 f i nafxcw:afxdockingmanager.obj
 0001:0006f17e       ??_E?$CList@UAFX_AUTOHIDE_DOCKSITE_SAVE_INFO@@AAU1@@@UAEPAXI@Z 0047017e f i nafxcw:afxdockingmanager.obj
 0001:0006f17e       ??_G?$CList@UAFX_AUTOHIDE_DOCKSITE_SAVE_INFO@@AAU1@@@UAEPAXI@Z 0047017e f i nafxcw:afxdockingmanager.obj
 0001:0006f1a5       ?Copy@AFX_AUTOHIDE_DOCKSITE_SAVE_INFO@@QAEAAU1@AAU1@@Z 004701a5 f i nafxcw:afxdockingmanager.obj
 0001:0006f1fe       ??0CDockingManager@@QAE@XZ 004701fe f   nafxcw:afxdockingmanager.obj
 0001:0006f3da       ??1CDockingManager@@UAE@XZ 004703da f   nafxcw:afxdockingmanager.obj
 0001:0006f4e3       ?ProcessPaneContextMenuCommand@CDockingManager@@QAEHIHPAXPAUAFX_CMDHANDLERINFO@@@Z 004704e3 f   nafxcw:afxdockingmanager.obj
 0001:0006f5d9       ??_GCDockingManager@@UAEPAXI@Z 004705d9 f i nafxcw:afxdockingmanager.obj
 0001:0006f5d9       ??_ECDockingManager@@UAEPAXI@Z 004705d9 f i nafxcw:afxdockingmanager.obj
 0001:0006f5fa       ?AddTail@?$CList@UAFX_AUTOHIDE_DOCKSITE_SAVE_INFO@@AAU1@@@QAEPAU__POSITION@@AAUAFX_AUTOHIDE_DOCKSITE_SAVE_INFO@@@Z 004705fa f i nafxcw:afxdockingmanager.obj
 0001:0006f633       ?Serialize@?$CList@UAFX_AUTOHIDE_DOCKSITE_SAVE_INFO@@AAU1@@@UAEXAAVCArchive@@@Z 00470633 f i nafxcw:afxdockingmanager.obj
 0001:0006f6d2       ?Serialize@?$CMap@IIPAUHICON__@@PAU1@@@UAEXAAVCArchive@@@Z 004706d2 f i nafxcw:afxtabctrl.obj
 0001:0006f6d2       ?Serialize@?$CMap@IIHH@@UAEXAAVCArchive@@@Z 004706d2 f i nafxcw:afxtoolbar.obj
 0001:0006f6d2       ?Serialize@?$CMap@IIPAVCPane@@PAV1@@@UAEXAAVCArchive@@@Z 004706d2 f i nafxcw:afxdockingmanager.obj
 0001:0006f6d2       ?Serialize@?$CMap@IIPAUHWND__@@PAU1@@@UAEXAAVCArchive@@@Z 004706d2 f i nafxcw:afxpaneframewnd.obj
 0001:0006f6d2       ?Serialize@?$CMap@IIPAVCMFCRibbonStatusBarPane@@PAV1@@@UAEXAAVCArchive@@@Z 004706d2 f i nafxcw:afxribbonstatusbarpane.obj
 0001:0006f77a       ?SaveState@CDockingManager@@UAEHPBDI@Z 0047077a f   nafxcw:afxdockingmanager.obj
 0001:0006f9d6       ?LoadState@CDockingManager@@UAEHPBDI@Z 004709d6 f   nafxcw:afxdockingmanager.obj
 0001:0006fd34       ?Serialize@CDockingManager@@UAEXAAVCArchive@@@Z 00470d34 f   nafxcw:afxdockingmanager.obj
 0001:00070546       ?BuildPanesMenu@CDockingManager@@QAEXAAVCMenu@@H@Z 00471546 f   nafxcw:afxdockingmanager.obj
 0001:00070b87       ?OnPaneContextMenu@CDockingManager@@QAEXVCPoint@@@Z 00471b87 f   nafxcw:afxdockingmanager.obj
 0001:00070c53       ?RemoveAll@CMapWordToOb@@QAEXXZ 00471c53 f   nafxcw:map_wo.obj
 0001:00070c53       ?RemoveAll@CMapPtrToPtr@@QAEXXZ 00471c53 f   nafxcw:map_pp.obj
 0001:00070c80       ?GetRuntimeClass@CMapWordToOb@@UBEPAUCRuntimeClass@@XZ 00471c80 f   nafxcw:map_wo.obj
 0001:00070c86       ??$HashKey@G@@YGIG@Z       00471c86 f i nafxcw:map_wo.obj
 0001:00070cb7       ??0CMapWordToOb@@QAE@H@Z   00471cb7 f   nafxcw:map_wo.obj
 0001:00070cea       ??1CMapWordToOb@@UAE@XZ    00471cea f   nafxcw:map_wo.obj
 0001:00070cf5       ?NewAssoc@CMapWordToOb@@IAEPAUCAssoc@1@XZ 00471cf5 f   nafxcw:map_wo.obj
 0001:00070d41       ?GetAssocAt@CMapWordToOb@@IBEPAUCAssoc@1@GAAI0@Z 00471d41 f   nafxcw:map_wo.obj
 0001:00070d82       ?Lookup@CMapWordToOb@@QBEHGAAPAVCObject@@@Z 00471d82 f   nafxcw:map_wo.obj
 0001:00070dab       ??ACMapWordToOb@@QAEAAPAVCObject@@G@Z 00471dab f   nafxcw:map_wo.obj
 0001:00070e00       ?GetNextAssoc@CMapWordToOb@@QBEXAAPAU__POSITION@@AAGAAPAVCObject@@@Z 00471e00 f   nafxcw:map_wo.obj
 0001:00070e85       ?CreateObject@CMapWordToOb@@SGPAVCObject@@XZ 00471e85 f   nafxcw:map_wo.obj
 0001:00070e9e       ??_ECMapWordToOb@@UAEPAXI@Z 00471e9e f i nafxcw:map_wo.obj
 0001:00070e9e       ??_GCMapWordToOb@@UAEPAXI@Z 00471e9e f i nafxcw:map_wo.obj
 0001:00070ec5       ?Serialize@CMapWordToOb@@UAEXAAVCArchive@@@Z 00471ec5 f   nafxcw:map_wo.obj
 0001:00070f67       ?GetRuntimeClass@CMFCShellListCtrl@@UBEPAUCRuntimeClass@@XZ 00471f67 f   nafxcw:afxshelllistctrl.obj
 0001:00070f6d       ??0CMFCShellListCtrl@@QAE@XZ 00471f6d f   nafxcw:afxshelllistctrl.obj
 0001:00070fb5       ?GetHeaderCtrl@CMFCListCtrl@@UAEAAVCMFCHeaderCtrl@@XZ 00471fb5 f i nafxcw:afxshelllistctrl.obj
 0001:00070fb9       ?ReleaseCurrFolder@CMFCShellListCtrl@@IAEXXZ 00471fb9 f   nafxcw:afxshelllistctrl.obj
 0001:00070ff4       ?GetShellImageList@CMFCShellListCtrl@@IAEPAU_IMAGELIST@@H@Z 00471ff4 f   nafxcw:afxshelllistctrl.obj
 0001:0007105a       ?LockCurrentFolder@CMFCShellListCtrl@@IAEJPAU_AFX_SHELLITEMINFO@@@Z 0047205a f   nafxcw:afxshelllistctrl.obj
 0001:000710e0       ?DisplayParentFolder@CMFCShellListCtrl@@UAEJXZ 004720e0 f   nafxcw:afxshelllistctrl.obj
 0001:0007117a       ?DisplayFolder@CMFCShellListCtrl@@UAEJPBD@Z 0047217a f   nafxcw:afxshelllistctrl.obj
 0001:00071209       ?Refresh@CMFCShellListCtrl@@UAEJXZ 00472209 f   nafxcw:afxshelllistctrl.obj
 0001:00071214       ?OnDeleteitem@CMFCShellListCtrl@@IAEXPAUtagNMHDR@@PAJ@Z 00472214 f   nafxcw:afxshelllistctrl.obj
 0001:00071266       ?OnGetItemIcon@CMFCShellListCtrl@@UAEHHPAU_AFX_SHELLITEMINFO@@@Z 00472266 f   nafxcw:afxshelllistctrl.obj
 0001:000712c2       ?GetRelatedTree@CMFCShellListCtrl@@IBEPAVCMFCShellTreeCtrl@@XZ 004722c2 f   nafxcw:afxshelllistctrl.obj
 0001:000712e1       ?WindowProc@CMFCShellListCtrl@@MAEJIIJ@Z 004722e1 f   nafxcw:afxshelllistctrl.obj
 0001:00071325       ??MCTime@ATL@@QBE_NV01@@Z  00472325 f i nafxcw:afxshelllistctrl.obj
 0001:00071346       ??OCTime@ATL@@QBE_NV01@@Z  00472346 f i nafxcw:afxshelllistctrl.obj
 0001:00071367       ?SetImageList@CListCtrl@@QAEPAVCImageList@@PAV2@H@Z 00472367 f i nafxcw:afxshelllistctrl.obj
 0001:00071392       ?OnGetCellTextColor@CMFCListCtrl@@UAEKHH@Z 00472392 f i nafxcw:afxshelllistctrl.obj
 0001:000713a7       ?OnGetCellBkColor@CMFCListCtrl@@UAEKHH@Z 004723a7 f i nafxcw:afxshelllistctrl.obj
 0001:000713bc       ??_GCMFCShellListCtrl@@UAEPAXI@Z 004723bc f i nafxcw:afxshelllistctrl.obj
 0001:000713bc       ??_ECMFCShellListCtrl@@UAEPAXI@Z 004723bc f i nafxcw:afxshelllistctrl.obj
 0001:000713e3       ?DoDefault@CMFCShellListCtrl@@MAEXH@Z 004723e3 f   nafxcw:afxshelllistctrl.obj
 0001:000715b1       ?OnReturn@CMFCShellListCtrl@@IAEXPAUtagNMHDR@@PAJ@Z 004725b1 f   nafxcw:afxshelllistctrl.obj
 0001:000715b1       ?OnDblClk@CMFCShellListCtrl@@IAEXPAUtagNMHDR@@PAJ@Z 004725b1 f   nafxcw:afxshelllistctrl.obj
 0001:000715e6       ?OnCompareItems@CMFCShellListCtrl@@UAEHJJH@Z 004725e6 f   nafxcw:afxshelllistctrl.obj
 0001:00071827       ?OnSetColumns@CMFCShellListCtrl@@UAEXXZ 00472827 f   nafxcw:afxshelllistctrl.obj
 0001:000718a9       ?InitList@CMFCShellListCtrl@@IAEHXZ 004728a9 f   nafxcw:afxshelllistctrl.obj
 0001:0007194d       ?OnContextMenu@CMFCShellListCtrl@@IAEXPAVCWnd@@VCPoint@@@Z 0047294d f   nafxcw:afxshelllistctrl.obj
 0001:00071cf9       ?OnDestroy@CMFCShellListCtrl@@IAEXXZ 00472cf9 f   nafxcw:afxshelllistctrl.obj
 0001:00071d1a       ?OnCreate@CMFCShellListCtrl@@IAEHPAUtagCREATESTRUCTA@@@Z 00472d1a f   nafxcw:afxshelllistctrl.obj
 0001:00071d46       ?PreSubclassWindow@CMFCShellListCtrl@@MAEXXZ 00472d46 f   nafxcw:afxshelllistctrl.obj
 0001:00071d65       ?EnumObjects@CMFCShellListCtrl@@MAEJPAUIShellFolder@@PAU_ITEMIDLIST@@@Z 00472d65 f   nafxcw:afxshelllistctrl.obj
 0001:00071f2d       ?OnInitControl@CMFCShellListCtrl@@IAEJIJ@Z 00472f2d f   nafxcw:afxshelllistctrl.obj
 0001:00071fe9       ?DisplayFolder@CMFCShellListCtrl@@UAEJPAU_AFX_SHELLITEMINFO@@@Z 00472fe9 f   nafxcw:afxshelllistctrl.obj
 0001:0007211b       ?GetMessageMap@CMFCShellListCtrl@@MBEPBUAFX_MSGMAP@@XZ 0047311b f   nafxcw:afxshelllistctrl.obj
 0001:00072121       ?OnGetItemText@CMFCShellListCtrl@@UAE?AV?$CStringT@DV?$StrTraitMFC@DV?$ChTraitsCRT@D@ATL@@@@@ATL@@HHPAU_AFX_SHELLITEMINFO@@@Z 00473121 f   nafxcw:afxshelllistctrl.obj
 0001:000722a6       ?OnFormatFileSize@CMFCShellListCtrl@@UAEX_JAAV?$CStringT@DV?$StrTraitMFC@DV?$ChTraitsCRT@D@ATL@@@@@ATL@@@Z 004732a6 f   nafxcw:afxshelllistctrl.obj
 0001:000723f1       ?OnFormatFileDate@CMFCShellListCtrl@@UAEXABVCTime@ATL@@AAV?$CStringT@DV?$StrTraitMFC@DV?$ChTraitsCRT@D@ATL@@@@@3@@Z 004733f1 f   nafxcw:afxshelllistctrl.obj
 0001:00072453       __freea                    00473453 f i nafxcw:afxtagmanager.obj
 0001:00072473       ??1CTagManager@@UAE@XZ     00473473 f   nafxcw:afxtagmanager.obj
 0001:00072484       ??_ECTagManager@@UAEPAXI@Z 00473484 f i nafxcw:afxtagmanager.obj
 0001:00072484       ??_GCTagManager@@UAEPAXI@Z 00473484 f i nafxcw:afxtagmanager.obj
 0001:000724a5       ?SetBuffer@CTagManager@@QAEXPBD@Z 004734a5 f   nafxcw:afxtagmanager.obj
 0001:000724c3       ??0CTagManager@@QAE@PBD@Z  004734c3 f   nafxcw:afxtagmanager.obj
 0001:00072500       ?ExcludeTag@CTagManager@@QAEHPBDAAV?$CStringT@DV?$StrTraitMFC@DV?$ChTraitsCRT@D@ATL@@@@@ATL@@H@Z 00473500 f   nafxcw:afxtagmanager.obj
 0001:000727d0       ??0CVSListBoxEditCtrl@@QAE@XZ 004737d0 f   nafxcw:afxvslistbox.obj
 0001:000727f2       ??1CVSListBoxEditCtrl@@UAE@XZ 004737f2 f   nafxcw:afxvslistbox.obj
 0001:000727fd       ?OnNcCalcSize@CVSListBoxEditCtrl@@IAEXHPAUtagNCCALCSIZE_PARAMS@@@Z 004737fd f   nafxcw:afxvslistbox.obj
 0001:00072815       ?OnSetFocus@CVSListBoxBase@@IAEXPAVCWnd@@@Z 00473815 f   nafxcw:afxvslistbox.obj
 0001:00072831       ?OnKey@CVSListBoxBase@@UAEXGE@Z 00473831 f   nafxcw:afxvslistbox.obj
 0001:00072877       ?OnGetDlgCode@CVSListBoxBase@@IAEIXZ 00473877 f   nafxcw:afxvslistbox.obj
 0001:0007287b       ?OnDblclkList@CVSListBox@@IAEXPAUtagNMHDR@@PAJ@Z 0047387b f   nafxcw:afxvslistbox.obj
 0001:000728bf       ?OnGetdispinfo@CVSListBox@@IAEXPAUtagNMHDR@@PAJ@Z 004738bf f   nafxcw:afxvslistbox.obj
 0001:000728f4       ?OnItemChanged@CVSListBox@@IAEXPAUtagNMHDR@@PAJ@Z 004738f4 f   nafxcw:afxvslistbox.obj
 0001:00072928       ??0?$CList@PAVCMFCButton@@PAV1@@@QAE@H@Z 00473928 f i nafxcw:afxvslistbox.obj
 0001:00072950       ??0?$CList@KK@@QAE@H@Z     00473950 f i nafxcw:afxvslistbox.obj
 0001:00072978       ??0?$CMap@HHII@@QAE@H@Z    00473978 f i nafxcw:afxvslistbox.obj
 0001:000729a4       ?NewNode@?$CList@PAVIControlSiteFactory@@PAV1@@@IAEPAUCNode@1@PAU21@0@Z 004739a4 f i nafxcw:occmgr.obj
 0001:000729a4       ?NewNode@?$CList@IAAI@@IAEPAUCNode@1@PAU21@0@Z 004739a4 f i nafxcw:afxdockingmanager.obj
 0001:000729a4       ?NewNode@?$CList@PAVCMDIChildWndEx@@PAV1@@@IAEPAUCNode@1@PAU21@0@Z 004739a4 f i nafxcw:afxmdiclientareawnd.obj
 0001:000729a4       ?NewNode@?$CList@PAVCFrameWnd@@PAV1@@@IAEPAUCNode@1@PAU21@0@Z 004739a4 f i nafxcw:afxframeimpl.obj
 0001:000729a4       ?NewNode@?$CList@PAUHWND__@@AAPAU1@@@IAEPAUCNode@1@PAU21@0@Z 004739a4 f i nafxcw:afxdockingmanager.obj
 0001:000729a4       ?NewNode@?$CList@II@@IAEPAUCNode@1@PAU21@0@Z 004739a4 f i nafxcw:afxtoolbar.obj
 0001:000729a4       ?NewNode@?$CList@PAVCMFCPropertyGridProperty@@PAV1@@@IAEPAUCNode@1@PAU21@0@Z 004739a4 f i nafxcw:afxpropertygridctrl.obj
 0001:000729a4       ?NewNode@?$CList@PAUHINSTANCE__@@PAU1@@@IAEPAUCNode@1@PAU21@0@Z 004739a4 f i nafxcw:afxtoolbarimages.obj
 0001:000729a4       ?NewNode@?$CList@PAVCMFCButton@@PAV1@@@IAEPAUCNode@1@PAU21@0@Z 004739a4 f i nafxcw:afxvslistbox.obj
 0001:000729a4       ?NewNode@?$CList@PAU_ITEMIDLIST@@PAU1@@@IAEPAUCNode@1@PAU21@0@Z 004739a4 f i nafxcw:afxshelltreectrl.obj
 0001:000729a4       ?NewNode@?$CList@KK@@IAEPAUCNode@1@PAU21@0@Z 004739a4 f i nafxcw:afxvslistbox.obj
 0001:000729a4       ?NewNode@?$CList@PAVCPropertyPage@@PAV1@@@IAEPAUCNode@1@PAU21@0@Z 004739a4 f i nafxcw:afxtoolbarscustomizedialog.obj
 0001:000729a4       ?NewNode@?$CList@PAUHWND__@@PAU1@@@IAEPAUCNode@1@PAU21@0@Z 004739a4 f i nafxcw:winfrm.obj
 0001:00072a01       ?EditLabel@CListCtrl@@QAEPAVCEdit@@H@Z 00473a01 f i nafxcw:afxvslistbox.obj
 0001:00072a23       ?GetEditControl@CListCtrl@@QBEPAVCEdit@@XZ 00473a23 f i nafxcw:afxvslistbox.obj
 0001:00072a3c       ?OnBrowse@CVSListBoxEditCtrl@@MAEXXZ 00473a3c f i nafxcw:afxvslistbox.obj
 0001:00072a68       ??_GCVSListBoxEditCtrl@@UAEPAXI@Z 00473a68 f i nafxcw:afxvslistbox.obj
 0001:00072a68       ??_ECVSListBoxEditCtrl@@UAEPAXI@Z 00473a68 f i nafxcw:afxvslistbox.obj
 0001:00072a8f       ?OnWindowPosChanging@CVSListBoxEditCtrl@@IAEXPAUtagWINDOWPOS@@@Z 00473a8f f   nafxcw:afxvslistbox.obj
 0001:00072aad       ?OnKeyDown@CVSListBoxEditCtrl@@IAEXIII@Z 00473aad f   nafxcw:afxvslistbox.obj
 0001:00072b05       ?AdjustLayout@CVSListBoxBase@@IAEXXZ 00473b05 f   nafxcw:afxvslistbox.obj
 0001:00072ce6       ?OnCommand@CVSListBoxBase@@MAEHIJ@Z 00473ce6 f   nafxcw:afxvslistbox.obj
 0001:00072d4f       ?OnGetFont@CVSListBoxBase@@IAEJIJ@Z 00473d4f f   nafxcw:afxvslistbox.obj
 0001:00072d5f       ?OnSetFont@CVSListBoxBase@@IAEJIJ@Z 00473d5f f   nafxcw:afxvslistbox.obj
 0001:00072e06       ?GetButtonNum@CVSListBoxBase@@QBEHI@Z 00473e06 f   nafxcw:afxvslistbox.obj
 0001:00072e5a       ?OnEnable@CVSListBoxBase@@IAEXH@Z 00473e5a f   nafxcw:afxvslistbox.obj
 0001:00072ed1       ?OnCreateList@CVSListBox@@MAEPAVCWnd@@XZ 00473ed1 f   nafxcw:afxvslistbox.obj
 0001:00072fa0       ?AddItem@CVSListBox@@UAEHABV?$CStringT@DV?$StrTraitMFC@DV?$ChTraitsCRT@D@ATL@@@@@ATL@@KH@Z 00473fa0 f   nafxcw:afxvslistbox.obj
 0001:00073027       ?GetCount@CVSListBox@@UBEHXZ 00474027 f   nafxcw:afxvslistbox.obj
 0001:00073052       ?GetItemData@CVSListBox@@UBEKH@Z 00474052 f   nafxcw:afxvslistbox.obj
 0001:00073077       ?SetItemData@CVSListBox@@UAEXHK@Z 00474077 f   nafxcw:afxvslistbox.obj
 0001:000730a7       ?OnKeyDown@CVSListBox@@IAEXPAUtagNMHDR@@PAJ@Z 004740a7 f   nafxcw:afxvslistbox.obj
 0001:00073145       ?GetSelItem@CVSListBox@@UBEHXZ 00474145 f   nafxcw:afxvslistbox.obj
 0001:00073170       ?SelectItem@CVSListBox@@UAEHH@Z 00474170 f   nafxcw:afxvslistbox.obj
 0001:000731be       ?RemoveItem@CVSListBox@@UAEHH@Z 004741be f   nafxcw:afxvslistbox.obj
 0001:00073244       ?OnEndLabelEdit@CVSListBox@@IAEXPAUtagNMHDR@@PAJ@Z 00474244 f   nafxcw:afxvslistbox.obj
 0001:0007328c       ?EditItem@CVSListBox@@UAEHH@Z 0047428c f   nafxcw:afxvslistbox.obj
 0001:000733b7       ?OnSizeList@CVSListBox@@MAEXXZ 004743b7 f   nafxcw:afxvslistbox.obj
 0001:0007343d       ?SetItemText@CVSListBox@@MAEXHABV?$CStringT@DV?$StrTraitMFC@DV?$ChTraitsCRT@D@ATL@@@@@ATL@@@Z 0047443d f   nafxcw:afxvslistbox.obj
 0001:00073469       ?PreTranslateMessage@CVSListBox@@UAEHPAUtagMSG@@@Z 00474469 f   nafxcw:afxvslistbox.obj
 0001:00073654       ??1?$CList@PAVCMFCButton@@PAV1@@@UAE@XZ 00474654 f i nafxcw:afxvslistbox.obj
 0001:0007365f       ?AddTail@?$CList@PAVCMDIChildWndEx@@PAV1@@@QAEPAU__POSITION@@PAVCMDIChildWndEx@@@Z 0047465f f i nafxcw:afxmdiclientareawnd.obj
 0001:0007365f       ?AddTail@?$CList@PAVCPropertyPage@@PAV1@@@QAEPAU__POSITION@@PAVCPropertyPage@@@Z 0047465f f i nafxcw:afxtoolbarscustomizedialog.obj
 0001:0007365f       ?AddTail@?$CList@PAVCMFCPropertyGridProperty@@PAV1@@@QAEPAU__POSITION@@PAVCMFCPropertyGridProperty@@@Z 0047465f f i nafxcw:afxpropertygridctrl.obj
 0001:0007365f       ?AddTail@?$CList@PAUHINSTANCE__@@PAU1@@@QAEPAU__POSITION@@PAUHINSTANCE__@@@Z 0047465f f i nafxcw:afxtoolbarimages.obj
 0001:0007365f       ?AddTail@?$CList@KK@@QAEPAU__POSITION@@K@Z 0047465f f i nafxcw:afxvslistbox.obj
 0001:0007365f       ?AddTail@?$CList@PAVIControlSiteFactory@@PAV1@@@QAEPAU__POSITION@@PAVIControlSiteFactory@@@Z 0047465f f i nafxcw:occmgr.obj
 0001:0007365f       ?AddTail@?$CList@PAVCMFCButton@@PAV1@@@QAEPAU__POSITION@@PAVCMFCButton@@@Z 0047465f f i nafxcw:afxvslistbox.obj
 0001:0007365f       ?AddTail@?$CList@II@@QAEPAU__POSITION@@I@Z 0047465f f i nafxcw:afxtoolbar.obj
 0001:0007365f       ?AddTail@?$CList@PAUHWND__@@PAU1@@@QAEPAU__POSITION@@PAUHWND__@@@Z 0047465f f i nafxcw:winfrm.obj
 0001:0007365f       ?AddTail@?$CList@PAU_ITEMIDLIST@@PAU1@@@QAEPAU__POSITION@@PAU_ITEMIDLIST@@@Z 0047465f f i nafxcw:afxshelltreectrl.obj
 0001:0007365f       ?AddTail@?$CList@PAVCFrameWnd@@PAV1@@@QAEPAU__POSITION@@PAVCFrameWnd@@@Z 0047465f f i nafxcw:afxframeimpl.obj
 0001:0007368d       ??1?$CList@KK@@UAE@XZ      0047468d f i nafxcw:afxvslistbox.obj
 0001:00073698       ?Serialize@?$CList@KK@@UAEXAAVCArchive@@@Z 00474698 f i nafxcw:afxvslistbox.obj
 0001:00073698       ?Serialize@?$CList@II@@UAEXAAVCArchive@@@Z 00474698 f i nafxcw:afxtoolbar.obj
 0001:000736fc       ??1?$CMap@HHII@@UAE@XZ     004746fc f i nafxcw:afxvslistbox.obj
 0001:00073707       ??_E?$CList@PAVCMFCButton@@PAV1@@@UAEPAXI@Z 00474707 f i nafxcw:afxvslistbox.obj
 0001:00073707       ??_G?$CList@PAVCMFCButton@@PAV1@@@UAEPAXI@Z 00474707 f i nafxcw:afxvslistbox.obj
 0001:0007372e       ??_E?$CList@KK@@UAEPAXI@Z  0047472e f i nafxcw:afxvslistbox.obj
 0001:0007372e       ??_G?$CList@KK@@UAEPAXI@Z  0047472e f i nafxcw:afxvslistbox.obj
 0001:00073755       ??_E?$CMap@HHII@@UAEPAXI@Z 00474755 f i nafxcw:afxvslistbox.obj
 0001:00073755       ??_G?$CMap@HHII@@UAEPAXI@Z 00474755 f i nafxcw:afxvslistbox.obj
 0001:0007377c       ?Init@CVSListBoxBase@@IAEXXZ 0047477c f   nafxcw:afxvslistbox.obj
 0001:000737a4       ?OnSize@CVSListBoxBase@@IAEXIHH@Z 004747a4 f   nafxcw:afxvslistbox.obj
 0001:000737b9       ?GetMessageMap@CVSListBoxEditCtrl@@MBEPBUAFX_MSGMAP@@XZ 004747b9 f   nafxcw:afxvslistbox.obj
 0001:000737bf       ?PreSubclassWindow@CVSListBoxBase@@MAEXXZ 004747bf f   nafxcw:afxvslistbox.obj
 0001:000737de       ?OnCreate@CVSListBoxBase@@IAEHPAUtagCREATESTRUCTA@@@Z 004747de f   nafxcw:afxvslistbox.obj
 0001:000737fe       ?GetButtonID@CVSListBoxBase@@QBEIH@Z 004747fe f   nafxcw:afxvslistbox.obj
 0001:00073821       ?OnClickButton@CVSListBoxBase@@UAEXH@Z 00474821 f   nafxcw:afxvslistbox.obj
 0001:000739ac       ?Serialize@?$CMap@HHII@@UAEXAAVCArchive@@@Z 004749ac f i nafxcw:afxvslistbox.obj
 0001:00073a54       ??0CVSListBoxBase@@IAE@XZ  00474a54 f   nafxcw:afxvslistbox.obj
 0001:00073b0a       ?OnGetImage@CVSListBoxBase@@UAEHPAUtagLVITEMA@@@Z 00474b0a f i nafxcw:afxvslistbox.obj
 0001:00073b10       ??1CVSListBoxBase@@UAE@XZ  00474b10 f   nafxcw:afxvslistbox.obj
 0001:00073bbe       ?OnPaint@CVSListBoxBase@@IAEXXZ 00474bbe f   nafxcw:afxvslistbox.obj
 0001:00073d0a       ??0CVSListBox@@QAE@XZ      00474d0a f   nafxcw:afxvslistbox.obj
 0001:00073d63       ?GetListHwnd@CVSListBox@@MBEPAUHWND__@@XZ 00474d63 f i nafxcw:afxvslistbox.obj
 0001:00073d72       ??1CVSListBox@@UAE@XZ      00474d72 f   nafxcw:afxvslistbox.obj
 0001:00073dc5       ??_GCVSListBoxBase@@UAEPAXI@Z 00474dc5 f i nafxcw:afxvslistbox.obj
 0001:00073dc5       ??_ECVSListBoxBase@@UAEPAXI@Z 00474dc5 f i nafxcw:afxvslistbox.obj
 0001:00073de6       ?OnSetText@CVSListBoxBase@@IAEJIJ@Z 00474de6 f   nafxcw:afxvslistbox.obj
 0001:00073e38       ?AddButton@CVSListBoxBase@@QAEHIPBDGEI@Z 00474e38 f   nafxcw:afxvslistbox.obj
 0001:0007405e       ?CreateNewItem@CVSListBoxBase@@MAEXXZ 0047505e f   nafxcw:afxvslistbox.obj
 0001:000740bb       ?OnEndEditLabel@CVSListBoxBase@@UAEXPBD@Z 004750bb f   nafxcw:afxvslistbox.obj
 0001:00074151       ?GetItemText@CVSListBox@@UBE?AV?$CStringT@DV?$StrTraitMFC@DV?$ChTraitsCRT@D@ATL@@@@@ATL@@H@Z 00475151 f   nafxcw:afxvslistbox.obj
 0001:00074192       ?GetMessageMap@CVSListBoxBase@@MBEPBUAFX_MSGMAP@@XZ 00475192 f   nafxcw:afxvslistbox.obj
 0001:00074192       ?GetThisMessageMap@CVSListBoxBase@@KGPBUAFX_MSGMAP@@XZ 00475192 f   nafxcw:afxvslistbox.obj
 0001:00074198       ?SetStandardButtons@CVSListBoxBase@@QAEHI@Z 00475198 f   nafxcw:afxvslistbox.obj
 0001:00074336       ?OnInitControl@CVSListBox@@IAEJIJ@Z 00475336 f   nafxcw:afxvslistbox.obj
 0001:00074485       ?GetMessageMap@CVSListBox@@MBEPBUAFX_MSGMAP@@XZ 00475485 f   nafxcw:afxvslistbox.obj
 0001:0007448b       ?GetRuntimeClass@CMFCShellTreeCtrl@@UBEPAUCRuntimeClass@@XZ 0047548b f   nafxcw:afxshelltreectrl.obj
 0001:00074491       ?GetRelatedList@CMFCShellTreeCtrl@@QBEPAVCMFCShellListCtrl@@XZ 00475491 f   nafxcw:afxshelltreectrl.obj
 0001:000744c3       ?CompareProc@CMFCShellTreeCtrl@@KGHJJJ@Z 004754c3 f   nafxcw:afxshelltreectrl.obj
 0001:000744ed       ?OnGetItemIcon@CMFCShellTreeCtrl@@UAEHPAU_AFX_SHELLITEMINFO@@H@Z 004754ed f   nafxcw:afxshelltreectrl.obj
 0001:00074554       ?OnDeleteitem@CMFCShellTreeCtrl@@IAEXPAUtagNMHDR@@PAJ@Z 00475554 f   nafxcw:afxshelltreectrl.obj
 0001:000745a3       ?OnDestroy@CMFCShellTreeCtrl@@IAEXXZ 004755a3 f   nafxcw:afxshelltreectrl.obj
 0001:000745c0       ?WindowProc@CMFCShellTreeCtrl@@MAEJIIJ@Z 004755c0 f   nafxcw:afxshelltreectrl.obj
 0001:00074604       ?DeleteAllItems@CTreeCtrl@@QAEHXZ 00475604 f i nafxcw:afxshelltreectrl.obj
 0001:0007461a       ?SetImageList@CTreeCtrl@@QAEPAVCImageList@@PAV2@H@Z 0047561a f i nafxcw:afxshelltreectrl.obj
 0001:00074645       ??0CMFCShellTreeCtrl@@QAE@XZ 00475645 f   nafxcw:afxshelltreectrl.obj
 0001:00074672       ??_ECMFCShellTreeCtrl@@UAEPAXI@Z 00475672 f i nafxcw:afxshelltreectrl.obj
 0001:00074672       ??_GCMFCShellTreeCtrl@@UAEPAXI@Z 00475672 f i nafxcw:afxshelltreectrl.obj
 0001:00074699       ?OnRButtonDown@CMFCShellTreeCtrl@@IAEXIVCPoint@@@Z 00475699 f   nafxcw:afxshelltreectrl.obj
 0001:000746d2       ?OnChildNotify@CMFCShellTreeCtrl@@UAEHIIJPAJ@Z 004756d2 f   nafxcw:afxshelltreectrl.obj
 0001:0007476f       ??1?$CList@PAU_ITEMIDLIST@@PAU1@@@UAE@XZ 0047576f f i nafxcw:afxshelltreectrl.obj
 0001:0007477a       ??_E?$CList@PAU_ITEMIDLIST@@PAU1@@@UAEPAXI@Z 0047577a f i nafxcw:afxshelltreectrl.obj
 0001:0007477a       ??_G?$CList@PAU_ITEMIDLIST@@PAU1@@@UAEPAXI@Z 0047577a f i nafxcw:afxshelltreectrl.obj
 0001:000747a1       ?SelectPath@CMFCShellTreeCtrl@@QAEHPBU_ITEMIDLIST@@@Z 004757a1 f   nafxcw:afxshelltreectrl.obj
 0001:00074a96       ?GetRootItems@CMFCShellTreeCtrl@@IAEHXZ 00475a96 f   nafxcw:afxshelltreectrl.obj
 0001:00074bbf       ?EnumObjects@CMFCShellTreeCtrl@@MAEJPAU_TREEITEM@@PAUIShellFolder@@PAU_ITEMIDLIST@@@Z 00475bbf f   nafxcw:afxshelltreectrl.obj
 0001:00074d72       ?Refresh@CMFCShellTreeCtrl@@QAEXXZ 00475d72 f   nafxcw:afxshelltreectrl.obj
 0001:00074d9c       ?InitTree@CMFCShellTreeCtrl@@IAEXXZ 00475d9c f   nafxcw:afxshelltreectrl.obj
 0001:00074e0e       ?OnInitControl@CMFCShellTreeCtrl@@IAEJIJ@Z 00475e0e f   nafxcw:afxshelltreectrl.obj
 0001:00074ec7       ?OnCreate@CMFCShellTreeCtrl@@IAEHPAUtagCREATESTRUCTA@@@Z 00475ec7 f   nafxcw:afxshelltreectrl.obj
 0001:00074ef1       ?GetChildItems@CMFCShellTreeCtrl@@IAEHPAU_TREEITEM@@@Z 00475ef1 f   nafxcw:afxshelltreectrl.obj
 0001:00075024       ?OnShowContextMenu@CMFCShellTreeCtrl@@IAEXVCPoint@@@Z 00476024 f   nafxcw:afxshelltreectrl.obj
 0001:000752dc       ?OnItemexpanding@CMFCShellTreeCtrl@@IAEXPAUtagNMHDR@@PAJ@Z 004762dc f   nafxcw:afxshelltreectrl.obj
 0001:000753a8       ?OnContextMenu@CMFCShellTreeCtrl@@IAEXPAVCWnd@@VCPoint@@@Z 004763a8 f   nafxcw:afxshelltreectrl.obj
 0001:000753c9       ?PreSubclassWindow@CMFCShellTreeCtrl@@MAEXXZ 004763c9 f   nafxcw:afxshelltreectrl.obj
 0001:000753e8       ?GetMessageMap@CMFCShellTreeCtrl@@MBEPBUAFX_MSGMAP@@XZ 004763e8 f   nafxcw:afxshelltreectrl.obj
 0001:000753ee       ?OnGetItemText@CMFCShellTreeCtrl@@UAE?AV?$CStringT@DV?$StrTraitMFC@DV?$ChTraitsCRT@D@ATL@@@@@ATL@@PAU_AFX_SHELLITEMINFO@@@Z 004763ee f   nafxcw:afxshelltreectrl.obj
 0001:00075460       ??0CMFCColorPopupMenu@@QAE@PAVCMFCColorButton@@ABV?$CArray@KK@@KPBD22AAV?$CList@KK@@HK@Z 00476460 f i nafxcw:afxpropertygridctrl.obj
 0001:000754bd       ?GetMenuBar@CMFCColorPopupMenu@@UAEPAVCMFCPopupMenuBar@@XZ 004764bd f i nafxcw:afxpropertygridctrl.obj
 0001:000754bd       ?GetMenuBar@CMFCRibbonPanelMenu@@UAEPAVCMFCPopupMenuBar@@XZ 004764bd f i nafxcw:afxribbonminitoolbar.obj
 0001:000754c4       ??_GCMFCColorPopupMenu@@UAEPAXI@Z 004764c4 f i nafxcw:afxpropertygridctrl.obj
 0001:000754c4       ??_ECMFCColorPopupMenu@@UAEPAXI@Z 004764c4 f i nafxcw:afxpropertygridctrl.obj
 0001:000754e5       ?IsParentExpanded@CMFCPropertyGridProperty@@QBEHXZ 004764e5 f   nafxcw:afxpropertygridctrl.obj
 0001:00075502       ?GetHierarchyLevel@CMFCPropertyGridProperty@@QBEHXZ 00476502 f   nafxcw:afxpropertygridctrl.obj
 0001:00075512       ?GetRuntimeClass@CMFCPropertyGridCtrl@@UBEPAUCRuntimeClass@@XZ 00476512 f   nafxcw:afxpropertygridctrl.obj
 0001:00075518       ?PreSubclassWindow@CMFCPropertyGridCtrl@@MAEXXZ 00476518 f   nafxcw:afxpropertygridctrl.obj
 0001:0007553a       ?InitHeader@CMFCPropertyGridCtrl@@UAEXXZ 0047653a f   nafxcw:afxpropertygridctrl.obj
 0001:0007558e       ?OnGetFont@CMFCPropertyGridCtrl@@IAEJIJ@Z 0047658e f   nafxcw:afxpropertygridctrl.obj
 0001:000755a3       ?OnPaint@CMFCPropertyGridCtrl@@IAEXXZ 004765a3 f   nafxcw:afxpropertygridctrl.obj
 0001:000755de       ?OnUpdateSpin@CMFCPropertyGridCtrl@@IAEJIJ@Z 004765de f   nafxcw:afxpropertygridctrl.obj
 0001:00075600       ?OnGetDlgCode@CMFCPropertyGridCtrl@@IAEIXZ 00476600 f   nafxcw:afxpropertygridctrl.obj
 0001:00075606       ?OnSelectCombo@CMFCPropertyGridCtrl@@IAEXXZ 00476606 f   nafxcw:afxpropertygridctrl.obj
 0001:0007561d       ?OnCloseCombo@CMFCPropertyGridCtrl@@IAEXXZ 0047661d f   nafxcw:afxpropertygridctrl.obj
 0001:00075634       ?OnNotify@CMFCPropertyGridCtrl@@MAEHIJPAJ@Z 00476634 f   nafxcw:afxpropertygridctrl.obj
 0001:00075680       ?OnNcPaint@CMFCPropertyGridCtrl@@IAEXXZ 00476680 f   nafxcw:afxpropertygridctrl.obj
 0001:000756d4       ?OnGetObject@CMFCPropertyGridCtrl@@IAEJIJ@Z 004766d4 f   nafxcw:afxpropertygridctrl.obj
 0001:000756ee       ?get_accChildCount@CBasePane@@UAEJPAJ@Z 004766ee f   nafxcw:afxbasepane.obj
 0001:000756ee       ?get_accChildCount@CMFCPropertyGridCtrl@@UAEJPAJ@Z 004766ee f   nafxcw:afxpropertygridctrl.obj
 0001:0007570a       ?get_accChild@CMFCPropertyGridCtrl@@UAEJUtagVARIANT@@PAPAUIDispatch@@@Z 0047670a f   nafxcw:afxpropertygridctrl.obj
 0001:00075729       ?get_accRole@CMFCPropertyGridCtrl@@UAEJUtagVARIANT@@PAU2@@Z 00476729 f   nafxcw:afxpropertygridctrl.obj
 0001:0007576b       ?get_accState@CMFCPropertyGridCtrl@@UAEJUtagVARIANT@@PAU2@@Z 0047676b f   nafxcw:afxpropertygridctrl.obj
 0001:000757e4       ?get_accHelp@CMFCPropertyGridCtrl@@UAEJUtagVARIANT@@PAPA_W@Z 004767e4 f   nafxcw:afxpropertygridctrl.obj
 0001:000757e4       ?get_accKeyboardShortcut@CMFCPropertyGridCtrl@@UAEJUtagVARIANT@@PAPA_W@Z 004767e4 f   nafxcw:afxpropertygridctrl.obj
 0001:000757ea       ?get_accFocus@CMFCPropertyGridCtrl@@UAEJPAUtagVARIANT@@@Z 004767ea f   nafxcw:afxpropertygridctrl.obj
 0001:000757ea       ?get_accSelection@CBasePane@@UAEJPAUtagVARIANT@@@Z 004767ea f   nafxcw:afxbasepane.obj
 0001:000757ea       ?get_accFocus@CBasePane@@UAEJPAUtagVARIANT@@@Z 004767ea f   nafxcw:afxbasepane.obj
 0001:000757ea       ?get_accSelection@CMFCPropertyGridCtrl@@UAEJPAUtagVARIANT@@@Z 004767ea f   nafxcw:afxpropertygridctrl.obj
 0001:00075804       ?get_accDefaultAction@CMFCPropertyGridCtrl@@UAEJUtagVARIANT@@PAPA_W@Z 00476804 f   nafxcw:afxpropertygridctrl.obj
 0001:0007580c       ?accSelect@CMFCPropertyGridCtrl@@UAEJJUtagVARIANT@@@Z 0047680c f   nafxcw:afxpropertygridctrl.obj
 0001:0007580c       ?accSelect@CBasePane@@UAEJJUtagVARIANT@@@Z 0047680c f   nafxcw:afxbasepane.obj
 0001:0007583c       ?OnPrintClient@CMFCPropertyGridCtrl@@IAEJIJ@Z 0047683c f   nafxcw:afxpropertygridctrl.obj
 0001:00075864       ??1?$CArray@KK@@UAE@XZ     00476864 f i nafxcw:afxpropertygridctrl.obj
 0001:00075879       ??0?$CList@PAVCMFCPropertyGridProperty@@PAV1@@@QAE@H@Z 00476879 f i nafxcw:afxpropertygridctrl.obj
 0001:000758a1       ??1?$CList@PAVCMFCPropertyGridProperty@@PAV1@@@UAE@XZ 004768a1 f i nafxcw:afxpropertygridctrl.obj
 0001:000758ac       ??_G?$CArray@KK@@UAEPAXI@Z 004768ac f i nafxcw:afxpropertygridctrl.obj
 0001:000758ac       ??_E?$CArray@KK@@UAEPAXI@Z 004768ac f i nafxcw:afxpropertygridctrl.obj
 0001:000758cd       ??_E?$CList@PAVCMFCPropertyGridProperty@@PAV1@@@UAEPAXI@Z 004768cd f i nafxcw:afxpropertygridctrl.obj
 0001:000758cd       ??_G?$CList@PAVCMFCPropertyGridProperty@@PAV1@@@UAEPAXI@Z 004768cd f i nafxcw:afxpropertygridctrl.obj
 0001:000758f4       ?SetSize@?$CArray@HABH@@QAEXHH@Z 004768f4 f i nafxcw:winctrl3.obj
 0001:000758f4       ?SetSize@?$CArray@JJ@@QAEXHH@Z 004768f4 f i nafxcw:afxribboncolorbutton.obj
 0001:000758f4       ?SetSize@?$CArray@PAVCMFCRibbonPanel@@PAV1@@@QAEXHH@Z 004768f4 f i nafxcw:afxribboncategory.obj
 0001:000758f4       ?SetSize@?$CArray@KK@@QAEXHH@Z 004768f4 f i nafxcw:afxpropertygridctrl.obj
 0001:000758f4       ?SetSize@?$CArray@PAVCMFCRibbonBaseElement@@PAV1@@@QAEXHH@Z 004768f4 f i nafxcw:afxbaseribbonelement.obj
 0001:000758f4       ?SetSize@?$CArray@W4LoadArrayObjType@CArchive@@ABW412@@@QAEXHH@Z 004768f4 f i nafxcw:arcobj.obj
 0001:000758f4       ?SetSize@?$CArray@PAVCMFCRibbonKeyTip@@PAV1@@@QAEXHH@Z 004768f4 f i nafxcw:afxbaseribbonelement.obj
 0001:000758f4       ?SetSize@?$CArray@PAUHWND__@@PAU1@@@QAEXHH@Z 004768f4 f i nafxcw:winfrm.obj
 0001:000758f4       ?SetSize@?$CArray@HH@@QAEXHH@Z 004768f4 f i nafxcw:afxmenutearoffmanager.obj
 0001:00075a2f       ?SetBuddy@CSpinButtonCtrl@@QAEPAVCWnd@@PAV2@@Z 00476a2f f i nafxcw:afxpropertygridctrl.obj
 0001:00075a59       ?GetExpandedSubItems@CMFCPropertyGridProperty@@QBEHH@Z 00476a59 f   nafxcw:afxpropertygridctrl.obj
 0001:00075a9d       ?HitTest@CMFCPropertyGridProperty@@QAEPAV1@VCPoint@@PAW4ClickArea@1@@Z 00476a9d f   nafxcw:afxpropertygridctrl.obj
 0001:00075b3d       ?Expand@CMFCPropertyGridProperty@@QAEXH@Z 00476b3d f   nafxcw:afxpropertygridctrl.obj
 0001:00075bbe       ?Redraw@CMFCPropertyGridProperty@@QAEXXZ 00476bbe f   nafxcw:afxpropertygridctrl.obj
 0001:00075c3c       ?Reposition@CMFCPropertyGridProperty@@IAEXAAH@Z 00476c3c f   nafxcw:afxpropertygridctrl.obj
 0001:00075e24       ?SetModifiedFlag@CMFCPropertyGridProperty@@IAEXXZ 00476e24 f   nafxcw:afxpropertygridctrl.obj
 0001:00075fe5       ?OnCreate@CMFCPropertyGridCtrl@@IAEHPAUtagCREATESTRUCTA@@@Z 00476fe5 f   nafxcw:afxpropertygridctrl.obj
 0001:00076008       ?OnSize@CMFCPropertyGridCtrl@@IAEXIHH@Z 00477008 f   nafxcw:afxpropertygridctrl.obj
 0001:0007603e       ?CreateBoldFont@CMFCPropertyGridCtrl@@IAEXXZ 0047703e f   nafxcw:afxpropertygridctrl.obj
 0001:000760cf       ?CalcEditMargin@CMFCPropertyGridCtrl@@IAEXXZ 004770cf f   nafxcw:afxpropertygridctrl.obj
 0001:000761a7       ?SetCurrFont@CMFCPropertyGridCtrl@@IAEPAUHFONT__@@PAVCDC@@@Z 004771a7 f   nafxcw:afxpropertygridctrl.obj
 0001:000761d4       ?OnDraw@CMFCPropertyGridCtrl@@MAEXPAVCDC@@@Z 004771d4 f   nafxcw:afxpropertygridctrl.obj
 0001:000762f2       ?OnFillBackground@CMFCPropertyGridCtrl@@MAEXPAVCDC@@VCRect@@@Z 004772f2 f   nafxcw:afxpropertygridctrl.obj
 0001:00076324       ?EnableHeaderCtrl@CMFCPropertyGridCtrl@@QAEXHPBD0@Z 00477324 f   nafxcw:afxpropertygridctrl.obj
 0001:000763e0       ?EnableDescriptionArea@CMFCPropertyGridCtrl@@QAEXH@Z 004773e0 f   nafxcw:afxpropertygridctrl.obj
 0001:00076415       ?OnSpinDeltaPos@CMFCPropertyGridCtrl@@IAEXPAUtagNMHDR@@PAJ@Z 00477415 f   nafxcw:afxpropertygridctrl.obj
 0001:00076435       ?TrackHeader@CMFCPropertyGridCtrl@@IAEXH@Z 00477435 f   nafxcw:afxpropertygridctrl.obj
 0001:0007658a       ?TrackDescr@CMFCPropertyGridCtrl@@IAEXH@Z 0047758a f   nafxcw:afxpropertygridctrl.obj
 0001:0007665a       ?HitTest@CMFCPropertyGridCtrl@@QBEPAVCMFCPropertyGridProperty@@VCPoint@@PAW4ClickArea@2@H@Z 0047765a f   nafxcw:afxpropertygridctrl.obj
 0001:0007672d       ?SetCurSel@CMFCPropertyGridCtrl@@QAEXPAVCMFCPropertyGridProperty@@H@Z 0047772d f   nafxcw:afxpropertygridctrl.obj
 0001:0007692d       ?EditItem@CMFCPropertyGridCtrl@@UAEHPAVCMFCPropertyGridProperty@@PAUtagPOINT@@@Z 0047792d f   nafxcw:afxpropertygridctrl.obj
 0001:0007698e       ?EndEditItem@CMFCPropertyGridCtrl@@UAEHH@Z 0047798e f   nafxcw:afxpropertygridctrl.obj
 0001:00076a10       ?OnCancelMode@CMFCPropertyGridCtrl@@IAEXXZ 00477a10 f   nafxcw:afxpropertygridctrl.obj
 0001:00076a9e       ?OnSetFocus@CMFCPropertyGridCtrl@@IAEXPAVCWnd@@@Z 00477a9e f   nafxcw:afxpropertygridctrl.obj
 0001:00076adb       ?OnKillFocus@CMFCPropertyGridCtrl@@IAEXPAVCWnd@@@Z 00477adb f   nafxcw:afxpropertygridctrl.obj
 0001:00076b46       ?OnStyleChanged@CMFCPropertyGridCtrl@@IAEXHPAUtagSTYLESTRUCT@@@Z 00477b46 f   nafxcw:afxpropertygridctrl.obj
 0001:00076b5e       ?GetTotalItems@CMFCPropertyGridCtrl@@IBEHH@Z 00477b5e f   nafxcw:afxpropertygridctrl.obj
 0001:00076bb9       ?GetScrollBarCtrl@CMFCPropertyGridCtrl@@UBEPAVCScrollBar@@H@Z 00477bb9 f   nafxcw:afxpropertygridctrl.obj
 0001:00076bda       ?OnLButtonDblClk@CMFCPropertyGridCtrl@@IAEXIVCPoint@@@Z 00477bda f   nafxcw:afxpropertygridctrl.obj
 0001:00076d77       ?OnSetCursor@CMFCPropertyGridCtrl@@IAEHPAVCWnd@@II@Z 00477d77 f   nafxcw:afxpropertygridctrl.obj
 0001:00076e5e       ?OnChar@CMFCPropertyGridCtrl@@IAEXIII@Z 00477e5e f   nafxcw:afxpropertygridctrl.obj
 0001:00076e9f       ?OnCtlColor@CMFCPropertyGridCtrl@@IAEPAUHBRUSH__@@PAVCDC@@PAVCWnd@@I@Z 00477e9f f   nafxcw:afxpropertygridctrl.obj
 0001:00076efd       ?CloseColorPopup@CMFCPropertyGridCtrl@@UAEXXZ 00477efd f   nafxcw:afxpropertygridctrl.obj
 0001:00076f3c       ?OnEditKillFocus@CMFCPropertyGridCtrl@@IAEXXZ 00477f3c f   nafxcw:afxpropertygridctrl.obj
 0001:00076fc6       ?OnComboKillFocus@CMFCPropertyGridCtrl@@IAEXXZ 00477fc6 f   nafxcw:afxpropertygridctrl.obj
 0001:0007703e       ?SetDescriptionRows@CMFCPropertyGridCtrl@@QAEXH@Z 0047803e f   nafxcw:afxpropertygridctrl.obj
 0001:00077075       ?SetVSDotNetLook@CMFCPropertyGridCtrl@@QAEXH@Z 00478075 f   nafxcw:afxpropertygridctrl.obj
 0001:0007709e       ?OnMouseMove@CMFCPropertyGridCtrl@@IAEXIVCPoint@@@Z 0047809e f   nafxcw:afxpropertygridctrl.obj
 0001:000770d8       ?OnLButtonUp@CMFCPropertyGridCtrl@@IAEXIVCPoint@@@Z 004780d8 f   nafxcw:afxpropertygridctrl.obj
 0001:0007728a       ?OnNcCalcSize@CMFCPropertyGridCtrl@@IAEXHPAUtagNCCALCSIZE_PARAMS@@@Z 0047828a f   nafxcw:afxpropertygridctrl.obj
 0001:000772b8       ?ProcessClipboardAccelerators@CMFCPropertyGridCtrl@@MAEHI@Z 004782b8 f   nafxcw:afxpropertygridctrl.obj
 0001:00077376       ?NotifyAccessibility@CMFCPropertyGridCtrl@@MAEXPAVCMFCPropertyGridProperty@@@Z 00478376 f   nafxcw:afxpropertygridctrl.obj
 0001:000773d3       ?MarkModifiedProperties@CMFCPropertyGridCtrl@@QAEXHH@Z 004783d3 f   nafxcw:afxpropertygridctrl.obj
 0001:00077401       ?accLocation@CMFCPropertyGridCtrl@@UAEJPAJ000UtagVARIANT@@@Z 00478401 f   nafxcw:afxpropertygridctrl.obj
 0001:000774d5       ?accHitTest@CMFCPropertyGridCtrl@@UAEJJJPAUtagVARIANT@@@Z 004784d5 f   nafxcw:afxpropertygridctrl.obj
 0001:00077547       ?Serialize@?$CArray@KK@@UAEXAAVCArchive@@@Z 00478547 f i nafxcw:afxpropertygridctrl.obj
 0001:00077589       ?AddHead@?$CList@PAVIControlSiteFactory@@PAV1@@@QAEPAU__POSITION@@PAVIControlSiteFactory@@@Z 00478589 f i nafxcw:occmgr.obj
 0001:00077589       ?AddHead@?$CList@KK@@QAEPAU__POSITION@@K@Z 00478589 f i nafxcw:afxtoolbarcomboboxbutton.obj
 0001:00077589       ?AddHead@?$CList@PAU_ITEMIDLIST@@PAU1@@@QAEPAU__POSITION@@PAU_ITEMIDLIST@@@Z 00478589 f i nafxcw:afxshelltreectrl.obj
 0001:00077589       ?AddHead@?$CList@PAVCMFCPropertyGridProperty@@PAV1@@@QAEPAU__POSITION@@PAVCMFCPropertyGridProperty@@@Z 00478589 f i nafxcw:afxpropertygridctrl.obj
 0001:000775b8       ?Init@CMFCPropertyGridCtrl@@MAEXXZ 004785b8 f   nafxcw:afxpropertygridctrl.obj
 0001:00077767       ?OnSetFont@CMFCPropertyGridCtrl@@IAEJIJ@Z 00478767 f   nafxcw:afxpropertygridctrl.obj
 0001:00077795       ?OnPropertyChanged@CMFCPropertyGridCtrl@@UBEXPAVCMFCPropertyGridProperty@@@Z 00478795 f   nafxcw:afxpropertygridctrl.obj
 0001:000777d2       ?OnHeaderTrack@CMFCPropertyGridCtrl@@IAEXPAUtagNMHDR@@PAJ@Z 004787d2 f   nafxcw:afxpropertygridctrl.obj
 0001:00077818       ?OnHeaderEndTrack@CMFCPropertyGridCtrl@@IAEXPAUtagNMHDR@@PAJ@Z 00478818 f   nafxcw:afxpropertygridctrl.obj
 0001:0007782e       ?SetScrollSizes@CMFCPropertyGridCtrl@@IAEXXZ 0047882e f   nafxcw:afxpropertygridctrl.obj
 0001:0007794a       ?OnDestroy@CMFCPropertyGridCtrl@@IAEXXZ 0047894a f   nafxcw:afxpropertygridctrl.obj
 0001:0007799d       ?CompareProps@CMFCPropertyGridCtrl@@MBEHPBVCMFCPropertyGridProperty@@0@Z 0047899d f   nafxcw:afxpropertygridctrl.obj
 0001:000779bd       ?InsertBefore@?$CList@PAVCMFCPropertyGridProperty@@PAV1@@@QAEPAU__POSITION@@PAU2@PAVCMFCPropertyGridProperty@@@Z 004789bd f i nafxcw:afxpropertygridctrl.obj
 0001:000779bd       ?InsertBefore@?$CList@KK@@QAEPAU__POSITION@@PAU2@K@Z 004789bd f i nafxcw:afxtoolbarcomboboxbutton.obj
 0001:000779fd       ?AddTerminalProp@CMFCPropertyGridProperty@@IAEXAAV?$CList@PAVCMFCPropertyGridProperty@@PAV1@@@@Z 004789fd f   nafxcw:afxpropertygridctrl.obj
 0001:00077a8e       ?SetColor@CMFCPropertyGridColorProperty@@QAEXK@Z 00478a8e f   nafxcw:afxpropertygridctrl.obj
 0001:00077b3a       ?ReposProperties@CMFCPropertyGridCtrl@@IAEXXZ 00478b3a f   nafxcw:afxpropertygridctrl.obj
 0001:00077bfc       ?OnHeaderItemChanged@CMFCPropertyGridCtrl@@IAEXPAUtagNMHDR@@PAJ@Z 00478bfc f   nafxcw:afxpropertygridctrl.obj
 0001:00077cfe       ?Create@CMFCPropertyGridCtrl@@UAEHKABUtagRECT@@PAVCWnd@@I@Z 00478cfe f   nafxcw:afxpropertygridctrl.obj
 0001:00077d57       ?OnVScroll@CMFCPropertyGridCtrl@@IAEXIIPAVCScrollBar@@@Z 00478d57 f   nafxcw:afxpropertygridctrl.obj
 0001:00077ea3       ?OnMouseWheel@CMFCPropertyGridCtrl@@IAEHIFVCPoint@@@Z 00478ea3 f   nafxcw:afxpropertygridctrl.obj
 0001:00077ef9       ?EnsureVisible@CMFCPropertyGridCtrl@@QAEXPAVCMFCPropertyGridProperty@@H@Z 00478ef9 f   nafxcw:afxpropertygridctrl.obj
 0001:00078021       ?UpdateColor@CMFCPropertyGridCtrl@@UAEXK@Z 00479021 f   nafxcw:afxpropertygridctrl.obj
 0001:0007809e       ?SetAlphabeticMode@CMFCPropertyGridCtrl@@QAEXH@Z 0047909e f   nafxcw:afxpropertygridctrl.obj
 0001:000780fc       ?get_accValue@CMFCPropertyGridCtrl@@UAEJUtagVARIANT@@PAPA_W@Z 004790fc f   nafxcw:afxpropertygridctrl.obj
 0001:0007815f       ?OnInitControl@CMFCPropertyGridCtrl@@IAEJIJ@Z 0047915f f   nafxcw:afxpropertygridctrl.obj
 0001:000782cb       ?AdjustLayout@CMFCPropertyGridCtrl@@UAEXXZ 004792cb f   nafxcw:afxpropertygridctrl.obj
 0001:0007852b       ?OnLButtonDown@CMFCPropertyGridCtrl@@IAEXIVCPoint@@@Z 0047952b f   nafxcw:afxpropertygridctrl.obj
 0001:00078780       ?OnRButtonDown@CMFCPropertyGridCtrl@@IAEXIVCPoint@@@Z 00479780 f   nafxcw:afxpropertygridctrl.obj
 0001:000788df       ??1CMFCPropertyGridCtrl@@UAE@XZ 004798df f   nafxcw:afxpropertygridctrl.obj
 0001:000789b0       ?GetHeaderCtrl@CMFCPropertyGridCtrl@@UAEAAVCMFCHeaderCtrl@@XZ 004799b0 f i nafxcw:afxpropertygridctrl.obj
 0001:000789b7       ?OnDrawList@CMFCPropertyGridCtrl@@MAEXPAVCDC@@@Z 004799b7 f   nafxcw:afxpropertygridctrl.obj
 0001:00078a9e       ?OnDrawDescription@CMFCPropertyGridCtrl@@MAEXPAVCDC@@VCRect@@@Z 00479a9e f   nafxcw:afxpropertygridctrl.obj
 0001:00078b87       ?OnDrawProperty@CMFCPropertyGridCtrl@@UBEHPAVCDC@@PAVCMFCPropertyGridProperty@@@Z 00479b87 f   nafxcw:afxpropertygridctrl.obj
 0001:00079002       ?TrackToolTip@CMFCPropertyGridCtrl@@IAEXVCPoint@@@Z 0047a002 f   nafxcw:afxpropertygridctrl.obj
 0001:000792f1       ?OnClickButton@CMFCPropertyGridCtrl@@UAEXVCPoint@@@Z 0047a2f1 f   nafxcw:afxpropertygridctrl.obj
 0001:000793ab       ?PreTranslateMessage@CMFCPropertyGridCtrl@@UAEHPAUtagMSG@@@Z 0047a3ab f   nafxcw:afxpropertygridctrl.obj
 0001:00079aeb       ?OnKeyDown@CMFCPropertyGridCtrl@@IAEXIII@Z 0047aaeb f   nafxcw:afxpropertygridctrl.obj
 0001:00079fc7       ?OnNeedTipText@CMFCPropertyGridCtrl@@IAEHIPAUtagNMHDR@@PAJ@Z 0047afc7 f   nafxcw:afxpropertygridctrl.obj
 0001:0007a107       ??0CMFCPropertyGridCtrl@@QAE@XZ 0047b107 f   nafxcw:afxpropertygridctrl.obj
 0001:0007a332       ??_ECMFCPropertyGridCtrl@@UAEPAXI@Z 0047b332 f i nafxcw:afxpropertygridctrl.obj
 0001:0007a332       ??_GCMFCPropertyGridCtrl@@UAEPAXI@Z 0047b332 f i nafxcw:afxpropertygridctrl.obj
 0001:0007a353       ?GetMessageMap@CMFCPropertyGridCtrl@@MBEPBUAFX_MSGMAP@@XZ 0047b353 f   nafxcw:afxpropertygridctrl.obj
 0001:0007a359       ?get_accName@CMFCPropertyGridCtrl@@UAEJUtagVARIANT@@PAPA_W@Z 0047b359 f   nafxcw:afxpropertygridctrl.obj
 0001:0007a3fa       ?get_accDescription@CMFCPropertyGridCtrl@@UAEJUtagVARIANT@@PAPA_W@Z 0047b3fa f   nafxcw:afxpropertygridctrl.obj
 0001:0007a478       ?GetRuntimeClass@CMFCMenuButton@@UBEPAUCRuntimeClass@@XZ 0047b478 f   nafxcw:afxmenubutton.obj
 0001:0007a47e       ??0CMFCMenuButton@@QAE@XZ  0047b47e f   nafxcw:afxmenubutton.obj
 0001:0007a4c8       ??1CMFCMenuButton@@UAE@XZ  0047b4c8 f   nafxcw:afxmenubutton.obj
 0001:0007a4d3       ?SizeToContent@CMFCColorButton@@UAE?AVCSize@@H@Z 0047b4d3 f   nafxcw:afxcolorbutton.obj
 0001:0007a4d3       ?SizeToContent@CMFCMenuButton@@UAE?AVCSize@@H@Z 0047b4d3 f   nafxcw:afxmenubutton.obj
 0001:0007a519       ?OnDraw@CMFCMenuButton@@MAEXPAVCDC@@ABVCRect@@I@Z 0047b519 f   nafxcw:afxmenubutton.obj
 0001:0007a61c       ?PreTranslateMessage@CMFCMenuButton@@UAEHPAUtagMSG@@@Z 0047b61c f   nafxcw:afxmenubutton.obj
 0001:0007a65d       ?OnLButtonDblClk@CMFCMenuButton@@IAEXIVCPoint@@@Z 0047b65d f   nafxcw:afxmenubutton.obj
 0001:0007a69e       ??_GCMFCMenuButton@@UAEPAXI@Z 0047b69e f i nafxcw:afxmenubutton.obj
 0001:0007a69e       ??_ECMFCMenuButton@@UAEPAXI@Z 0047b69e f i nafxcw:afxmenubutton.obj
 0001:0007a6c5       ?OnShowMenu@CMFCMenuButton@@MAEXXZ 0047b6c5 f   nafxcw:afxmenubutton.obj
 0001:0007a82c       ?OnKeyDown@CMFCMenuButton@@IAEXIII@Z 0047b82c f   nafxcw:afxmenubutton.obj
 0001:0007a85a       ?OnLButtonDown@CMFCMenuButton@@IAEXIVCPoint@@@Z 0047b85a f   nafxcw:afxmenubutton.obj
 0001:0007a922       ?OnLButtonUp@CMFCMenuButton@@IAEXIVCPoint@@@Z 0047b922 f   nafxcw:afxmenubutton.obj
 0001:0007a982       ?OnKillFocus@CMFCMenuButton@@IAEXPAVCWnd@@@Z 0047b982 f   nafxcw:afxmenubutton.obj
 0001:0007a9dc       ?OnInitControl@CMFCMenuButton@@IAEJIJ@Z 0047b9dc f   nafxcw:afxmenubutton.obj
 0001:0007aaf0       ?GetMessageMap@CMFCMenuButton@@MBEPBUAFX_MSGMAP@@XZ 0047baf0 f   nafxcw:afxmenubutton.obj
 0001:0007aaf6       ?GetRuntimeClass@CMFCMaskedEdit@@UBEPAUCRuntimeClass@@XZ 0047baf6 f   nafxcw:afxmaskededit.obj
 0001:0007aafc       ?IsMaskedChar@CMFCMaskedEdit@@MBEHDD@Z 0047bafc f   nafxcw:afxmaskededit.obj
 0001:0007abaf       ?OnCreate@CMFCMaskedEdit@@IAEHPAUtagCREATESTRUCTA@@@Z 0047bbaf f   nafxcw:afxmaskededit.obj
 0001:0007abd2       ?DisableMask@CMFCMaskedEdit@@QAEXXZ 0047bbd2 f   nafxcw:afxmaskededit.obj
 0001:0007abe8       ?GetValue@CMFCMaskedEdit@@IBE?BV?$CStringT@DV?$StrTraitMFC@DV?$ChTraitsCRT@D@ATL@@@@@ATL@@XZ 0047bbe8 f i nafxcw:afxmaskededit.obj
 0001:0007ac0b       ??0CMFCMaskedEdit@@QAE@XZ  0047bc0b f   nafxcw:afxmaskededit.obj
 0001:0007ac83       ??1CMFCMaskedEdit@@UAE@XZ  0047bc83 f   nafxcw:afxmaskededit.obj
 0001:0007acc5       ?CheckChar@CMFCMaskedEdit@@AAEHDH@Z 0047bcc5 f   nafxcw:afxmaskededit.obj
 0001:0007ad62       ?GetGroupBounds@CMFCMaskedEdit@@AAEXAAH0HH@Z 0047bd62 f   nafxcw:afxmaskededit.obj
 0001:0007aea1       ?OnSetFocusR@CMFCMaskedEdit@@IAEXXZ 0047bea1 f   nafxcw:afxmaskededit.obj
 0001:0007aefb       ??_ECMFCMaskedEdit@@UAEPAXI@Z 0047befb f i nafxcw:afxmaskededit.obj
 0001:0007aefb       ??_GCMFCMaskedEdit@@UAEPAXI@Z 0047befb f i nafxcw:afxmaskededit.obj
 0001:0007af1c       ?OnLButtonUp@CMFCMaskedEdit@@IAEXIVCPoint@@@Z 0047bf1c f   nafxcw:afxmaskededit.obj
 0001:0007afe2       ?GetMaskedValue@CMFCMaskedEdit@@IBE?BV?$CStringT@DV?$StrTraitMFC@DV?$ChTraitsCRT@D@ATL@@@@@ATL@@H@Z 0047bfe2 f   nafxcw:afxmaskededit.obj
 0001:0007b0a1       ?OnGetText@CMFCMaskedEdit@@IAEJIJ@Z 0047c0a1 f   nafxcw:afxmaskededit.obj
 0001:0007b151       ?OnGetTextLength@CMFCMaskedEdit@@IAEJIJ@Z 0047c151 f   nafxcw:afxmaskededit.obj
 0001:0007b1d3       ?EnableMask@CMFCMaskedEdit@@QAEXPBD0D0@Z 0047c1d3 f   nafxcw:afxmaskededit.obj
 0001:0007b236       ?SetValidChars@CMFCMaskedEdit@@QAEXPBD@Z 0047c236 f   nafxcw:afxmaskededit.obj
 0001:0007b25c       ?OnInitControl@CMFCMaskedEdit@@IAEJIJ@Z 0047c25c f   nafxcw:afxmaskededit.obj
 0001:0007b43a       ?SetValue@CMFCMaskedEdit@@IAEHPBDH@Z 0047c43a f   nafxcw:afxmaskededit.obj
 0001:0007b6b7       ?DoUpdate@CMFCMaskedEdit@@AAEHHHH@Z 0047c6b7 f   nafxcw:afxmaskededit.obj
 0001:0007b775       ?OnCut@CMFCMaskedEdit@@IAEJIJ@Z 0047c775 f   nafxcw:afxmaskededit.obj
 0001:0007b775       ?OnClear@CMFCMaskedEdit@@IAEJIJ@Z 0047c775 f   nafxcw:afxmaskededit.obj
 0001:0007b831       ?OnPaste@CMFCMaskedEdit@@IAEJIJ@Z 0047c831 f   nafxcw:afxmaskededit.obj
 0001:0007ba71       ?OnSetText@CMFCMaskedEdit@@IAEJIJ@Z 0047ca71 f   nafxcw:afxmaskededit.obj
 0001:0007bb14       ?OnCharPrintchar@CMFCMaskedEdit@@AAEXIII@Z 0047cb14 f   nafxcw:afxmaskededit.obj
 0001:0007bf36       ?OnCharBackspace@CMFCMaskedEdit@@AAEXIII@Z 0047cf36 f   nafxcw:afxmaskededit.obj
 0001:0007c361       ?OnCharDelete@CMFCMaskedEdit@@AAEXIII@Z 0047d361 f   nafxcw:afxmaskededit.obj
 0001:0007c77d       ?OnKeyDown@CMFCMaskedEdit@@IAEXIII@Z 0047d77d f   nafxcw:afxmaskededit.obj
 0001:0007cb6a       ?OnChar@CMFCMaskedEdit@@IAEXIII@Z 0047db6a f   nafxcw:afxmaskededit.obj
 0001:0007cbe6       ?GetMessageMap@CMFCMaskedEdit@@MBEPBUAFX_MSGMAP@@XZ 0047dbe6 f   nafxcw:afxmaskededit.obj
 0001:0007cbec       ?GetRuntimeClass@CMFCLinkCtrl@@UBEPAUCRuntimeClass@@XZ 0047dbec f   nafxcw:afxlinkctrl.obj
 0001:0007cbf2       ?OnDrawFocusRect@CMFCLinkCtrl@@MAEXPAVCDC@@ABVCRect@@@Z 0047dbf2 f   nafxcw:afxlinkctrl.obj
